
output.elf:     file format elf32-littlearm


Disassembly of section .text:

00000000 <__Vectors>:
       0:	20002000 	.word	0x20002000
       4:	00000865 	.word	0x00000865
       8:	0000089f 	.word	0x0000089f
       c:	0000088d 	.word	0x0000088d
	...
      2c:	0000089f 	.word	0x0000089f
	...
      38:	0000089f 	.word	0x0000089f
      3c:	0000089f 	.word	0x0000089f
      40:	0000089f 	.word	0x0000089f
      44:	0000089f 	.word	0x0000089f
      48:	0000089f 	.word	0x0000089f
      4c:	0000089f 	.word	0x0000089f
      50:	00000461 	.word	0x00000461
      54:	000004cd 	.word	0x000004cd
      58:	0000089f 	.word	0x0000089f
      5c:	0000089f 	.word	0x0000089f
      60:	0000089f 	.word	0x0000089f
      64:	0000089f 	.word	0x0000089f
      68:	0000089f 	.word	0x0000089f
      6c:	0000089f 	.word	0x0000089f
      70:	0000067d 	.word	0x0000067d
      74:	0000089f 	.word	0x0000089f
      78:	0000089f 	.word	0x0000089f
      7c:	000002f9 	.word	0x000002f9
      80:	0000089f 	.word	0x0000089f
      84:	0000089f 	.word	0x0000089f
      88:	0000089f 	.word	0x0000089f
      8c:	0000089f 	.word	0x0000089f
      90:	0000089f 	.word	0x0000089f
      94:	0000089f 	.word	0x0000089f
      98:	0000089f 	.word	0x0000089f
      9c:	0000089f 	.word	0x0000089f
      a0:	0000089f 	.word	0x0000089f
      a4:	0000089f 	.word	0x0000089f
      a8:	0000089f 	.word	0x0000089f
      ac:	0000089f 	.word	0x0000089f
      b0:	0000089f 	.word	0x0000089f
      b4:	0000089f 	.word	0x0000089f
      b8:	0000089f 	.word	0x0000089f
      bc:	0000089f 	.word	0x0000089f

000000c0 <__do_global_dtors_aux>:
      c0:	e92d4010 	push	{r4, lr}
      c4:	e59f4028 	ldr	r4, [pc, #40]	; f4 <__do_global_dtors_aux+0x34>
      c8:	e5d43000 	ldrb	r3, [r4]
      cc:	e3530000 	cmp	r3, #0
      d0:	1a000005 	bne	ec <__do_global_dtors_aux+0x2c>
      d4:	e59f301c 	ldr	r3, [pc, #28]	; f8 <__do_global_dtors_aux+0x38>
      d8:	e3530000 	cmp	r3, #0
      dc:	159f0018 	ldrne	r0, [pc, #24]	; fc <__do_global_dtors_aux+0x3c>
      e0:	1320f000 	nopne	{0}
      e4:	e3a03001 	mov	r3, #1
      e8:	e5c43000 	strb	r3, [r4]
      ec:	e8bd4010 	pop	{r4, lr}
      f0:	e12fff1e 	bx	lr
      f4:	20000a7c 	.word	0x20000a7c
      f8:	00000000 	.word	0x00000000
      fc:	0000c350 	.word	0x0000c350

00000100 <frame_dummy>:
     100:	e59f301c 	ldr	r3, [pc, #28]	; 124 <frame_dummy+0x24>
     104:	e3530000 	cmp	r3, #0
     108:	012fff1e 	bxeq	lr
     10c:	e92d4010 	push	{r4, lr}
     110:	e59f1010 	ldr	r1, [pc, #16]	; 128 <frame_dummy+0x28>
     114:	e59f0010 	ldr	r0, [pc, #16]	; 12c <frame_dummy+0x2c>
     118:	e320f000 	nop	{0}
     11c:	e8bd4010 	pop	{r4, lr}
     120:	e12fff1e 	bx	lr
     124:	00000000 	.word	0x00000000
     128:	20000a80 	.word	0x20000a80
     12c:	0000c350 	.word	0x0000c350

00000130 <_stack_init>:
     130:	e10f4000 	mrs	r4, CPSR
     134:	e314000f 	tst	r4, #15
     138:	0a00001c 	beq	1b0 <_stack_init+0x80>
     13c:	e1a0300d 	mov	r3, sp
     140:	e3a010d1 	mov	r1, #209	; 0xd1
     144:	e121f001 	msr	CPSR_c, r1
     148:	e1a0d003 	mov	sp, r3
     14c:	e24daa01 	sub	sl, sp, #4096	; 0x1000
     150:	e1a0300a 	mov	r3, sl
     154:	e3a010d7 	mov	r1, #215	; 0xd7
     158:	e121f001 	msr	CPSR_c, r1
     15c:	e1a0d003 	mov	sp, r3
     160:	e2433a01 	sub	r3, r3, #4096	; 0x1000
     164:	e3a010db 	mov	r1, #219	; 0xdb
     168:	e121f001 	msr	CPSR_c, r1
     16c:	e1a0d003 	mov	sp, r3
     170:	e2433a01 	sub	r3, r3, #4096	; 0x1000
     174:	e3a010d2 	mov	r1, #210	; 0xd2
     178:	e121f001 	msr	CPSR_c, r1
     17c:	e1a0d003 	mov	sp, r3
     180:	e2433a02 	sub	r3, r3, #8192	; 0x2000
     184:	e3a010d3 	mov	r1, #211	; 0xd3
     188:	e121f001 	msr	CPSR_c, r1
     18c:	e1a0d003 	mov	sp, r3
     190:	e2433902 	sub	r3, r3, #32768	; 0x8000
     194:	e3c330ff 	bic	r3, r3, #255	; 0xff
     198:	e3c33cff 	bic	r3, r3, #65280	; 0xff00
     19c:	e3a010df 	mov	r1, #223	; 0xdf
     1a0:	e121f001 	msr	CPSR_c, r1
     1a4:	e1a0d003 	mov	sp, r3
     1a8:	e38440c0 	orr	r4, r4, #192	; 0xc0
     1ac:	e121f004 	msr	CPSR_c, r4
     1b0:	e243a801 	sub	sl, r3, #65536	; 0x10000
     1b4:	e12fff1e 	bx	lr

000001b8 <_mainCRTStartup>:
     1b8:	e59f3094 	ldr	r3, [pc, #148]	; 254 <_mainCRTStartup+0x9c>
     1bc:	e3530000 	cmp	r3, #0
     1c0:	059f3080 	ldreq	r3, [pc, #128]	; 248 <_mainCRTStartup+0x90>
     1c4:	e1a0d003 	mov	sp, r3
     1c8:	ebffffd8 	bl	130 <_stack_init>
     1cc:	e3b01000 	movs	r1, #0
     1d0:	e1a0b001 	mov	fp, r1
     1d4:	e1a07001 	mov	r7, r1
     1d8:	e59f0078 	ldr	r0, [pc, #120]	; 258 <_mainCRTStartup+0xa0>
     1dc:	e59f2078 	ldr	r2, [pc, #120]	; 25c <_mainCRTStartup+0xa4>
     1e0:	e0522000 	subs	r2, r2, r0
     1e4:	eb000616 	bl	1a44 <memset>
     1e8:	e59f305c 	ldr	r3, [pc, #92]	; 24c <_mainCRTStartup+0x94>
     1ec:	e3530000 	cmp	r3, #0
     1f0:	0a000001 	beq	1fc <_mainCRTStartup+0x44>
     1f4:	e1a0e00f 	mov	lr, pc
     1f8:	e1a0f003 	mov	pc, r3
     1fc:	e59f304c 	ldr	r3, [pc, #76]	; 250 <_mainCRTStartup+0x98>
     200:	e3530000 	cmp	r3, #0
     204:	0a000001 	beq	210 <_mainCRTStartup+0x58>
     208:	e1a0e00f 	mov	lr, pc
     20c:	e1a0f003 	mov	pc, r3
     210:	e3b00000 	movs	r0, #0
     214:	e3b01000 	movs	r1, #0
     218:	e1b04000 	movs	r4, r0
     21c:	e1b05001 	movs	r5, r1
     220:	e59f0038 	ldr	r0, [pc, #56]	; 260 <_mainCRTStartup+0xa8>
     224:	e3500000 	cmp	r0, #0
     228:	0a000001 	beq	234 <_mainCRTStartup+0x7c>
     22c:	e59f0030 	ldr	r0, [pc, #48]	; 264 <_mainCRTStartup+0xac>
     230:	eb001184 	bl	4848 <atexit>
     234:	eb000598 	bl	189c <__libc_init_array>
     238:	e1b00004 	movs	r0, r4
     23c:	e1b01005 	movs	r1, r5
     240:	eb002e6c 	bl	bbf8 <__main_from_arm>
     244:	eb000587 	bl	1868 <exit>
     248:	00080000 	.word	0x00080000
	...
     254:	20002000 	.word	0x20002000
     258:	20000a7c 	.word	0x20000a7c
     25c:	20000f3c 	.word	0x20000f3c
     260:	00004848 	.word	0x00004848
     264:	00006608 	.word	0x00006608

00000268 <COIN0_proces>:
     268:	b510      	push	{r4, lr}
     26a:	4802      	ldr	r0, [pc, #8]	; (274 <COIN0_proces+0xc>)
     26c:	f001 fc78 	bl	1b60 <printf>
     270:	bd10      	pop	{r4, pc}
     272:	46c0      	nop			; (mov r8, r8)
     274:	0000bc28 	.word	0x0000bc28

00000278 <BLOCK0_proces>:
     278:	b510      	push	{r4, lr}
     27a:	4802      	ldr	r0, [pc, #8]	; (284 <BLOCK0_proces+0xc>)
     27c:	f001 fc70 	bl	1b60 <printf>
     280:	bd10      	pop	{r4, pc}
     282:	46c0      	nop			; (mov r8, r8)
     284:	0000bc40 	.word	0x0000bc40

00000288 <COIN1_proces>:
     288:	b510      	push	{r4, lr}
     28a:	4802      	ldr	r0, [pc, #8]	; (294 <COIN1_proces+0xc>)
     28c:	f001 fc68 	bl	1b60 <printf>
     290:	bd10      	pop	{r4, pc}
     292:	46c0      	nop			; (mov r8, r8)
     294:	0000bc28 	.word	0x0000bc28

00000298 <COIN2_proces>:
     298:	b510      	push	{r4, lr}
     29a:	4802      	ldr	r0, [pc, #8]	; (2a4 <COIN2_proces+0xc>)
     29c:	f001 fc60 	bl	1b60 <printf>
     2a0:	bd10      	pop	{r4, pc}
     2a2:	46c0      	nop			; (mov r8, r8)
     2a4:	0000bc28 	.word	0x0000bc28

000002a8 <PRIZE0_proces>:
     2a8:	b510      	push	{r4, lr}
     2aa:	4802      	ldr	r0, [pc, #8]	; (2b4 <PRIZE0_proces+0xc>)
     2ac:	f001 fc58 	bl	1b60 <printf>
     2b0:	bd10      	pop	{r4, pc}
     2b2:	46c0      	nop			; (mov r8, r8)
     2b4:	0000bc40 	.word	0x0000bc40

000002b8 <BLOCK1_proces>:
     2b8:	b510      	push	{r4, lr}
     2ba:	4802      	ldr	r0, [pc, #8]	; (2c4 <BLOCK1_proces+0xc>)
     2bc:	f001 fc50 	bl	1b60 <printf>
     2c0:	bd10      	pop	{r4, pc}
     2c2:	46c0      	nop			; (mov r8, r8)
     2c4:	0000bc40 	.word	0x0000bc40

000002c8 <PRIZE1_proces>:
     2c8:	b510      	push	{r4, lr}
     2ca:	4802      	ldr	r0, [pc, #8]	; (2d4 <PRIZE1_proces+0xc>)
     2cc:	f001 fc48 	bl	1b60 <printf>
     2d0:	bd10      	pop	{r4, pc}
     2d2:	46c0      	nop			; (mov r8, r8)
     2d4:	0000bc40 	.word	0x0000bc40

000002d8 <BLOCK2_proces>:
     2d8:	b510      	push	{r4, lr}
     2da:	4802      	ldr	r0, [pc, #8]	; (2e4 <BLOCK2_proces+0xc>)
     2dc:	f001 fc40 	bl	1b60 <printf>
     2e0:	bd10      	pop	{r4, pc}
     2e2:	46c0      	nop			; (mov r8, r8)
     2e4:	0000bc40 	.word	0x0000bc40

000002e8 <PRIZE2_proces>:
     2e8:	b510      	push	{r4, lr}
     2ea:	4802      	ldr	r0, [pc, #8]	; (2f4 <PRIZE2_proces+0xc>)
     2ec:	f001 fc38 	bl	1b60 <printf>
     2f0:	bd10      	pop	{r4, pc}
     2f2:	46c0      	nop			; (mov r8, r8)
     2f4:	0000bc40 	.word	0x0000bc40

000002f8 <UART3_IRQHandler>:
     2f8:	4b32      	ldr	r3, [pc, #200]	; (3c4 <UART3_IRQHandler+0xcc>)
     2fa:	b570      	push	{r4, r5, r6, lr}
     2fc:	69da      	ldr	r2, [r3, #28]
     2fe:	07d2      	lsls	r2, r2, #31
     300:	d524      	bpl.n	34c <UART3_IRQHandler+0x54>
     302:	4c31      	ldr	r4, [pc, #196]	; (3c8 <UART3_IRQHandler+0xd0>)
     304:	6819      	ldr	r1, [r3, #0]
     306:	7822      	ldrb	r2, [r4, #0]
     308:	b2c9      	uxtb	r1, r1
     30a:	b2d3      	uxtb	r3, r2
     30c:	2a04      	cmp	r2, #4
     30e:	d81d      	bhi.n	34c <UART3_IRQHandler+0x54>
     310:	4a2e      	ldr	r2, [pc, #184]	; (3cc <UART3_IRQHandler+0xd4>)
     312:	009b      	lsls	r3, r3, #2
     314:	58d3      	ldr	r3, [r2, r3]
     316:	469f      	mov	pc, r3
     318:	2343      	movs	r3, #67	; 0x43
     31a:	4d2d      	ldr	r5, [pc, #180]	; (3d0 <UART3_IRQHandler+0xd8>)
     31c:	54e9      	strb	r1, [r5, r3]
     31e:	78a8      	ldrb	r0, [r5, #2]
     320:	3002      	adds	r0, #2
     322:	b2c0      	uxtb	r0, r0
     324:	2800      	cmp	r0, #0
     326:	d04a      	beq.n	3be <UART3_IRQHandler+0xc6>
     328:	2300      	movs	r3, #0
     32a:	2200      	movs	r2, #0
     32c:	18e9      	adds	r1, r5, r3
     32e:	7849      	ldrb	r1, [r1, #1]
     330:	3301      	adds	r3, #1
     332:	404a      	eors	r2, r1
     334:	b2d9      	uxtb	r1, r3
     336:	4288      	cmp	r0, r1
     338:	d8f8      	bhi.n	32c <UART3_IRQHandler+0x34>
     33a:	2343      	movs	r3, #67	; 0x43
     33c:	5ceb      	ldrb	r3, [r5, r3]
     33e:	4293      	cmp	r3, r2
     340:	d02d      	beq.n	39e <UART3_IRQHandler+0xa6>
     342:	4824      	ldr	r0, [pc, #144]	; (3d4 <UART3_IRQHandler+0xdc>)
     344:	f001 fc0c 	bl	1b60 <printf>
     348:	2300      	movs	r3, #0
     34a:	7023      	strb	r3, [r4, #0]
     34c:	bd70      	pop	{r4, r5, r6, pc}
     34e:	4a22      	ldr	r2, [pc, #136]	; (3d8 <UART3_IRQHandler+0xe0>)
     350:	7813      	ldrb	r3, [r2, #0]
     352:	1c58      	adds	r0, r3, #1
     354:	b2c0      	uxtb	r0, r0
     356:	7010      	strb	r0, [r2, #0]
     358:	481d      	ldr	r0, [pc, #116]	; (3d0 <UART3_IRQHandler+0xd8>)
     35a:	18c3      	adds	r3, r0, r3
     35c:	70d9      	strb	r1, [r3, #3]
     35e:	7881      	ldrb	r1, [r0, #2]
     360:	7813      	ldrb	r3, [r2, #0]
     362:	4299      	cmp	r1, r3
     364:	d8f2      	bhi.n	34c <UART3_IRQHandler+0x54>
     366:	2304      	movs	r3, #4
     368:	7023      	strb	r3, [r4, #0]
     36a:	e7ef      	b.n	34c <UART3_IRQHandler+0x54>
     36c:	29aa      	cmp	r1, #170	; 0xaa
     36e:	d1ed      	bne.n	34c <UART3_IRQHandler+0x54>
     370:	4b17      	ldr	r3, [pc, #92]	; (3d0 <UART3_IRQHandler+0xd8>)
     372:	7019      	strb	r1, [r3, #0]
     374:	2301      	movs	r3, #1
     376:	7023      	strb	r3, [r4, #0]
     378:	e7e8      	b.n	34c <UART3_IRQHandler+0x54>
     37a:	4b15      	ldr	r3, [pc, #84]	; (3d0 <UART3_IRQHandler+0xd8>)
     37c:	7059      	strb	r1, [r3, #1]
     37e:	2302      	movs	r3, #2
     380:	7023      	strb	r3, [r4, #0]
     382:	e7e3      	b.n	34c <UART3_IRQHandler+0x54>
     384:	2200      	movs	r2, #0
     386:	4b12      	ldr	r3, [pc, #72]	; (3d0 <UART3_IRQHandler+0xd8>)
     388:	7099      	strb	r1, [r3, #2]
     38a:	4913      	ldr	r1, [pc, #76]	; (3d8 <UART3_IRQHandler+0xe0>)
     38c:	700a      	strb	r2, [r1, #0]
     38e:	789b      	ldrb	r3, [r3, #2]
     390:	2b40      	cmp	r3, #64	; 0x40
     392:	d901      	bls.n	398 <UART3_IRQHandler+0xa0>
     394:	7022      	strb	r2, [r4, #0]
     396:	e7d9      	b.n	34c <UART3_IRQHandler+0x54>
     398:	2303      	movs	r3, #3
     39a:	7023      	strb	r3, [r4, #0]
     39c:	e7d6      	b.n	34c <UART3_IRQHandler+0x54>
     39e:	78aa      	ldrb	r2, [r5, #2]
     3a0:	7869      	ldrb	r1, [r5, #1]
     3a2:	480e      	ldr	r0, [pc, #56]	; (3dc <UART3_IRQHandler+0xe4>)
     3a4:	b2c9      	uxtb	r1, r1
     3a6:	b2d2      	uxtb	r2, r2
     3a8:	f001 fbda 	bl	1b60 <printf>
     3ac:	786b      	ldrb	r3, [r5, #1]
     3ae:	b2d9      	uxtb	r1, r3
     3b0:	3b01      	subs	r3, #1
     3b2:	2b01      	cmp	r3, #1
     3b4:	d9c8      	bls.n	348 <UART3_IRQHandler+0x50>
     3b6:	480a      	ldr	r0, [pc, #40]	; (3e0 <UART3_IRQHandler+0xe8>)
     3b8:	f001 fbd2 	bl	1b60 <printf>
     3bc:	e7c4      	b.n	348 <UART3_IRQHandler+0x50>
     3be:	2200      	movs	r2, #0
     3c0:	e7bb      	b.n	33a <UART3_IRQHandler+0x42>
     3c2:	46c0      	nop			; (mov r8, r8)
     3c4:	40054000 	.word	0x40054000
     3c8:	20000eec 	.word	0x20000eec
     3cc:	0000bcac 	.word	0x0000bcac
     3d0:	20000ea8 	.word	0x20000ea8
     3d4:	0000bc98 	.word	0x0000bc98
     3d8:	20000ea4 	.word	0x20000ea4
     3dc:	0000bc58 	.word	0x0000bc58
     3e0:	0000bc7c 	.word	0x0000bc7c

000003e4 <SYS_Init>:
     3e4:	b570      	push	{r4, r5, r6, lr}
     3e6:	2004      	movs	r0, #4
     3e8:	f000 fb36 	bl	a58 <CLK_EnableXtalRC>
     3ec:	2010      	movs	r0, #16
     3ee:	f000 fd19 	bl	e24 <CLK_WaitClockReady>
     3f2:	2100      	movs	r1, #0
     3f4:	2007      	movs	r0, #7
     3f6:	f000 fabb 	bl	970 <CLK_SetHCLK>
     3fa:	2001      	movs	r0, #1
     3fc:	f000 fb2c 	bl	a58 <CLK_EnableXtalRC>
     400:	4c14      	ldr	r4, [pc, #80]	; (454 <Stack_Size+0x54>)
     402:	2001      	movs	r0, #1
     404:	f000 fd0e 	bl	e24 <CLK_WaitClockReady>
     408:	4813      	ldr	r0, [pc, #76]	; (458 <Stack_Size+0x58>)
     40a:	f000 fcb1 	bl	d70 <CLK_SetCoreClock>
     40e:	0020      	movs	r0, r4
     410:	f000 fb32 	bl	a78 <CLK_EnableModuleClock>
     414:	0020      	movs	r0, r4
     416:	24a0      	movs	r4, #160	; 0xa0
     418:	2200      	movs	r2, #0
     41a:	2100      	movs	r1, #0
     41c:	f000 fada 	bl	9d4 <CLK_SetModuleClock>
     420:	2103      	movs	r1, #3
     422:	05e4      	lsls	r4, r4, #23
     424:	6b62      	ldr	r2, [r4, #52]	; 0x34
     426:	4d0d      	ldr	r5, [pc, #52]	; (45c <Stack_Size+0x5c>)
     428:	438a      	bics	r2, r1
     42a:	6362      	str	r2, [r4, #52]	; 0x34
     42c:	6b63      	ldr	r3, [r4, #52]	; 0x34
     42e:	0028      	movs	r0, r5
     430:	430b      	orrs	r3, r1
     432:	6363      	str	r3, [r4, #52]	; 0x34
     434:	f000 fb20 	bl	a78 <CLK_EnableModuleClock>
     438:	0028      	movs	r0, r5
     43a:	2200      	movs	r2, #0
     43c:	2100      	movs	r1, #0
     43e:	f000 fac9 	bl	9d4 <CLK_SetModuleClock>
     442:	2160      	movs	r1, #96	; 0x60
     444:	6b22      	ldr	r2, [r4, #48]	; 0x30
     446:	438a      	bics	r2, r1
     448:	6322      	str	r2, [r4, #48]	; 0x30
     44a:	6b23      	ldr	r3, [r4, #48]	; 0x30
     44c:	430b      	orrs	r3, r1
     44e:	6323      	str	r3, [r4, #48]	; 0x30
     450:	bd70      	pop	{r4, r5, r6, pc}
     452:	46c0      	nop			; (mov r8, r8)
     454:	57803d10 	.word	0x57803d10
     458:	02faf080 	.word	0x02faf080
     45c:	97803d08 	.word	0x97803d08

00000460 <GPAB_IRQHandler>:
     460:	b570      	push	{r4, r5, r6, lr}
     462:	4c15      	ldr	r4, [pc, #84]	; (4b8 <GPAB_IRQHandler+0x58>)
     464:	2000      	movs	r0, #0
     466:	0025      	movs	r5, r4
     468:	4e14      	ldr	r6, [pc, #80]	; (4bc <GPAB_IRQHandler+0x5c>)
     46a:	3590      	adds	r5, #144	; 0x90
     46c:	e002      	b.n	474 <GPAB_IRQHandler+0x14>
     46e:	3410      	adds	r4, #16
     470:	42ac      	cmp	r4, r5
     472:	d011      	beq.n	498 <GPAB_IRQHandler+0x38>
     474:	6823      	ldr	r3, [r4, #0]
     476:	6862      	ldr	r2, [r4, #4]
     478:	6a19      	ldr	r1, [r3, #32]
     47a:	420a      	tst	r2, r1
     47c:	d0f7      	beq.n	46e <GPAB_IRQHandler+0xe>
     47e:	621a      	str	r2, [r3, #32]
     480:	0030      	movs	r0, r6
     482:	68a1      	ldr	r1, [r4, #8]
     484:	f001 fb6c 	bl	1b60 <printf>
     488:	68e3      	ldr	r3, [r4, #12]
     48a:	2b00      	cmp	r3, #0
     48c:	d007      	beq.n	49e <GPAB_IRQHandler+0x3e>
     48e:	3410      	adds	r4, #16
     490:	4798      	blx	r3
     492:	2001      	movs	r0, #1
     494:	42ac      	cmp	r4, r5
     496:	d1ed      	bne.n	474 <GPAB_IRQHandler+0x14>
     498:	2800      	cmp	r0, #0
     49a:	d002      	beq.n	4a2 <GPAB_IRQHandler+0x42>
     49c:	bd70      	pop	{r4, r5, r6, pc}
     49e:	2001      	movs	r0, #1
     4a0:	e7e5      	b.n	46e <GPAB_IRQHandler+0xe>
     4a2:	4b07      	ldr	r3, [pc, #28]	; (4c0 <GPAB_IRQHandler+0x60>)
     4a4:	4807      	ldr	r0, [pc, #28]	; (4c4 <GPAB_IRQHandler+0x64>)
     4a6:	6a1a      	ldr	r2, [r3, #32]
     4a8:	621a      	str	r2, [r3, #32]
     4aa:	4b07      	ldr	r3, [pc, #28]	; (4c8 <GPAB_IRQHandler+0x68>)
     4ac:	6a1a      	ldr	r2, [r3, #32]
     4ae:	621a      	str	r2, [r3, #32]
     4b0:	f001 fb56 	bl	1b60 <printf>
     4b4:	e7f2      	b.n	49c <GPAB_IRQHandler+0x3c>
     4b6:	46c0      	nop			; (mov r8, r8)
     4b8:	20000004 	.word	0x20000004
     4bc:	0000bcc0 	.word	0x0000bcc0
     4c0:	50004000 	.word	0x50004000
     4c4:	0000bcdc 	.word	0x0000bcdc
     4c8:	50004040 	.word	0x50004040

000004cc <GPCDEF_IRQHandler>:
     4cc:	b570      	push	{r4, r5, r6, lr}
     4ce:	4c14      	ldr	r4, [pc, #80]	; (520 <GPCDEF_IRQHandler+0x54>)
     4d0:	2000      	movs	r0, #0
     4d2:	0025      	movs	r5, r4
     4d4:	4e13      	ldr	r6, [pc, #76]	; (524 <GPCDEF_IRQHandler+0x58>)
     4d6:	3590      	adds	r5, #144	; 0x90
     4d8:	e002      	b.n	4e0 <GPCDEF_IRQHandler+0x14>
     4da:	3410      	adds	r4, #16
     4dc:	42ac      	cmp	r4, r5
     4de:	d011      	beq.n	504 <GPCDEF_IRQHandler+0x38>
     4e0:	6823      	ldr	r3, [r4, #0]
     4e2:	6862      	ldr	r2, [r4, #4]
     4e4:	6a19      	ldr	r1, [r3, #32]
     4e6:	420a      	tst	r2, r1
     4e8:	d0f7      	beq.n	4da <GPCDEF_IRQHandler+0xe>
     4ea:	621a      	str	r2, [r3, #32]
     4ec:	0030      	movs	r0, r6
     4ee:	68a1      	ldr	r1, [r4, #8]
     4f0:	f001 fb36 	bl	1b60 <printf>
     4f4:	68e3      	ldr	r3, [r4, #12]
     4f6:	2b00      	cmp	r3, #0
     4f8:	d010      	beq.n	51c <GPCDEF_IRQHandler+0x50>
     4fa:	3410      	adds	r4, #16
     4fc:	4798      	blx	r3
     4fe:	2001      	movs	r0, #1
     500:	42ac      	cmp	r4, r5
     502:	d1ed      	bne.n	4e0 <GPCDEF_IRQHandler+0x14>
     504:	2800      	cmp	r0, #0
     506:	d108      	bne.n	51a <GPCDEF_IRQHandler+0x4e>
     508:	4b07      	ldr	r3, [pc, #28]	; (528 <GPCDEF_IRQHandler+0x5c>)
     50a:	6a1a      	ldr	r2, [r3, #32]
     50c:	621a      	str	r2, [r3, #32]
     50e:	4b07      	ldr	r3, [pc, #28]	; (52c <GPCDEF_IRQHandler+0x60>)
     510:	6a1a      	ldr	r2, [r3, #32]
     512:	621a      	str	r2, [r3, #32]
     514:	4b06      	ldr	r3, [pc, #24]	; (530 <GPCDEF_IRQHandler+0x64>)
     516:	6a1a      	ldr	r2, [r3, #32]
     518:	621a      	str	r2, [r3, #32]
     51a:	bd70      	pop	{r4, r5, r6, pc}
     51c:	2001      	movs	r0, #1
     51e:	e7dc      	b.n	4da <GPCDEF_IRQHandler+0xe>
     520:	20000004 	.word	0x20000004
     524:	0000bcc0 	.word	0x0000bcc0
     528:	50004080 	.word	0x50004080
     52c:	500040c0 	.word	0x500040c0
     530:	50004140 	.word	0x50004140

00000534 <UART3_Init>:
     534:	b510      	push	{r4, lr}
     536:	4804      	ldr	r0, [pc, #16]	; (548 <UART3_Init+0x14>)
     538:	f000 ff58 	bl	13ec <SYS_ResetModule>
     53c:	21e1      	movs	r1, #225	; 0xe1
     53e:	4803      	ldr	r0, [pc, #12]	; (54c <UART3_Init+0x18>)
     540:	0249      	lsls	r1, r1, #9
     542:	f000 fd63 	bl	100c <UART_Open>
     546:	bd10      	pop	{r4, pc}
     548:	08000008 	.word	0x08000008
     54c:	40054000 	.word	0x40054000

00000550 <UART0_Init>:
     550:	b510      	push	{r4, lr}
     552:	4804      	ldr	r0, [pc, #16]	; (564 <UART0_Init+0x14>)
     554:	f000 ff4a 	bl	13ec <SYS_ResetModule>
     558:	21e1      	movs	r1, #225	; 0xe1
     55a:	4803      	ldr	r0, [pc, #12]	; (568 <UART0_Init+0x18>)
     55c:	0249      	lsls	r1, r1, #9
     55e:	f000 fd55 	bl	100c <UART_Open>
     562:	bd10      	pop	{r4, pc}
     564:	04000010 	.word	0x04000010
     568:	40050000 	.word	0x40050000

0000056c <UART_TEST_HANDLE>:
     56c:	b5f8      	push	{r3, r4, r5, r6, r7, lr}
     56e:	4647      	mov	r7, r8
     570:	46ce      	mov	lr, r9
     572:	4b38      	ldr	r3, [pc, #224]	; (654 <UART_TEST_HANDLE+0xe8>)
     574:	b580      	push	{r7, lr}
     576:	69db      	ldr	r3, [r3, #28]
     578:	4698      	mov	r8, r3
     57a:	05db      	lsls	r3, r3, #23
     57c:	d42a      	bmi.n	5d4 <UART_TEST_HANDLE+0x68>
     57e:	4643      	mov	r3, r8
     580:	059b      	lsls	r3, r3, #22
     582:	d51e      	bpl.n	5c2 <UART_TEST_HANDLE+0x56>
     584:	4b34      	ldr	r3, [pc, #208]	; (658 <UART_TEST_HANDLE+0xec>)
     586:	4c35      	ldr	r4, [pc, #212]	; (65c <UART_TEST_HANDLE+0xf0>)
     588:	681b      	ldr	r3, [r3, #0]
     58a:	6822      	ldr	r2, [r4, #0]
     58c:	041b      	lsls	r3, r3, #16
     58e:	0c1b      	lsrs	r3, r3, #16
     590:	429a      	cmp	r2, r3
     592:	d016      	beq.n	5c2 <UART_TEST_HANDLE+0x56>
     594:	4a32      	ldr	r2, [pc, #200]	; (660 <UART_TEST_HANDLE+0xf4>)
     596:	6823      	ldr	r3, [r4, #0]
     598:	482e      	ldr	r0, [pc, #184]	; (654 <UART_TEST_HANDLE+0xe8>)
     59a:	5cd5      	ldrb	r5, [r2, r3]
     59c:	2280      	movs	r2, #128	; 0x80
     59e:	0412      	lsls	r2, r2, #16
     5a0:	6983      	ldr	r3, [r0, #24]
     5a2:	0019      	movs	r1, r3
     5a4:	4011      	ands	r1, r2
     5a6:	4213      	tst	r3, r2
     5a8:	d1fa      	bne.n	5a0 <UART_TEST_HANDLE+0x34>
     5aa:	6005      	str	r5, [r0, #0]
     5ac:	6822      	ldr	r2, [r4, #0]
     5ae:	4b2d      	ldr	r3, [pc, #180]	; (664 <UART_TEST_HANDLE+0xf8>)
     5b0:	429a      	cmp	r2, r3
     5b2:	d001      	beq.n	5b8 <UART_TEST_HANDLE+0x4c>
     5b4:	6821      	ldr	r1, [r4, #0]
     5b6:	3101      	adds	r1, #1
     5b8:	4a2b      	ldr	r2, [pc, #172]	; (668 <UART_TEST_HANDLE+0xfc>)
     5ba:	6021      	str	r1, [r4, #0]
     5bc:	6813      	ldr	r3, [r2, #0]
     5be:	3b01      	subs	r3, #1
     5c0:	6013      	str	r3, [r2, #0]
     5c2:	2180      	movs	r1, #128	; 0x80
     5c4:	4643      	mov	r3, r8
     5c6:	0189      	lsls	r1, r1, #6
     5c8:	420b      	tst	r3, r1
     5ca:	d12e      	bne.n	62a <UART_TEST_HANDLE+0xbe>
     5cc:	bcc0      	pop	{r6, r7}
     5ce:	46b9      	mov	r9, r7
     5d0:	46b0      	mov	r8, r6
     5d2:	bdf8      	pop	{r3, r4, r5, r6, r7, pc}
     5d4:	2580      	movs	r5, #128	; 0x80
     5d6:	4647      	mov	r7, r8
     5d8:	4824      	ldr	r0, [pc, #144]	; (66c <UART_TEST_HANDLE+0x100>)
     5da:	f001 fac1 	bl	1b60 <printf>
     5de:	4b24      	ldr	r3, [pc, #144]	; (670 <UART_TEST_HANDLE+0x104>)
     5e0:	00ed      	lsls	r5, r5, #3
     5e2:	4699      	mov	r9, r3
     5e4:	4e23      	ldr	r6, [pc, #140]	; (674 <UART_TEST_HANDLE+0x108>)
     5e6:	402f      	ands	r7, r5
     5e8:	e010      	b.n	60c <UART_TEST_HANDLE+0xa0>
     5ea:	21ff      	movs	r1, #255	; 0xff
     5ec:	4b19      	ldr	r3, [pc, #100]	; (654 <UART_TEST_HANDLE+0xe8>)
     5ee:	0030      	movs	r0, r6
     5f0:	681b      	ldr	r3, [r3, #0]
     5f2:	b2dc      	uxtb	r4, r3
     5f4:	4019      	ands	r1, r3
     5f6:	f001 fab3 	bl	1b60 <printf>
     5fa:	2c30      	cmp	r4, #48	; 0x30
     5fc:	d102      	bne.n	604 <UART_TEST_HANDLE+0x98>
     5fe:	2300      	movs	r3, #0
     600:	464a      	mov	r2, r9
     602:	6013      	str	r3, [r2, #0]
     604:	4b18      	ldr	r3, [pc, #96]	; (668 <UART_TEST_HANDLE+0xfc>)
     606:	681a      	ldr	r2, [r3, #0]
     608:	42aa      	cmp	r2, r5
     60a:	d312      	bcc.n	632 <UART_TEST_HANDLE+0xc6>
     60c:	4811      	ldr	r0, [pc, #68]	; (654 <UART_TEST_HANDLE+0xe8>)
     60e:	69c3      	ldr	r3, [r0, #28]
     610:	07db      	lsls	r3, r3, #31
     612:	d506      	bpl.n	622 <UART_TEST_HANDLE+0xb6>
     614:	2f00      	cmp	r7, #0
     616:	d0e8      	beq.n	5ea <UART_TEST_HANDLE+0x7e>
     618:	2180      	movs	r1, #128	; 0x80
     61a:	00c9      	lsls	r1, r1, #3
     61c:	f000 fc40 	bl	ea0 <UART_ClearIntFlag>
     620:	e7e3      	b.n	5ea <UART_TEST_HANDLE+0x7e>
     622:	4815      	ldr	r0, [pc, #84]	; (678 <UART_TEST_HANDLE+0x10c>)
     624:	f001 fa9c 	bl	1b60 <printf>
     628:	e7a9      	b.n	57e <UART_TEST_HANDLE+0x12>
     62a:	480a      	ldr	r0, [pc, #40]	; (654 <UART_TEST_HANDLE+0xe8>)
     62c:	f000 fc38 	bl	ea0 <UART_ClearIntFlag>
     630:	e7cc      	b.n	5cc <UART_TEST_HANDLE+0x60>
     632:	4a09      	ldr	r2, [pc, #36]	; (658 <UART_TEST_HANDLE+0xec>)
     634:	480a      	ldr	r0, [pc, #40]	; (660 <UART_TEST_HANDLE+0xf4>)
     636:	6811      	ldr	r1, [r2, #0]
     638:	5444      	strb	r4, [r0, r1]
     63a:	6810      	ldr	r0, [r2, #0]
     63c:	4909      	ldr	r1, [pc, #36]	; (664 <UART_TEST_HANDLE+0xf8>)
     63e:	4288      	cmp	r0, r1
     640:	d006      	beq.n	650 <UART_TEST_HANDLE+0xe4>
     642:	6811      	ldr	r1, [r2, #0]
     644:	3101      	adds	r1, #1
     646:	6011      	str	r1, [r2, #0]
     648:	681a      	ldr	r2, [r3, #0]
     64a:	3201      	adds	r2, #1
     64c:	601a      	str	r2, [r3, #0]
     64e:	e7dd      	b.n	60c <UART_TEST_HANDLE+0xa0>
     650:	2100      	movs	r1, #0
     652:	e7f8      	b.n	646 <UART_TEST_HANDLE+0xda>
     654:	40050000 	.word	0x40050000
     658:	20000aa0 	.word	0x20000aa0
     65c:	20000a9c 	.word	0x20000a9c
     660:	20000aa4 	.word	0x20000aa4
     664:	000003ff 	.word	0x000003ff
     668:	20000a98 	.word	0x20000a98
     66c:	0000bcf8 	.word	0x0000bcf8
     670:	20000000 	.word	0x20000000
     674:	0000bd00 	.word	0x0000bd00
     678:	0000bd04 	.word	0x0000bd04

0000067c <UART02_IRQHandler>:
     67c:	b510      	push	{r4, lr}
     67e:	f7ff ff75 	bl	56c <UART_TEST_HANDLE>
     682:	bd10      	pop	{r4, pc}

00000684 <UART_FunctionTest>:
     684:	b510      	push	{r4, lr}
     686:	4c18      	ldr	r4, [pc, #96]	; (6e8 <UART_FunctionTest+0x64>)
     688:	0020      	movs	r0, r4
     68a:	f001 fa69 	bl	1b60 <printf>
     68e:	4817      	ldr	r0, [pc, #92]	; (6ec <UART_FunctionTest+0x68>)
     690:	f001 fa66 	bl	1b60 <printf>
     694:	0020      	movs	r0, r4
     696:	f001 fa63 	bl	1b60 <printf>
     69a:	4815      	ldr	r0, [pc, #84]	; (6f0 <UART_FunctionTest+0x6c>)
     69c:	f001 fa60 	bl	1b60 <printf>
     6a0:	4814      	ldr	r0, [pc, #80]	; (6f4 <UART_FunctionTest+0x70>)
     6a2:	f001 fa5d 	bl	1b60 <printf>
     6a6:	4814      	ldr	r0, [pc, #80]	; (6f8 <UART_FunctionTest+0x74>)
     6a8:	f001 fa5a 	bl	1b60 <printf>
     6ac:	0020      	movs	r0, r4
     6ae:	f001 fa57 	bl	1b60 <printf>
     6b2:	2127      	movs	r1, #39	; 0x27
     6b4:	4811      	ldr	r0, [pc, #68]	; (6fc <UART_FunctionTest+0x78>)
     6b6:	f000 fc71 	bl	f9c <UART_EnableInt>
     6ba:	2280      	movs	r2, #128	; 0x80
     6bc:	4b10      	ldr	r3, [pc, #64]	; (700 <UART_FunctionTest+0x7c>)
     6be:	0152      	lsls	r2, r2, #5
     6c0:	4c10      	ldr	r4, [pc, #64]	; (704 <UART_FunctionTest+0x80>)
     6c2:	601a      	str	r2, [r3, #0]
     6c4:	6823      	ldr	r3, [r4, #0]
     6c6:	2b00      	cmp	r3, #0
     6c8:	d1fc      	bne.n	6c4 <UART_FunctionTest+0x40>
     6ca:	2127      	movs	r1, #39	; 0x27
     6cc:	480b      	ldr	r0, [pc, #44]	; (6fc <UART_FunctionTest+0x78>)
     6ce:	f000 fc19 	bl	f04 <UART_DisableInt>
     6d2:	2180      	movs	r1, #128	; 0x80
     6d4:	2380      	movs	r3, #128	; 0x80
     6d6:	4a0a      	ldr	r2, [pc, #40]	; (700 <UART_FunctionTest+0x7c>)
     6d8:	0149      	lsls	r1, r1, #5
     6da:	50d1      	str	r1, [r2, r3]
     6dc:	480a      	ldr	r0, [pc, #40]	; (708 <UART_FunctionTest+0x84>)
     6de:	3b7f      	subs	r3, #127	; 0x7f
     6e0:	6023      	str	r3, [r4, #0]
     6e2:	f001 fa3d 	bl	1b60 <printf>
     6e6:	bd10      	pop	{r4, pc}
     6e8:	0000bd18 	.word	0x0000bd18
     6ec:	0000bd58 	.word	0x0000bd58
     6f0:	0000bd98 	.word	0x0000bd98
     6f4:	0000bdd8 	.word	0x0000bdd8
     6f8:	0000be18 	.word	0x0000be18
     6fc:	40050000 	.word	0x40050000
     700:	e000e100 	.word	0xe000e100
     704:	20000000 	.word	0x20000000
     708:	0000be58 	.word	0x0000be58

0000070c <main>:
     70c:	22a0      	movs	r2, #160	; 0xa0
     70e:	2380      	movs	r3, #128	; 0x80
     710:	b570      	push	{r4, r5, r6, lr}
     712:	4923      	ldr	r1, [pc, #140]	; (7a0 <main+0x94>)
     714:	2659      	movs	r6, #89	; 0x59
     716:	2516      	movs	r5, #22
     718:	2488      	movs	r4, #136	; 0x88
     71a:	05d2      	lsls	r2, r2, #23
     71c:	005b      	lsls	r3, r3, #1
     71e:	e005      	b.n	72c <main+0x20>
     720:	3901      	subs	r1, #1
     722:	50d6      	str	r6, [r2, r3]
     724:	50d5      	str	r5, [r2, r3]
     726:	50d4      	str	r4, [r2, r3]
     728:	2900      	cmp	r1, #0
     72a:	d002      	beq.n	732 <main+0x26>
     72c:	58d0      	ldr	r0, [r2, r3]
     72e:	2801      	cmp	r0, #1
     730:	d1f6      	bne.n	720 <main+0x14>
     732:	f7ff fe57 	bl	3e4 <SYS_Init>
     736:	22a0      	movs	r2, #160	; 0xa0
     738:	2380      	movs	r3, #128	; 0x80
     73a:	2100      	movs	r1, #0
     73c:	05d2      	lsls	r2, r2, #23
     73e:	005b      	lsls	r3, r3, #1
     740:	50d1      	str	r1, [r2, r3]
     742:	f7ff ff05 	bl	550 <UART0_Init>
     746:	f7ff fef5 	bl	534 <UART3_Init>
     74a:	4b16      	ldr	r3, [pc, #88]	; (7a4 <main+0x98>)
     74c:	4816      	ldr	r0, [pc, #88]	; (7a8 <main+0x9c>)
     74e:	6819      	ldr	r1, [r3, #0]
     750:	f001 fa06 	bl	1b60 <printf>
     754:	4815      	ldr	r0, [pc, #84]	; (7ac <main+0xa0>)
     756:	f001 fa03 	bl	1b60 <printf>
     75a:	f7ff ff93 	bl	684 <UART_FunctionTest>
     75e:	4814      	ldr	r0, [pc, #80]	; (7b0 <main+0xa4>)
     760:	f001 f9fe 	bl	1b60 <printf>
     764:	2180      	movs	r1, #128	; 0x80
     766:	2200      	movs	r2, #0
     768:	4812      	ldr	r0, [pc, #72]	; (7b4 <main+0xa8>)
     76a:	0089      	lsls	r1, r1, #2
     76c:	f000 fe6a 	bl	1444 <GPIO_SetMode>
     770:	2280      	movs	r2, #128	; 0x80
     772:	2109      	movs	r1, #9
     774:	480f      	ldr	r0, [pc, #60]	; (7b4 <main+0xa8>)
     776:	0252      	lsls	r2, r2, #9
     778:	f000 fe7a 	bl	1470 <GPIO_EnableInt>
     77c:	2310      	movs	r3, #16
     77e:	4c0e      	ldr	r4, [pc, #56]	; (7b8 <main+0xac>)
     780:	2200      	movs	r2, #0
     782:	6023      	str	r3, [r4, #0]
     784:	2120      	movs	r1, #32
     786:	480d      	ldr	r0, [pc, #52]	; (7bc <main+0xb0>)
     788:	f000 fe5c 	bl	1444 <GPIO_SetMode>
     78c:	2280      	movs	r2, #128	; 0x80
     78e:	2105      	movs	r1, #5
     790:	480a      	ldr	r0, [pc, #40]	; (7bc <main+0xb0>)
     792:	0252      	lsls	r2, r2, #9
     794:	f000 fe6c 	bl	1470 <GPIO_EnableInt>
     798:	2320      	movs	r3, #32
     79a:	6023      	str	r3, [r4, #0]
     79c:	e7fe      	b.n	79c <main+0x90>
     79e:	46c0      	nop			; (mov r8, r8)
     7a0:	01518000 	.word	0x01518000
     7a4:	200000b8 	.word	0x200000b8
     7a8:	0000be70 	.word	0x0000be70
     7ac:	0000be80 	.word	0x0000be80
     7b0:	0000be98 	.word	0x0000be98
     7b4:	50004000 	.word	0x50004000
     7b8:	e000e100 	.word	0xe000e100
     7bc:	50004140 	.word	0x50004140

000007c0 <SystemCoreClockUpdate>:
     7c0:	22a0      	movs	r2, #160	; 0xa0
     7c2:	b510      	push	{r4, lr}
     7c4:	4b1f      	ldr	r3, [pc, #124]	; (844 <SystemCoreClockUpdate+0x84>)
     7c6:	b082      	sub	sp, #8
     7c8:	9301      	str	r3, [sp, #4]
     7ca:	4b1f      	ldr	r3, [pc, #124]	; (848 <SystemCoreClockUpdate+0x88>)
     7cc:	02d2      	lsls	r2, r2, #11
     7ce:	6a1b      	ldr	r3, [r3, #32]
     7d0:	4213      	tst	r3, r2
     7d2:	d134      	bne.n	83e <SystemCoreClockUpdate+0x7e>
     7d4:	4a1d      	ldr	r2, [pc, #116]	; (84c <SystemCoreClockUpdate+0x8c>)
     7d6:	0318      	lsls	r0, r3, #12
     7d8:	17c0      	asrs	r0, r0, #31
     7da:	4010      	ands	r0, r2
     7dc:	4a1c      	ldr	r2, [pc, #112]	; (850 <SystemCoreClockUpdate+0x90>)
     7de:	4694      	mov	ip, r2
     7e0:	4460      	add	r0, ip
     7e2:	039a      	lsls	r2, r3, #14
     7e4:	d40f      	bmi.n	806 <SystemCoreClockUpdate+0x46>
     7e6:	05da      	lsls	r2, r3, #23
     7e8:	0dd2      	lsrs	r2, r2, #23
     7ea:	3202      	adds	r2, #2
     7ec:	0880      	lsrs	r0, r0, #2
     7ee:	4350      	muls	r0, r2
     7f0:	041a      	lsls	r2, r3, #16
     7f2:	a901      	add	r1, sp, #4
     7f4:	049b      	lsls	r3, r3, #18
     7f6:	0f92      	lsrs	r2, r2, #30
     7f8:	5c8a      	ldrb	r2, [r1, r2]
     7fa:	0ed9      	lsrs	r1, r3, #27
     7fc:	3102      	adds	r1, #2
     7fe:	4351      	muls	r1, r2
     800:	f000 ff02 	bl	1608 <__udivsi3>
     804:	0080      	lsls	r0, r0, #2
     806:	4c13      	ldr	r4, [pc, #76]	; (854 <SystemCoreClockUpdate+0x94>)
     808:	4b0f      	ldr	r3, [pc, #60]	; (848 <SystemCoreClockUpdate+0x88>)
     80a:	6020      	str	r0, [r4, #0]
     80c:	691a      	ldr	r2, [r3, #16]
     80e:	2307      	movs	r3, #7
     810:	4013      	ands	r3, r2
     812:	2b02      	cmp	r3, #2
     814:	d002      	beq.n	81c <SystemCoreClockUpdate+0x5c>
     816:	009b      	lsls	r3, r3, #2
     818:	18e3      	adds	r3, r4, r3
     81a:	6858      	ldr	r0, [r3, #4]
     81c:	210f      	movs	r1, #15
     81e:	4b0a      	ldr	r3, [pc, #40]	; (848 <SystemCoreClockUpdate+0x88>)
     820:	699b      	ldr	r3, [r3, #24]
     822:	4019      	ands	r1, r3
     824:	3101      	adds	r1, #1
     826:	f000 feef 	bl	1608 <__udivsi3>
     82a:	4b0b      	ldr	r3, [pc, #44]	; (858 <SystemCoreClockUpdate+0x98>)
     82c:	6260      	str	r0, [r4, #36]	; 0x24
     82e:	469c      	mov	ip, r3
     830:	490a      	ldr	r1, [pc, #40]	; (85c <SystemCoreClockUpdate+0x9c>)
     832:	4460      	add	r0, ip
     834:	f000 fee8 	bl	1608 <__udivsi3>
     838:	62a0      	str	r0, [r4, #40]	; 0x28
     83a:	b002      	add	sp, #8
     83c:	bd10      	pop	{r4, pc}
     83e:	2000      	movs	r0, #0
     840:	e7e1      	b.n	806 <SystemCoreClockUpdate+0x46>
     842:	46c0      	nop			; (mov r8, r8)
     844:	04020201 	.word	0x04020201
     848:	50000200 	.word	0x50000200
     84c:	009a6500 	.word	0x009a6500
     850:	00b71b00 	.word	0x00b71b00
     854:	20000094 	.word	0x20000094
     858:	0007a120 	.word	0x0007a120
     85c:	000f4240 	.word	0x000f4240

00000860 <SystemInit>:
     860:	4770      	bx	lr
     862:	46c0      	nop			; (mov r8, r8)

00000864 <Reset_Handler>:
     864:	4906      	ldr	r1, [pc, #24]	; (880 <Reset_Handler+0x1c>)
     866:	4a07      	ldr	r2, [pc, #28]	; (884 <Reset_Handler+0x20>)
     868:	4b07      	ldr	r3, [pc, #28]	; (888 <Reset_Handler+0x24>)
     86a:	1a9b      	subs	r3, r3, r2
     86c:	dd03      	ble.n	876 <Reset_Handler+0x12>
     86e:	3b04      	subs	r3, #4
     870:	58c8      	ldr	r0, [r1, r3]
     872:	50d0      	str	r0, [r2, r3]
     874:	dcfb      	bgt.n	86e <Reset_Handler+0xa>
     876:	f7ff fff3 	bl	860 <SystemInit>
     87a:	f7ff fc9d 	bl	1b8 <_mainCRTStartup>
     87e:	0000      	.short	0x0000
     880:	0000c35c 	.word	0x0000c35c
     884:	20000000 	.word	0x20000000
     888:	20000a7c 	.word	0x20000a7c

0000088c <HardFault_Handler>:
     88c:	4670      	mov	r0, lr
     88e:	f3ef 8108 	mrs	r1, MSP
     892:	f3ef 8209 	mrs	r2, PSP
     896:	4b04      	ldr	r3, [pc, #16]	; (8a8 <SH_DoCommand+0x8>)
     898:	4798      	blx	r3
     89a:	4700      	bx	r0

0000089c <ProcessHardFaultx>:
     89c:	e7fe      	b.n	89c <ProcessHardFaultx>

0000089e <ADC_IRQHandler>:
     89e:	e7fe      	b.n	89e <ADC_IRQHandler>

000008a0 <SH_DoCommand>:
     8a0:	beab      	bkpt	0x00ab
     8a2:	4674      	mov	r4, lr
     8a4:	4798      	blx	r3
     8a6:	4720      	bx	r4
     8a8:	000014b9 	.word	0x000014b9

000008ac <CLK_DisableCKO>:
     8ac:	2140      	movs	r1, #64	; 0x40
     8ae:	4a02      	ldr	r2, [pc, #8]	; (8b8 <CLK_DisableCKO+0xc>)
     8b0:	6893      	ldr	r3, [r2, #8]
     8b2:	438b      	bics	r3, r1
     8b4:	6093      	str	r3, [r2, #8]
     8b6:	4770      	bx	lr
     8b8:	50000200 	.word	0x50000200

000008bc <CLK_EnableCKO>:
     8bc:	0152      	lsls	r2, r2, #5
     8be:	430a      	orrs	r2, r1
     8c0:	2110      	movs	r1, #16
     8c2:	4b06      	ldr	r3, [pc, #24]	; (8dc <CLK_EnableCKO+0x20>)
     8c4:	430a      	orrs	r2, r1
     8c6:	625a      	str	r2, [r3, #36]	; 0x24
     8c8:	689a      	ldr	r2, [r3, #8]
     8ca:	3130      	adds	r1, #48	; 0x30
     8cc:	430a      	orrs	r2, r1
     8ce:	609a      	str	r2, [r3, #8]
     8d0:	69da      	ldr	r2, [r3, #28]
     8d2:	3934      	subs	r1, #52	; 0x34
     8d4:	438a      	bics	r2, r1
     8d6:	4302      	orrs	r2, r0
     8d8:	61da      	str	r2, [r3, #28]
     8da:	4770      	bx	lr
     8dc:	50000200 	.word	0x50000200

000008e0 <CLK_PowerDown>:
     8e0:	2104      	movs	r1, #4
     8e2:	4a06      	ldr	r2, [pc, #24]	; (8fc <CLK_PowerDown+0x1c>)
     8e4:	6913      	ldr	r3, [r2, #16]
     8e6:	430b      	orrs	r3, r1
     8e8:	6113      	str	r3, [r2, #16]
     8ea:	23c0      	movs	r3, #192	; 0xc0
     8ec:	4a04      	ldr	r2, [pc, #16]	; (900 <CLK_PowerDown+0x20>)
     8ee:	005b      	lsls	r3, r3, #1
     8f0:	6811      	ldr	r1, [r2, #0]
     8f2:	430b      	orrs	r3, r1
     8f4:	6013      	str	r3, [r2, #0]
     8f6:	bf30      	wfi
     8f8:	4770      	bx	lr
     8fa:	46c0      	nop			; (mov r8, r8)
     8fc:	e000ed00 	.word	0xe000ed00
     900:	50000200 	.word	0x50000200

00000904 <CLK_Idle>:
     904:	2104      	movs	r1, #4
     906:	4a05      	ldr	r2, [pc, #20]	; (91c <CLK_Idle+0x18>)
     908:	6913      	ldr	r3, [r2, #16]
     90a:	438b      	bics	r3, r1
     90c:	6113      	str	r3, [r2, #16]
     90e:	4a04      	ldr	r2, [pc, #16]	; (920 <CLK_Idle+0x1c>)
     910:	317c      	adds	r1, #124	; 0x7c
     912:	6813      	ldr	r3, [r2, #0]
     914:	438b      	bics	r3, r1
     916:	6013      	str	r3, [r2, #0]
     918:	bf30      	wfi
     91a:	4770      	bx	lr
     91c:	e000ed00 	.word	0xe000ed00
     920:	50000200 	.word	0x50000200

00000924 <CLK_GetHXTFreq>:
     924:	2201      	movs	r2, #1
     926:	0010      	movs	r0, r2
     928:	4b03      	ldr	r3, [pc, #12]	; (938 <CLK_GetHXTFreq+0x14>)
     92a:	681b      	ldr	r3, [r3, #0]
     92c:	4018      	ands	r0, r3
     92e:	421a      	tst	r2, r3
     930:	d000      	beq.n	934 <CLK_GetHXTFreq+0x10>
     932:	4802      	ldr	r0, [pc, #8]	; (93c <CLK_GetHXTFreq+0x18>)
     934:	4770      	bx	lr
     936:	46c0      	nop			; (mov r8, r8)
     938:	50000200 	.word	0x50000200
     93c:	00b71b00 	.word	0x00b71b00

00000940 <CLK_GetHCLKFreq>:
     940:	b510      	push	{r4, lr}
     942:	f7ff ff3d 	bl	7c0 <SystemCoreClockUpdate>
     946:	4b01      	ldr	r3, [pc, #4]	; (94c <CLK_GetHCLKFreq+0xc>)
     948:	6818      	ldr	r0, [r3, #0]
     94a:	bd10      	pop	{r4, pc}
     94c:	200000b8 	.word	0x200000b8

00000950 <CLK_GetPCLKFreq>:
     950:	b510      	push	{r4, lr}
     952:	f7ff ff35 	bl	7c0 <SystemCoreClockUpdate>
     956:	4b01      	ldr	r3, [pc, #4]	; (95c <CLK_GetPCLKFreq+0xc>)
     958:	6818      	ldr	r0, [r3, #0]
     95a:	bd10      	pop	{r4, pc}
     95c:	200000b8 	.word	0x200000b8

00000960 <CLK_GetCPUFreq>:
     960:	b510      	push	{r4, lr}
     962:	f7ff ff2d 	bl	7c0 <SystemCoreClockUpdate>
     966:	4b01      	ldr	r3, [pc, #4]	; (96c <CLK_GetCPUFreq+0xc>)
     968:	6818      	ldr	r0, [r3, #0]
     96a:	bd10      	pop	{r4, pc}
     96c:	200000b8 	.word	0x200000b8

00000970 <CLK_SetHCLK>:
     970:	b5f8      	push	{r3, r4, r5, r6, r7, lr}
     972:	2610      	movs	r6, #16
     974:	2204      	movs	r2, #4
     976:	4c15      	ldr	r4, [pc, #84]	; (9cc <CLK_SetHCLK+0x5c>)
     978:	0007      	movs	r7, r0
     97a:	68e3      	ldr	r3, [r4, #12]
     97c:	0008      	movs	r0, r1
     97e:	401e      	ands	r6, r3
     980:	6823      	ldr	r3, [r4, #0]
     982:	2510      	movs	r5, #16
     984:	4313      	orrs	r3, r2
     986:	6023      	str	r3, [r4, #0]
     988:	4b11      	ldr	r3, [pc, #68]	; (9d0 <CLK_SetHCLK+0x60>)
     98a:	681b      	ldr	r3, [r3, #0]
     98c:	085b      	lsrs	r3, r3, #1
     98e:	e003      	b.n	998 <CLK_SetHCLK+0x28>
     990:	1e5a      	subs	r2, r3, #1
     992:	2b00      	cmp	r3, #0
     994:	dd03      	ble.n	99e <CLK_SetHCLK+0x2e>
     996:	0013      	movs	r3, r2
     998:	68e2      	ldr	r2, [r4, #12]
     99a:	4215      	tst	r5, r2
     99c:	d0f8      	beq.n	990 <CLK_SetHCLK+0x20>
     99e:	2207      	movs	r2, #7
     9a0:	4c0a      	ldr	r4, [pc, #40]	; (9cc <CLK_SetHCLK+0x5c>)
     9a2:	6923      	ldr	r3, [r4, #16]
     9a4:	4313      	orrs	r3, r2
     9a6:	6123      	str	r3, [r4, #16]
     9a8:	230f      	movs	r3, #15
     9aa:	69a1      	ldr	r1, [r4, #24]
     9ac:	4399      	bics	r1, r3
     9ae:	4301      	orrs	r1, r0
     9b0:	61a1      	str	r1, [r4, #24]
     9b2:	6920      	ldr	r0, [r4, #16]
     9b4:	4390      	bics	r0, r2
     9b6:	4338      	orrs	r0, r7
     9b8:	6120      	str	r0, [r4, #16]
     9ba:	f7ff ff01 	bl	7c0 <SystemCoreClockUpdate>
     9be:	2e00      	cmp	r6, #0
     9c0:	d103      	bne.n	9ca <CLK_SetHCLK+0x5a>
     9c2:	2204      	movs	r2, #4
     9c4:	6823      	ldr	r3, [r4, #0]
     9c6:	4393      	bics	r3, r2
     9c8:	6023      	str	r3, [r4, #0]
     9ca:	bdf8      	pop	{r3, r4, r5, r6, r7, pc}
     9cc:	50000200 	.word	0x50000200
     9d0:	200000b8 	.word	0x200000b8

000009d4 <CLK_SetModuleClock>:
     9d4:	b5f0      	push	{r4, r5, r6, r7, lr}
     9d6:	46c6      	mov	lr, r8
     9d8:	b500      	push	{lr}
     9da:	b084      	sub	sp, #16
     9dc:	466c      	mov	r4, sp
     9de:	0025      	movs	r5, r4
     9e0:	4b15      	ldr	r3, [pc, #84]	; (a38 <CLK_SetModuleClock+0x64>)
     9e2:	4690      	mov	r8, r2
     9e4:	cbc4      	ldmia	r3!, {r2, r6, r7}
     9e6:	c5c4      	stmia	r5!, {r2, r6, r7}
     9e8:	681b      	ldr	r3, [r3, #0]
     9ea:	602b      	str	r3, [r5, #0]
     9ec:	0383      	lsls	r3, r0, #14
     9ee:	0e1b      	lsrs	r3, r3, #24
     9f0:	d00d      	beq.n	a0e <CLK_SetModuleClock+0x3a>
     9f2:	4a12      	ldr	r2, [pc, #72]	; (a3c <CLK_SetModuleClock+0x68>)
     9f4:	0587      	lsls	r7, r0, #22
     9f6:	4694      	mov	ip, r2
     9f8:	0eff      	lsrs	r7, r7, #27
     9fa:	40bb      	lsls	r3, r7
     9fc:	4642      	mov	r2, r8
     9fe:	0305      	lsls	r5, r0, #12
     a00:	0fad      	lsrs	r5, r5, #30
     a02:	4465      	add	r5, ip
     a04:	00ad      	lsls	r5, r5, #2
     a06:	682e      	ldr	r6, [r5, #0]
     a08:	439e      	bics	r6, r3
     a0a:	4332      	orrs	r2, r6
     a0c:	602a      	str	r2, [r5, #0]
     a0e:	0103      	lsls	r3, r0, #4
     a10:	0f5b      	lsrs	r3, r3, #29
     a12:	d00d      	beq.n	a30 <CLK_SetModuleClock+0x5c>
     a14:	0082      	lsls	r2, r0, #2
     a16:	0f92      	lsrs	r2, r2, #30
     a18:	0092      	lsls	r2, r2, #2
     a1a:	58a4      	ldr	r4, [r4, r2]
     a1c:	4a08      	ldr	r2, [pc, #32]	; (a40 <CLK_SetModuleClock+0x6c>)
     a1e:	01c0      	lsls	r0, r0, #7
     a20:	4694      	mov	ip, r2
     a22:	0ec0      	lsrs	r0, r0, #27
     a24:	4083      	lsls	r3, r0
     a26:	4464      	add	r4, ip
     a28:	6822      	ldr	r2, [r4, #0]
     a2a:	439a      	bics	r2, r3
     a2c:	4311      	orrs	r1, r2
     a2e:	6021      	str	r1, [r4, #0]
     a30:	b004      	add	sp, #16
     a32:	bc80      	pop	{r7}
     a34:	46b8      	mov	r8, r7
     a36:	bdf0      	pop	{r4, r5, r6, r7, pc}
     a38:	0000bf14 	.word	0x0000bf14
     a3c:	14000086 	.word	0x14000086
     a40:	50000210 	.word	0x50000210

00000a44 <CLK_SetSysTickClockSrc>:
     a44:	2138      	movs	r1, #56	; 0x38
     a46:	4a03      	ldr	r2, [pc, #12]	; (a54 <CLK_SetSysTickClockSrc+0x10>)
     a48:	6913      	ldr	r3, [r2, #16]
     a4a:	438b      	bics	r3, r1
     a4c:	4303      	orrs	r3, r0
     a4e:	6113      	str	r3, [r2, #16]
     a50:	4770      	bx	lr
     a52:	46c0      	nop			; (mov r8, r8)
     a54:	50000200 	.word	0x50000200

00000a58 <CLK_EnableXtalRC>:
     a58:	4a02      	ldr	r2, [pc, #8]	; (a64 <CLK_EnableXtalRC+0xc>)
     a5a:	6813      	ldr	r3, [r2, #0]
     a5c:	4303      	orrs	r3, r0
     a5e:	6013      	str	r3, [r2, #0]
     a60:	4770      	bx	lr
     a62:	46c0      	nop			; (mov r8, r8)
     a64:	50000200 	.word	0x50000200

00000a68 <CLK_DisableXtalRC>:
     a68:	4a02      	ldr	r2, [pc, #8]	; (a74 <CLK_DisableXtalRC+0xc>)
     a6a:	6813      	ldr	r3, [r2, #0]
     a6c:	4383      	bics	r3, r0
     a6e:	6013      	str	r3, [r2, #0]
     a70:	4770      	bx	lr
     a72:	46c0      	nop			; (mov r8, r8)
     a74:	50000200 	.word	0x50000200

00000a78 <CLK_EnableModuleClock>:
     a78:	b570      	push	{r4, r5, r6, lr}
     a7a:	b084      	sub	sp, #16
     a7c:	466a      	mov	r2, sp
     a7e:	0011      	movs	r1, r2
     a80:	4b0a      	ldr	r3, [pc, #40]	; (aac <CLK_EnableModuleClock+0x34>)
     a82:	3310      	adds	r3, #16
     a84:	cb70      	ldmia	r3!, {r4, r5, r6}
     a86:	c170      	stmia	r1!, {r4, r5, r6}
     a88:	681b      	ldr	r3, [r3, #0]
     a8a:	600b      	str	r3, [r1, #0]
     a8c:	0f83      	lsrs	r3, r0, #30
     a8e:	009b      	lsls	r3, r3, #2
     a90:	589a      	ldr	r2, [r3, r2]
     a92:	4b07      	ldr	r3, [pc, #28]	; (ab0 <CLK_EnableModuleClock+0x38>)
     a94:	211f      	movs	r1, #31
     a96:	469c      	mov	ip, r3
     a98:	2301      	movs	r3, #1
     a9a:	4008      	ands	r0, r1
     a9c:	4083      	lsls	r3, r0
     a9e:	4462      	add	r2, ip
     aa0:	6814      	ldr	r4, [r2, #0]
     aa2:	4323      	orrs	r3, r4
     aa4:	6013      	str	r3, [r2, #0]
     aa6:	b004      	add	sp, #16
     aa8:	bd70      	pop	{r4, r5, r6, pc}
     aaa:	46c0      	nop			; (mov r8, r8)
     aac:	0000bf14 	.word	0x0000bf14
     ab0:	50000204 	.word	0x50000204

00000ab4 <CLK_DisableModuleClock>:
     ab4:	b570      	push	{r4, r5, r6, lr}
     ab6:	b084      	sub	sp, #16
     ab8:	466a      	mov	r2, sp
     aba:	0011      	movs	r1, r2
     abc:	4b0a      	ldr	r3, [pc, #40]	; (ae8 <CLK_DisableModuleClock+0x34>)
     abe:	3310      	adds	r3, #16
     ac0:	cb70      	ldmia	r3!, {r4, r5, r6}
     ac2:	c170      	stmia	r1!, {r4, r5, r6}
     ac4:	681b      	ldr	r3, [r3, #0]
     ac6:	600b      	str	r3, [r1, #0]
     ac8:	211f      	movs	r1, #31
     aca:	0f83      	lsrs	r3, r0, #30
     acc:	009b      	lsls	r3, r3, #2
     ace:	589b      	ldr	r3, [r3, r2]
     ad0:	4a06      	ldr	r2, [pc, #24]	; (aec <CLK_DisableModuleClock+0x38>)
     ad2:	4008      	ands	r0, r1
     ad4:	4694      	mov	ip, r2
     ad6:	391e      	subs	r1, #30
     ad8:	4081      	lsls	r1, r0
     ada:	4463      	add	r3, ip
     adc:	681a      	ldr	r2, [r3, #0]
     ade:	438a      	bics	r2, r1
     ae0:	601a      	str	r2, [r3, #0]
     ae2:	b004      	add	sp, #16
     ae4:	bd70      	pop	{r4, r5, r6, pc}
     ae6:	46c0      	nop			; (mov r8, r8)
     ae8:	0000bf14 	.word	0x0000bf14
     aec:	50000204 	.word	0x50000204

00000af0 <CLK_EnablePLL>:
     af0:	b5f0      	push	{r4, r5, r6, r7, lr}
     af2:	4645      	mov	r5, r8
     af4:	46de      	mov	lr, fp
     af6:	4657      	mov	r7, sl
     af8:	464e      	mov	r6, r9
     afa:	2380      	movs	r3, #128	; 0x80
     afc:	b5e0      	push	{r5, r6, r7, lr}
     afe:	4688      	mov	r8, r1
     b00:	4988      	ldr	r1, [pc, #544]	; (d24 <CLK_EnablePLL+0x234>)
     b02:	025b      	lsls	r3, r3, #9
     b04:	620b      	str	r3, [r1, #32]
     b06:	680b      	ldr	r3, [r1, #0]
     b08:	b087      	sub	sp, #28
     b0a:	2800      	cmp	r0, #0
     b0c:	d000      	beq.n	b10 <CLK_EnablePLL+0x20>
     b0e:	e086      	b.n	c1e <CLK_EnablePLL+0x12e>
     b10:	2201      	movs	r2, #1
     b12:	4313      	orrs	r3, r2
     b14:	600b      	str	r3, [r1, #0]
     b16:	4b84      	ldr	r3, [pc, #528]	; (d28 <CLK_EnablePLL+0x238>)
     b18:	2401      	movs	r4, #1
     b1a:	681b      	ldr	r3, [r3, #0]
     b1c:	085b      	lsrs	r3, r3, #1
     b1e:	469a      	mov	sl, r3
     b20:	001a      	movs	r2, r3
     b22:	e004      	b.n	b2e <CLK_EnablePLL+0x3e>
     b24:	1e53      	subs	r3, r2, #1
     b26:	2a00      	cmp	r2, #0
     b28:	dc00      	bgt.n	b2c <CLK_EnablePLL+0x3c>
     b2a:	e0bb      	b.n	ca4 <CLK_EnablePLL+0x1b4>
     b2c:	001a      	movs	r2, r3
     b2e:	0025      	movs	r5, r4
     b30:	68cb      	ldr	r3, [r1, #12]
     b32:	401d      	ands	r5, r3
     b34:	421c      	tst	r4, r3
     b36:	d0f5      	beq.n	b24 <CLK_EnablePLL+0x34>
     b38:	2300      	movs	r3, #0
     b3a:	9301      	str	r3, [sp, #4]
     b3c:	3302      	adds	r3, #2
     b3e:	4699      	mov	r9, r3
     b40:	4b7a      	ldr	r3, [pc, #488]	; (d2c <CLK_EnablePLL+0x23c>)
     b42:	4a7b      	ldr	r2, [pc, #492]	; (d30 <CLK_EnablePLL+0x240>)
     b44:	9300      	str	r3, [sp, #0]
     b46:	4b7b      	ldr	r3, [pc, #492]	; (d34 <CLK_EnablePLL+0x244>)
     b48:	4443      	add	r3, r8
     b4a:	4293      	cmp	r3, r2
     b4c:	d900      	bls.n	b50 <CLK_EnablePLL+0x60>
     b4e:	e083      	b.n	c58 <CLK_EnablePLL+0x168>
     b50:	2301      	movs	r3, #1
     b52:	9303      	str	r3, [sp, #12]
     b54:	2300      	movs	r3, #0
     b56:	469b      	mov	fp, r3
     b58:	4653      	mov	r3, sl
     b5a:	2501      	movs	r5, #1
     b5c:	9302      	str	r3, [sp, #8]
     b5e:	9b00      	ldr	r3, [sp, #0]
     b60:	2400      	movs	r4, #0
     b62:	469a      	mov	sl, r3
     b64:	4e74      	ldr	r6, [pc, #464]	; (d38 <CLK_EnablePLL+0x248>)
     b66:	4f75      	ldr	r7, [pc, #468]	; (d3c <CLK_EnablePLL+0x24c>)
     b68:	426d      	negs	r5, r5
     b6a:	e005      	b.n	b78 <CLK_EnablePLL+0x88>
     b6c:	2301      	movs	r3, #1
     b6e:	469c      	mov	ip, r3
     b70:	44e1      	add	r9, ip
     b72:	464b      	mov	r3, r9
     b74:	2b22      	cmp	r3, #34	; 0x22
     b76:	d02f      	beq.n	bd8 <CLK_EnablePLL+0xe8>
     b78:	4649      	mov	r1, r9
     b7a:	4650      	mov	r0, sl
     b7c:	f000 fd44 	bl	1608 <__udivsi3>
     b80:	4b6f      	ldr	r3, [pc, #444]	; (d40 <CLK_EnablePLL+0x250>)
     b82:	4a70      	ldr	r2, [pc, #448]	; (d44 <CLK_EnablePLL+0x254>)
     b84:	18c3      	adds	r3, r0, r3
     b86:	4293      	cmp	r3, r2
     b88:	d8f0      	bhi.n	b6c <CLK_EnablePLL+0x7c>
     b8a:	0029      	movs	r1, r5
     b8c:	4642      	mov	r2, r8
     b8e:	4645      	mov	r5, r8
     b90:	0043      	lsls	r3, r0, #1
     b92:	181b      	adds	r3, r3, r0
     b94:	46a4      	mov	ip, r4
     b96:	4688      	mov	r8, r1
     b98:	2402      	movs	r4, #2
     b9a:	0029      	movs	r1, r5
     b9c:	1ad2      	subs	r2, r2, r3
     b9e:	e004      	b.n	baa <CLK_EnablePLL+0xba>
     ba0:	46cb      	mov	fp, r9
     ba2:	46a4      	mov	ip, r4
     ba4:	46a8      	mov	r8, r5
     ba6:	1a12      	subs	r2, r2, r0
     ba8:	181b      	adds	r3, r3, r0
     baa:	3401      	adds	r4, #1
     bac:	42b4      	cmp	r4, r6
     bae:	d063      	beq.n	c78 <CLK_EnablePLL+0x188>
     bb0:	4d65      	ldr	r5, [pc, #404]	; (d48 <CLK_EnablePLL+0x258>)
     bb2:	195d      	adds	r5, r3, r5
     bb4:	42bd      	cmp	r5, r7
     bb6:	d8f6      	bhi.n	ba6 <CLK_EnablePLL+0xb6>
     bb8:	0015      	movs	r5, r2
     bba:	4299      	cmp	r1, r3
     bbc:	d200      	bcs.n	bc0 <CLK_EnablePLL+0xd0>
     bbe:	1a5d      	subs	r5, r3, r1
     bc0:	45a8      	cmp	r8, r5
     bc2:	d9f0      	bls.n	ba6 <CLK_EnablePLL+0xb6>
     bc4:	2d00      	cmp	r5, #0
     bc6:	d1eb      	bne.n	ba0 <CLK_EnablePLL+0xb0>
     bc8:	2301      	movs	r3, #1
     bca:	469c      	mov	ip, r3
     bcc:	46cb      	mov	fp, r9
     bce:	44e1      	add	r9, ip
     bd0:	464b      	mov	r3, r9
     bd2:	4688      	mov	r8, r1
     bd4:	2b22      	cmp	r3, #34	; 0x22
     bd6:	d1cf      	bne.n	b78 <CLK_EnablePLL+0x88>
     bd8:	9b02      	ldr	r3, [sp, #8]
     bda:	9901      	ldr	r1, [sp, #4]
     bdc:	469a      	mov	sl, r3
     bde:	465b      	mov	r3, fp
     be0:	1ea2      	subs	r2, r4, #2
     be2:	3b02      	subs	r3, #2
     be4:	430a      	orrs	r2, r1
     be6:	025b      	lsls	r3, r3, #9
     be8:	4313      	orrs	r3, r2
     bea:	4a4e      	ldr	r2, [pc, #312]	; (d24 <CLK_EnablePLL+0x234>)
     bec:	2104      	movs	r1, #4
     bee:	6213      	str	r3, [r2, #32]
     bf0:	4653      	mov	r3, sl
     bf2:	e003      	b.n	bfc <CLK_EnablePLL+0x10c>
     bf4:	1e58      	subs	r0, r3, #1
     bf6:	2b00      	cmp	r3, #0
     bf8:	dd03      	ble.n	c02 <CLK_EnablePLL+0x112>
     bfa:	0003      	movs	r3, r0
     bfc:	68d0      	ldr	r0, [r2, #12]
     bfe:	4201      	tst	r1, r0
     c00:	d0f8      	beq.n	bf4 <CLK_EnablePLL+0x104>
     c02:	465b      	mov	r3, fp
     c04:	9903      	ldr	r1, [sp, #12]
     c06:	9800      	ldr	r0, [sp, #0]
     c08:	4359      	muls	r1, r3
     c0a:	f000 fcfd 	bl	1608 <__udivsi3>
     c0e:	4360      	muls	r0, r4
     c10:	b007      	add	sp, #28
     c12:	bcf0      	pop	{r4, r5, r6, r7}
     c14:	46bb      	mov	fp, r7
     c16:	46b2      	mov	sl, r6
     c18:	46a9      	mov	r9, r5
     c1a:	46a0      	mov	r8, r4
     c1c:	bdf0      	pop	{r4, r5, r6, r7, pc}
     c1e:	2204      	movs	r2, #4
     c20:	4313      	orrs	r3, r2
     c22:	600b      	str	r3, [r1, #0]
     c24:	4b40      	ldr	r3, [pc, #256]	; (d28 <CLK_EnablePLL+0x238>)
     c26:	2410      	movs	r4, #16
     c28:	681b      	ldr	r3, [r3, #0]
     c2a:	085b      	lsrs	r3, r3, #1
     c2c:	469a      	mov	sl, r3
     c2e:	e003      	b.n	c38 <CLK_EnablePLL+0x148>
     c30:	1e5a      	subs	r2, r3, #1
     c32:	2b00      	cmp	r3, #0
     c34:	dd03      	ble.n	c3e <CLK_EnablePLL+0x14e>
     c36:	0013      	movs	r3, r2
     c38:	68ca      	ldr	r2, [r1, #12]
     c3a:	4214      	tst	r4, r2
     c3c:	d0f8      	beq.n	c30 <CLK_EnablePLL+0x140>
     c3e:	2380      	movs	r3, #128	; 0x80
     c40:	031b      	lsls	r3, r3, #12
     c42:	9301      	str	r3, [sp, #4]
     c44:	2304      	movs	r3, #4
     c46:	4699      	mov	r9, r3
     c48:	4b40      	ldr	r3, [pc, #256]	; (d4c <CLK_EnablePLL+0x25c>)
     c4a:	9300      	str	r3, [sp, #0]
     c4c:	4b39      	ldr	r3, [pc, #228]	; (d34 <CLK_EnablePLL+0x244>)
     c4e:	4a38      	ldr	r2, [pc, #224]	; (d30 <CLK_EnablePLL+0x240>)
     c50:	4443      	add	r3, r8
     c52:	4293      	cmp	r3, r2
     c54:	d800      	bhi.n	c58 <CLK_EnablePLL+0x168>
     c56:	e77b      	b.n	b50 <CLK_EnablePLL+0x60>
     c58:	4b3d      	ldr	r3, [pc, #244]	; (d50 <CLK_EnablePLL+0x260>)
     c5a:	4a3e      	ldr	r2, [pc, #248]	; (d54 <CLK_EnablePLL+0x264>)
     c5c:	4443      	add	r3, r8
     c5e:	4293      	cmp	r3, r2
     c60:	d810      	bhi.n	c84 <CLK_EnablePLL+0x194>
     c62:	4643      	mov	r3, r8
     c64:	005b      	lsls	r3, r3, #1
     c66:	4698      	mov	r8, r3
     c68:	2380      	movs	r3, #128	; 0x80
     c6a:	9a01      	ldr	r2, [sp, #4]
     c6c:	01db      	lsls	r3, r3, #7
     c6e:	431a      	orrs	r2, r3
     c70:	2302      	movs	r3, #2
     c72:	9201      	str	r2, [sp, #4]
     c74:	9303      	str	r3, [sp, #12]
     c76:	e76d      	b.n	b54 <CLK_EnablePLL+0x64>
     c78:	000b      	movs	r3, r1
     c7a:	4641      	mov	r1, r8
     c7c:	4664      	mov	r4, ip
     c7e:	4698      	mov	r8, r3
     c80:	000d      	movs	r5, r1
     c82:	e773      	b.n	b6c <CLK_EnablePLL+0x7c>
     c84:	4b34      	ldr	r3, [pc, #208]	; (d58 <CLK_EnablePLL+0x268>)
     c86:	4a35      	ldr	r2, [pc, #212]	; (d5c <CLK_EnablePLL+0x26c>)
     c88:	4443      	add	r3, r8
     c8a:	4293      	cmp	r3, r2
     c8c:	d810      	bhi.n	cb0 <CLK_EnablePLL+0x1c0>
     c8e:	4643      	mov	r3, r8
     c90:	009b      	lsls	r3, r3, #2
     c92:	4698      	mov	r8, r3
     c94:	23c0      	movs	r3, #192	; 0xc0
     c96:	9a01      	ldr	r2, [sp, #4]
     c98:	021b      	lsls	r3, r3, #8
     c9a:	431a      	orrs	r2, r3
     c9c:	2304      	movs	r3, #4
     c9e:	9201      	str	r2, [sp, #4]
     ca0:	9303      	str	r3, [sp, #12]
     ca2:	e757      	b.n	b54 <CLK_EnablePLL+0x64>
     ca4:	2302      	movs	r3, #2
     ca6:	4699      	mov	r9, r3
     ca8:	4b20      	ldr	r3, [pc, #128]	; (d2c <CLK_EnablePLL+0x23c>)
     caa:	9501      	str	r5, [sp, #4]
     cac:	9300      	str	r3, [sp, #0]
     cae:	e7cd      	b.n	c4c <CLK_EnablePLL+0x15c>
     cb0:	2800      	cmp	r0, #0
     cb2:	d030      	beq.n	d16 <CLK_EnablePLL+0x226>
     cb4:	4b1b      	ldr	r3, [pc, #108]	; (d24 <CLK_EnablePLL+0x234>)
     cb6:	4a2a      	ldr	r2, [pc, #168]	; (d60 <CLK_EnablePLL+0x270>)
     cb8:	621a      	str	r2, [r3, #32]
     cba:	2204      	movs	r2, #4
     cbc:	4653      	mov	r3, sl
     cbe:	4919      	ldr	r1, [pc, #100]	; (d24 <CLK_EnablePLL+0x234>)
     cc0:	e003      	b.n	cca <CLK_EnablePLL+0x1da>
     cc2:	1e58      	subs	r0, r3, #1
     cc4:	2b00      	cmp	r3, #0
     cc6:	dd03      	ble.n	cd0 <CLK_EnablePLL+0x1e0>
     cc8:	0003      	movs	r3, r0
     cca:	68c8      	ldr	r0, [r1, #12]
     ccc:	4202      	tst	r2, r0
     cce:	d0f8      	beq.n	cc2 <CLK_EnablePLL+0x1d2>
     cd0:	22a0      	movs	r2, #160	; 0xa0
     cd2:	4b24      	ldr	r3, [pc, #144]	; (d64 <CLK_EnablePLL+0x274>)
     cd4:	02d2      	lsls	r2, r2, #11
     cd6:	9305      	str	r3, [sp, #20]
     cd8:	4b12      	ldr	r3, [pc, #72]	; (d24 <CLK_EnablePLL+0x234>)
     cda:	6a1b      	ldr	r3, [r3, #32]
     cdc:	4213      	tst	r3, r2
     cde:	d11e      	bne.n	d1e <CLK_EnablePLL+0x22e>
     ce0:	4a12      	ldr	r2, [pc, #72]	; (d2c <CLK_EnablePLL+0x23c>)
     ce2:	4c21      	ldr	r4, [pc, #132]	; (d68 <CLK_EnablePLL+0x278>)
     ce4:	4694      	mov	ip, r2
     ce6:	0318      	lsls	r0, r3, #12
     ce8:	17c0      	asrs	r0, r0, #31
     cea:	4020      	ands	r0, r4
     cec:	4460      	add	r0, ip
     cee:	039a      	lsls	r2, r3, #14
     cf0:	d500      	bpl.n	cf4 <CLK_EnablePLL+0x204>
     cf2:	e78d      	b.n	c10 <CLK_EnablePLL+0x120>
     cf4:	05da      	lsls	r2, r3, #23
     cf6:	0dd2      	lsrs	r2, r2, #23
     cf8:	3202      	adds	r2, #2
     cfa:	0880      	lsrs	r0, r0, #2
     cfc:	4350      	muls	r0, r2
     cfe:	041a      	lsls	r2, r3, #16
     d00:	a905      	add	r1, sp, #20
     d02:	0f92      	lsrs	r2, r2, #30
     d04:	5c8a      	ldrb	r2, [r1, r2]
     d06:	0499      	lsls	r1, r3, #18
     d08:	0ec9      	lsrs	r1, r1, #27
     d0a:	3102      	adds	r1, #2
     d0c:	4351      	muls	r1, r2
     d0e:	f000 fc7b 	bl	1608 <__udivsi3>
     d12:	0080      	lsls	r0, r0, #2
     d14:	e77c      	b.n	c10 <CLK_EnablePLL+0x120>
     d16:	4b03      	ldr	r3, [pc, #12]	; (d24 <CLK_EnablePLL+0x234>)
     d18:	4a14      	ldr	r2, [pc, #80]	; (d6c <CLK_EnablePLL+0x27c>)
     d1a:	621a      	str	r2, [r3, #32]
     d1c:	e7cd      	b.n	cba <CLK_EnablePLL+0x1ca>
     d1e:	2000      	movs	r0, #0
     d20:	e776      	b.n	c10 <CLK_EnablePLL+0x120>
     d22:	46c0      	nop			; (mov r8, r8)
     d24:	50000200 	.word	0x50000200
     d28:	200000b8 	.word	0x200000b8
     d2c:	00b71b00 	.word	0x00b71b00
     d30:	05f5e0ff 	.word	0x05f5e0ff
     d34:	fa0a1eff 	.word	0xfa0a1eff
     d38:	00000202 	.word	0x00000202
     d3c:	05f5e100 	.word	0x05f5e100
     d40:	ffe795ff 	.word	0xffe795ff
     d44:	00cc77be 	.word	0x00cc77be
     d48:	fa0a1f00 	.word	0xfa0a1f00
     d4c:	01518000 	.word	0x01518000
     d50:	fd050f7f 	.word	0xfd050f7f
     d54:	02faf07f 	.word	0x02faf07f
     d58:	fe8287c0 	.word	0xfe8287c0
     d5c:	017d7840 	.word	0x017d7840
     d60:	0008d66f 	.word	0x0008d66f
     d64:	04020201 	.word	0x04020201
     d68:	009a6500 	.word	0x009a6500
     d6c:	0000c22e 	.word	0x0000c22e

00000d70 <CLK_SetCoreClock>:
     d70:	4b23      	ldr	r3, [pc, #140]	; (e00 <CLK_SetCoreClock+0x90>)
     d72:	b570      	push	{r4, r5, r6, lr}
     d74:	68de      	ldr	r6, [r3, #12]
     d76:	4b23      	ldr	r3, [pc, #140]	; (e04 <CLK_SetCoreClock+0x94>)
     d78:	4298      	cmp	r0, r3
     d7a:	d200      	bcs.n	d7e <CLK_SetCoreClock+0xe>
     d7c:	0018      	movs	r0, r3
     d7e:	4b22      	ldr	r3, [pc, #136]	; (e08 <CLK_SetCoreClock+0x98>)
     d80:	0005      	movs	r5, r0
     d82:	4298      	cmp	r0, r3
     d84:	d900      	bls.n	d88 <CLK_SetCoreClock+0x18>
     d86:	001d      	movs	r5, r3
     d88:	2204      	movs	r2, #4
     d8a:	481d      	ldr	r0, [pc, #116]	; (e00 <CLK_SetCoreClock+0x90>)
     d8c:	2110      	movs	r1, #16
     d8e:	6803      	ldr	r3, [r0, #0]
     d90:	4313      	orrs	r3, r2
     d92:	6003      	str	r3, [r0, #0]
     d94:	4b1d      	ldr	r3, [pc, #116]	; (e0c <CLK_SetCoreClock+0x9c>)
     d96:	681b      	ldr	r3, [r3, #0]
     d98:	085b      	lsrs	r3, r3, #1
     d9a:	e003      	b.n	da4 <CLK_SetCoreClock+0x34>
     d9c:	1e5a      	subs	r2, r3, #1
     d9e:	2b00      	cmp	r3, #0
     da0:	dd03      	ble.n	daa <CLK_SetCoreClock+0x3a>
     da2:	0013      	movs	r3, r2
     da4:	68c2      	ldr	r2, [r0, #12]
     da6:	4211      	tst	r1, r2
     da8:	d0f8      	beq.n	d9c <CLK_SetCoreClock+0x2c>
     daa:	2207      	movs	r2, #7
     dac:	4c14      	ldr	r4, [pc, #80]	; (e00 <CLK_SetCoreClock+0x90>)
     dae:	6923      	ldr	r3, [r4, #16]
     db0:	4313      	orrs	r3, r2
     db2:	6123      	str	r3, [r4, #16]
     db4:	69a3      	ldr	r3, [r4, #24]
     db6:	3208      	adds	r2, #8
     db8:	4393      	bics	r3, r2
     dba:	61a3      	str	r3, [r4, #24]
     dbc:	68e3      	ldr	r3, [r4, #12]
     dbe:	07db      	lsls	r3, r3, #31
     dc0:	d513      	bpl.n	dea <CLK_SetCoreClock+0x7a>
     dc2:	2310      	movs	r3, #16
     dc4:	0069      	lsls	r1, r5, #1
     dc6:	2000      	movs	r0, #0
     dc8:	401e      	ands	r6, r3
     dca:	f7ff fe91 	bl	af0 <CLK_EnablePLL>
     dce:	0005      	movs	r5, r0
     dd0:	2101      	movs	r1, #1
     dd2:	2002      	movs	r0, #2
     dd4:	f7ff fdcc 	bl	970 <CLK_SetHCLK>
     dd8:	2e00      	cmp	r6, #0
     dda:	d104      	bne.n	de6 <CLK_SetCoreClock+0x76>
     ddc:	2104      	movs	r1, #4
     dde:	4a08      	ldr	r2, [pc, #32]	; (e00 <CLK_SetCoreClock+0x90>)
     de0:	6813      	ldr	r3, [r2, #0]
     de2:	438b      	bics	r3, r1
     de4:	6013      	str	r3, [r2, #0]
     de6:	0868      	lsrs	r0, r5, #1
     de8:	bd70      	pop	{r4, r5, r6, pc}
     dea:	2080      	movs	r0, #128	; 0x80
     dec:	0069      	lsls	r1, r5, #1
     dee:	0300      	lsls	r0, r0, #12
     df0:	f7ff fe7e 	bl	af0 <CLK_EnablePLL>
     df4:	2610      	movs	r6, #16
     df6:	68e3      	ldr	r3, [r4, #12]
     df8:	0005      	movs	r5, r0
     dfa:	401e      	ands	r6, r3
     dfc:	e7e8      	b.n	dd0 <CLK_SetCoreClock+0x60>
     dfe:	46c0      	nop			; (mov r8, r8)
     e00:	50000200 	.word	0x50000200
     e04:	017d7840 	.word	0x017d7840
     e08:	02faf080 	.word	0x02faf080
     e0c:	200000b8 	.word	0x200000b8

00000e10 <CLK_DisablePLL>:
     e10:	2380      	movs	r3, #128	; 0x80
     e12:	4a03      	ldr	r2, [pc, #12]	; (e20 <CLK_DisablePLL+0x10>)
     e14:	025b      	lsls	r3, r3, #9
     e16:	6a11      	ldr	r1, [r2, #32]
     e18:	430b      	orrs	r3, r1
     e1a:	6213      	str	r3, [r2, #32]
     e1c:	4770      	bx	lr
     e1e:	46c0      	nop			; (mov r8, r8)
     e20:	50000200 	.word	0x50000200

00000e24 <CLK_WaitClockReady>:
     e24:	4b08      	ldr	r3, [pc, #32]	; (e48 <CLK_WaitClockReady+0x24>)
     e26:	4909      	ldr	r1, [pc, #36]	; (e4c <CLK_WaitClockReady+0x28>)
     e28:	681a      	ldr	r2, [r3, #0]
     e2a:	0852      	lsrs	r2, r2, #1
     e2c:	e003      	b.n	e36 <CLK_WaitClockReady+0x12>
     e2e:	1e53      	subs	r3, r2, #1
     e30:	2a00      	cmp	r2, #0
     e32:	dd06      	ble.n	e42 <CLK_WaitClockReady+0x1e>
     e34:	001a      	movs	r2, r3
     e36:	68cb      	ldr	r3, [r1, #12]
     e38:	4003      	ands	r3, r0
     e3a:	4283      	cmp	r3, r0
     e3c:	d1f7      	bne.n	e2e <CLK_WaitClockReady+0xa>
     e3e:	2001      	movs	r0, #1
     e40:	4770      	bx	lr
     e42:	2000      	movs	r0, #0
     e44:	e7fc      	b.n	e40 <CLK_WaitClockReady+0x1c>
     e46:	46c0      	nop			; (mov r8, r8)
     e48:	200000b8 	.word	0x200000b8
     e4c:	50000200 	.word	0x50000200

00000e50 <CLK_EnableSysTick>:
     e50:	2200      	movs	r2, #0
     e52:	4b0e      	ldr	r3, [pc, #56]	; (e8c <CLK_EnableSysTick+0x3c>)
     e54:	b530      	push	{r4, r5, lr}
     e56:	601a      	str	r2, [r3, #0]
     e58:	2804      	cmp	r0, #4
     e5a:	d012      	beq.n	e82 <CLK_EnableSysTick+0x32>
     e5c:	2538      	movs	r5, #56	; 0x38
     e5e:	4c0c      	ldr	r4, [pc, #48]	; (e90 <CLK_EnableSysTick+0x40>)
     e60:	6922      	ldr	r2, [r4, #16]
     e62:	43aa      	bics	r2, r5
     e64:	4310      	orrs	r0, r2
     e66:	6120      	str	r0, [r4, #16]
     e68:	2004      	movs	r0, #4
     e6a:	681a      	ldr	r2, [r3, #0]
     e6c:	4382      	bics	r2, r0
     e6e:	601a      	str	r2, [r3, #0]
     e70:	2200      	movs	r2, #0
     e72:	4b06      	ldr	r3, [pc, #24]	; (e8c <CLK_EnableSysTick+0x3c>)
     e74:	6059      	str	r1, [r3, #4]
     e76:	2103      	movs	r1, #3
     e78:	609a      	str	r2, [r3, #8]
     e7a:	681a      	ldr	r2, [r3, #0]
     e7c:	430a      	orrs	r2, r1
     e7e:	601a      	str	r2, [r3, #0]
     e80:	bd30      	pop	{r4, r5, pc}
     e82:	681a      	ldr	r2, [r3, #0]
     e84:	4310      	orrs	r0, r2
     e86:	6018      	str	r0, [r3, #0]
     e88:	e7f2      	b.n	e70 <CLK_EnableSysTick+0x20>
     e8a:	46c0      	nop			; (mov r8, r8)
     e8c:	e000e010 	.word	0xe000e010
     e90:	50000200 	.word	0x50000200

00000e94 <CLK_DisableSysTick>:
     e94:	2200      	movs	r2, #0
     e96:	4b01      	ldr	r3, [pc, #4]	; (e9c <CLK_DisableSysTick+0x8>)
     e98:	601a      	str	r2, [r3, #0]
     e9a:	4770      	bx	lr
     e9c:	e000e010 	.word	0xe000e010

00000ea0 <UART_ClearIntFlag>:
     ea0:	054b      	lsls	r3, r1, #21
     ea2:	d503      	bpl.n	eac <UART_ClearIntFlag+0xc>
     ea4:	2370      	movs	r3, #112	; 0x70
     ea6:	6183      	str	r3, [r0, #24]
     ea8:	3b68      	subs	r3, #104	; 0x68
     eaa:	6183      	str	r3, [r0, #24]
     eac:	050b      	lsls	r3, r1, #20
     eae:	d503      	bpl.n	eb8 <UART_ClearIntFlag+0x18>
     eb0:	2201      	movs	r2, #1
     eb2:	6943      	ldr	r3, [r0, #20]
     eb4:	4313      	orrs	r3, r2
     eb6:	6143      	str	r3, [r0, #20]
     eb8:	048b      	lsls	r3, r1, #18
     eba:	d501      	bpl.n	ec0 <UART_ClearIntFlag+0x20>
     ebc:	4b09      	ldr	r3, [pc, #36]	; (ee4 <UART_ClearIntFlag+0x44>)
     ebe:	6183      	str	r3, [r0, #24]
     ec0:	2380      	movs	r3, #128	; 0x80
     ec2:	025b      	lsls	r3, r3, #9
     ec4:	4219      	tst	r1, r3
     ec6:	d000      	beq.n	eca <UART_ClearIntFlag+0x2a>
     ec8:	61c3      	str	r3, [r0, #28]
     eca:	2380      	movs	r3, #128	; 0x80
     ecc:	029b      	lsls	r3, r3, #10
     ece:	4219      	tst	r1, r3
     ed0:	d000      	beq.n	ed4 <UART_ClearIntFlag+0x34>
     ed2:	61c3      	str	r3, [r0, #28]
     ed4:	040b      	lsls	r3, r1, #16
     ed6:	d503      	bpl.n	ee0 <UART_ClearIntFlag+0x40>
     ed8:	2380      	movs	r3, #128	; 0x80
     eda:	61c3      	str	r3, [r0, #28]
     edc:	4b02      	ldr	r3, [pc, #8]	; (ee8 <UART_ClearIntFlag+0x48>)
     ede:	6383      	str	r3, [r0, #56]	; 0x38
     ee0:	4770      	bx	lr
     ee2:	46c0      	nop			; (mov r8, r8)
     ee4:	01000001 	.word	0x01000001
     ee8:	0000030f 	.word	0x0000030f

00000eec <UART_Close>:
     eec:	2300      	movs	r3, #0
     eee:	6043      	str	r3, [r0, #4]
     ef0:	4770      	bx	lr
     ef2:	46c0      	nop			; (mov r8, r8)

00000ef4 <UART_DisableFlowCtrl>:
     ef4:	6843      	ldr	r3, [r0, #4]
     ef6:	4a02      	ldr	r2, [pc, #8]	; (f00 <UART_DisableFlowCtrl+0xc>)
     ef8:	4013      	ands	r3, r2
     efa:	6043      	str	r3, [r0, #4]
     efc:	4770      	bx	lr
     efe:	46c0      	nop			; (mov r8, r8)
     f00:	ffffcfff 	.word	0xffffcfff

00000f04 <UART_DisableInt>:
     f04:	6843      	ldr	r3, [r0, #4]
     f06:	438b      	bics	r3, r1
     f08:	6043      	str	r3, [r0, #4]
     f0a:	4b16      	ldr	r3, [pc, #88]	; (f64 <UART_DisableInt+0x60>)
     f0c:	4298      	cmp	r0, r3
     f0e:	d017      	beq.n	f40 <UART_DisableInt+0x3c>
     f10:	4b15      	ldr	r3, [pc, #84]	; (f68 <UART_DisableInt+0x64>)
     f12:	4298      	cmp	r0, r3
     f14:	d00e      	beq.n	f34 <UART_DisableInt+0x30>
     f16:	4b15      	ldr	r3, [pc, #84]	; (f6c <UART_DisableInt+0x68>)
     f18:	4298      	cmp	r0, r3
     f1a:	d011      	beq.n	f40 <UART_DisableInt+0x3c>
     f1c:	4b14      	ldr	r3, [pc, #80]	; (f70 <UART_DisableInt+0x6c>)
     f1e:	4298      	cmp	r0, r3
     f20:	d019      	beq.n	f56 <UART_DisableInt+0x52>
     f22:	4b14      	ldr	r3, [pc, #80]	; (f74 <UART_DisableInt+0x70>)
     f24:	4a14      	ldr	r2, [pc, #80]	; (f78 <UART_DisableInt+0x74>)
     f26:	4298      	cmp	r0, r3
     f28:	d010      	beq.n	f4c <UART_DisableInt+0x48>
     f2a:	2180      	movs	r1, #128	; 0x80
     f2c:	2380      	movs	r3, #128	; 0x80
     f2e:	0289      	lsls	r1, r1, #10
     f30:	50d1      	str	r1, [r2, r3]
     f32:	e004      	b.n	f3e <UART_DisableInt+0x3a>
     f34:	2180      	movs	r1, #128	; 0x80
     f36:	2380      	movs	r3, #128	; 0x80
     f38:	4a0f      	ldr	r2, [pc, #60]	; (f78 <UART_DisableInt+0x74>)
     f3a:	0189      	lsls	r1, r1, #6
     f3c:	50d1      	str	r1, [r2, r3]
     f3e:	4770      	bx	lr
     f40:	2180      	movs	r1, #128	; 0x80
     f42:	2380      	movs	r3, #128	; 0x80
     f44:	4a0c      	ldr	r2, [pc, #48]	; (f78 <UART_DisableInt+0x74>)
     f46:	0149      	lsls	r1, r1, #5
     f48:	50d1      	str	r1, [r2, r3]
     f4a:	e7f8      	b.n	f3e <UART_DisableInt+0x3a>
     f4c:	2180      	movs	r1, #128	; 0x80
     f4e:	2380      	movs	r3, #128	; 0x80
     f50:	0249      	lsls	r1, r1, #9
     f52:	50d1      	str	r1, [r2, r3]
     f54:	e7f3      	b.n	f3e <UART_DisableInt+0x3a>
     f56:	2180      	movs	r1, #128	; 0x80
     f58:	2380      	movs	r3, #128	; 0x80
     f5a:	4a07      	ldr	r2, [pc, #28]	; (f78 <UART_DisableInt+0x74>)
     f5c:	0209      	lsls	r1, r1, #8
     f5e:	50d1      	str	r1, [r2, r3]
     f60:	e7ed      	b.n	f3e <UART_DisableInt+0x3a>
     f62:	46c0      	nop			; (mov r8, r8)
     f64:	40050000 	.word	0x40050000
     f68:	40150000 	.word	0x40150000
     f6c:	40154000 	.word	0x40154000
     f70:	40054000 	.word	0x40054000
     f74:	40058000 	.word	0x40058000
     f78:	e000e100 	.word	0xe000e100

00000f7c <UART_EnableFlowCtrl>:
     f7c:	2380      	movs	r3, #128	; 0x80
     f7e:	6902      	ldr	r2, [r0, #16]
     f80:	009b      	lsls	r3, r3, #2
     f82:	4313      	orrs	r3, r2
     f84:	6103      	str	r3, [r0, #16]
     f86:	2380      	movs	r3, #128	; 0x80
     f88:	6942      	ldr	r2, [r0, #20]
     f8a:	005b      	lsls	r3, r3, #1
     f8c:	4313      	orrs	r3, r2
     f8e:	6143      	str	r3, [r0, #20]
     f90:	23c0      	movs	r3, #192	; 0xc0
     f92:	6842      	ldr	r2, [r0, #4]
     f94:	019b      	lsls	r3, r3, #6
     f96:	4313      	orrs	r3, r2
     f98:	6043      	str	r3, [r0, #4]
     f9a:	4770      	bx	lr

00000f9c <UART_EnableInt>:
     f9c:	6843      	ldr	r3, [r0, #4]
     f9e:	430b      	orrs	r3, r1
     fa0:	6043      	str	r3, [r0, #4]
     fa2:	4b14      	ldr	r3, [pc, #80]	; (ff4 <UART_EnableInt+0x58>)
     fa4:	4298      	cmp	r0, r3
     fa6:	d015      	beq.n	fd4 <UART_EnableInt+0x38>
     fa8:	4b13      	ldr	r3, [pc, #76]	; (ff8 <UART_EnableInt+0x5c>)
     faa:	4298      	cmp	r0, r3
     fac:	d00d      	beq.n	fca <UART_EnableInt+0x2e>
     fae:	4b13      	ldr	r3, [pc, #76]	; (ffc <UART_EnableInt+0x60>)
     fb0:	4298      	cmp	r0, r3
     fb2:	d00f      	beq.n	fd4 <UART_EnableInt+0x38>
     fb4:	4b12      	ldr	r3, [pc, #72]	; (1000 <UART_EnableInt+0x64>)
     fb6:	4298      	cmp	r0, r3
     fb8:	d016      	beq.n	fe8 <UART_EnableInt+0x4c>
     fba:	4b12      	ldr	r3, [pc, #72]	; (1004 <UART_EnableInt+0x68>)
     fbc:	4298      	cmp	r0, r3
     fbe:	d00e      	beq.n	fde <UART_EnableInt+0x42>
     fc0:	2280      	movs	r2, #128	; 0x80
     fc2:	4b11      	ldr	r3, [pc, #68]	; (1008 <UART_EnableInt+0x6c>)
     fc4:	0292      	lsls	r2, r2, #10
     fc6:	601a      	str	r2, [r3, #0]
     fc8:	e003      	b.n	fd2 <UART_EnableInt+0x36>
     fca:	2280      	movs	r2, #128	; 0x80
     fcc:	4b0e      	ldr	r3, [pc, #56]	; (1008 <UART_EnableInt+0x6c>)
     fce:	0192      	lsls	r2, r2, #6
     fd0:	601a      	str	r2, [r3, #0]
     fd2:	4770      	bx	lr
     fd4:	2280      	movs	r2, #128	; 0x80
     fd6:	4b0c      	ldr	r3, [pc, #48]	; (1008 <UART_EnableInt+0x6c>)
     fd8:	0152      	lsls	r2, r2, #5
     fda:	601a      	str	r2, [r3, #0]
     fdc:	e7f9      	b.n	fd2 <UART_EnableInt+0x36>
     fde:	2280      	movs	r2, #128	; 0x80
     fe0:	4b09      	ldr	r3, [pc, #36]	; (1008 <UART_EnableInt+0x6c>)
     fe2:	0252      	lsls	r2, r2, #9
     fe4:	601a      	str	r2, [r3, #0]
     fe6:	e7f4      	b.n	fd2 <UART_EnableInt+0x36>
     fe8:	2280      	movs	r2, #128	; 0x80
     fea:	4b07      	ldr	r3, [pc, #28]	; (1008 <UART_EnableInt+0x6c>)
     fec:	0212      	lsls	r2, r2, #8
     fee:	601a      	str	r2, [r3, #0]
     ff0:	e7ef      	b.n	fd2 <UART_EnableInt+0x36>
     ff2:	46c0      	nop			; (mov r8, r8)
     ff4:	40050000 	.word	0x40050000
     ff8:	40150000 	.word	0x40150000
     ffc:	40154000 	.word	0x40154000
    1000:	40054000 	.word	0x40054000
    1004:	40058000 	.word	0x40058000
    1008:	e000e100 	.word	0xe000e100

0000100c <UART_Open>:
    100c:	b5f0      	push	{r4, r5, r6, r7, lr}
    100e:	46c6      	mov	lr, r8
    1010:	b500      	push	{lr}
    1012:	b086      	sub	sp, #24
    1014:	ae02      	add	r6, sp, #8
    1016:	0032      	movs	r2, r6
    1018:	4b31      	ldr	r3, [pc, #196]	; (10e0 <UART_Open+0xd4>)
    101a:	0004      	movs	r4, r0
    101c:	000f      	movs	r7, r1
    101e:	cb23      	ldmia	r3!, {r0, r1, r5}
    1020:	c223      	stmia	r2!, {r0, r1, r5}
    1022:	681b      	ldr	r3, [r3, #0]
    1024:	492f      	ldr	r1, [pc, #188]	; (10e4 <UART_Open+0xd8>)
    1026:	6013      	str	r3, [r2, #0]
    1028:	694d      	ldr	r5, [r1, #20]
    102a:	698b      	ldr	r3, [r1, #24]
    102c:	2203      	movs	r2, #3
    102e:	4698      	mov	r8, r3
    1030:	2300      	movs	r3, #0
    1032:	6323      	str	r3, [r4, #48]	; 0x30
    1034:	60e2      	str	r2, [r4, #12]
    1036:	68a3      	ldr	r3, [r4, #8]
    1038:	482b      	ldr	r0, [pc, #172]	; (10e8 <UART_Open+0xdc>)
    103a:	0e2d      	lsrs	r5, r5, #24
    103c:	4003      	ands	r3, r0
    103e:	4015      	ands	r5, r2
    1040:	60a3      	str	r3, [r4, #8]
    1042:	2d01      	cmp	r5, #1
    1044:	d025      	beq.n	1092 <UART_Open+0x86>
    1046:	2f00      	cmp	r7, #0
    1048:	d01a      	beq.n	1080 <UART_Open+0x74>
    104a:	4643      	mov	r3, r8
    104c:	0519      	lsls	r1, r3, #20
    104e:	00ad      	lsls	r5, r5, #2
    1050:	0f09      	lsrs	r1, r1, #28
    1052:	5970      	ldr	r0, [r6, r5]
    1054:	3101      	adds	r1, #1
    1056:	f000 fad7 	bl	1608 <__udivsi3>
    105a:	0005      	movs	r5, r0
    105c:	0878      	lsrs	r0, r7, #1
    105e:	0039      	movs	r1, r7
    1060:	1940      	adds	r0, r0, r5
    1062:	f000 fad1 	bl	1608 <__udivsi3>
    1066:	2380      	movs	r3, #128	; 0x80
    1068:	3802      	subs	r0, #2
    106a:	025b      	lsls	r3, r3, #9
    106c:	4298      	cmp	r0, r3
    106e:	d30b      	bcc.n	1088 <UART_Open+0x7c>
    1070:	00f8      	lsls	r0, r7, #3
    1072:	0039      	movs	r1, r7
    1074:	1940      	adds	r0, r0, r5
    1076:	f000 fac7 	bl	1608 <__udivsi3>
    107a:	0900      	lsrs	r0, r0, #4
    107c:	3802      	subs	r0, #2
    107e:	6260      	str	r0, [r4, #36]	; 0x24
    1080:	b006      	add	sp, #24
    1082:	bc80      	pop	{r7}
    1084:	46b8      	mov	r8, r7
    1086:	bdf0      	pop	{r4, r5, r6, r7, pc}
    1088:	23c0      	movs	r3, #192	; 0xc0
    108a:	059b      	lsls	r3, r3, #22
    108c:	4318      	orrs	r0, r3
    108e:	6260      	str	r0, [r4, #36]	; 0x24
    1090:	e7f6      	b.n	1080 <UART_Open+0x74>
    1092:	4b16      	ldr	r3, [pc, #88]	; (10ec <UART_Open+0xe0>)
    1094:	9301      	str	r3, [sp, #4]
    1096:	23a0      	movs	r3, #160	; 0xa0
    1098:	6a09      	ldr	r1, [r1, #32]
    109a:	02db      	lsls	r3, r3, #11
    109c:	4219      	tst	r1, r3
    109e:	d11c      	bne.n	10da <UART_Open+0xce>
    10a0:	4813      	ldr	r0, [pc, #76]	; (10f0 <UART_Open+0xe4>)
    10a2:	030b      	lsls	r3, r1, #12
    10a4:	17db      	asrs	r3, r3, #31
    10a6:	4003      	ands	r3, r0
    10a8:	4812      	ldr	r0, [pc, #72]	; (10f4 <UART_Open+0xe8>)
    10aa:	4684      	mov	ip, r0
    10ac:	4463      	add	r3, ip
    10ae:	0388      	lsls	r0, r1, #14
    10b0:	d411      	bmi.n	10d6 <UART_Open+0xca>
    10b2:	05c8      	lsls	r0, r1, #23
    10b4:	0dc0      	lsrs	r0, r0, #23
    10b6:	3002      	adds	r0, #2
    10b8:	4684      	mov	ip, r0
    10ba:	0898      	lsrs	r0, r3, #2
    10bc:	4663      	mov	r3, ip
    10be:	4358      	muls	r0, r3
    10c0:	0b8b      	lsrs	r3, r1, #14
    10c2:	401a      	ands	r2, r3
    10c4:	0489      	lsls	r1, r1, #18
    10c6:	ab01      	add	r3, sp, #4
    10c8:	5c9b      	ldrb	r3, [r3, r2]
    10ca:	0ec9      	lsrs	r1, r1, #27
    10cc:	3102      	adds	r1, #2
    10ce:	4359      	muls	r1, r3
    10d0:	f000 fa9a 	bl	1608 <__udivsi3>
    10d4:	0083      	lsls	r3, r0, #2
    10d6:	6073      	str	r3, [r6, #4]
    10d8:	e7b5      	b.n	1046 <UART_Open+0x3a>
    10da:	2300      	movs	r3, #0
    10dc:	6073      	str	r3, [r6, #4]
    10de:	e7b2      	b.n	1046 <UART_Open+0x3a>
    10e0:	0000bf34 	.word	0x0000bf34
    10e4:	50000200 	.word	0x50000200
    10e8:	fff0ff0f 	.word	0xfff0ff0f
    10ec:	04020201 	.word	0x04020201
    10f0:	009a6500 	.word	0x009a6500
    10f4:	00b71b00 	.word	0x00b71b00

000010f8 <UART_Read>:
    10f8:	b570      	push	{r4, r5, r6, lr}
    10fa:	000e      	movs	r6, r1
    10fc:	2180      	movs	r1, #128	; 0x80
    10fe:	0004      	movs	r4, r0
    1100:	0015      	movs	r5, r2
    1102:	2000      	movs	r0, #0
    1104:	01c9      	lsls	r1, r1, #7
    1106:	2a00      	cmp	r2, #0
    1108:	d00d      	beq.n	1126 <UART_Read+0x2e>
    110a:	2380      	movs	r3, #128	; 0x80
    110c:	05db      	lsls	r3, r3, #23
    110e:	e002      	b.n	1116 <UART_Read+0x1e>
    1110:	3b01      	subs	r3, #1
    1112:	2b00      	cmp	r3, #0
    1114:	d007      	beq.n	1126 <UART_Read+0x2e>
    1116:	69a2      	ldr	r2, [r4, #24]
    1118:	420a      	tst	r2, r1
    111a:	d1f9      	bne.n	1110 <UART_Read+0x18>
    111c:	6823      	ldr	r3, [r4, #0]
    111e:	5433      	strb	r3, [r6, r0]
    1120:	3001      	adds	r0, #1
    1122:	4285      	cmp	r5, r0
    1124:	d1f1      	bne.n	110a <UART_Read+0x12>
    1126:	bd70      	pop	{r4, r5, r6, pc}

00001128 <UART_SetLine_Config>:
    1128:	b5f0      	push	{r4, r5, r6, r7, lr}
    112a:	464f      	mov	r7, r9
    112c:	4646      	mov	r6, r8
    112e:	46d6      	mov	lr, sl
    1130:	b5c0      	push	{r6, r7, lr}
    1132:	b086      	sub	sp, #24
    1134:	ae02      	add	r6, sp, #8
    1136:	4690      	mov	r8, r2
    1138:	0032      	movs	r2, r6
    113a:	001c      	movs	r4, r3
    113c:	4b33      	ldr	r3, [pc, #204]	; (120c <UART_SetLine_Config+0xe4>)
    113e:	4689      	mov	r9, r1
    1140:	0007      	movs	r7, r0
    1142:	cb23      	ldmia	r3!, {r0, r1, r5}
    1144:	c223      	stmia	r2!, {r0, r1, r5}
    1146:	681b      	ldr	r3, [r3, #0]
    1148:	6013      	str	r3, [r2, #0]
    114a:	2203      	movs	r2, #3
    114c:	4b30      	ldr	r3, [pc, #192]	; (1210 <UART_SetLine_Config+0xe8>)
    114e:	695d      	ldr	r5, [r3, #20]
    1150:	6999      	ldr	r1, [r3, #24]
    1152:	0e2d      	lsrs	r5, r5, #24
    1154:	468a      	mov	sl, r1
    1156:	4015      	ands	r5, r2
    1158:	2d01      	cmp	r5, #1
    115a:	d02f      	beq.n	11bc <UART_SetLine_Config+0x94>
    115c:	464b      	mov	r3, r9
    115e:	2b00      	cmp	r3, #0
    1160:	d01c      	beq.n	119c <UART_SetLine_Config+0x74>
    1162:	4653      	mov	r3, sl
    1164:	0519      	lsls	r1, r3, #20
    1166:	00ad      	lsls	r5, r5, #2
    1168:	0f09      	lsrs	r1, r1, #28
    116a:	5970      	ldr	r0, [r6, r5]
    116c:	3101      	adds	r1, #1
    116e:	f000 fa4b 	bl	1608 <__udivsi3>
    1172:	464b      	mov	r3, r9
    1174:	0005      	movs	r5, r0
    1176:	0858      	lsrs	r0, r3, #1
    1178:	4649      	mov	r1, r9
    117a:	1940      	adds	r0, r0, r5
    117c:	f000 fa44 	bl	1608 <__udivsi3>
    1180:	2380      	movs	r3, #128	; 0x80
    1182:	3802      	subs	r0, #2
    1184:	025b      	lsls	r3, r3, #9
    1186:	4298      	cmp	r0, r3
    1188:	d313      	bcc.n	11b2 <UART_SetLine_Config+0x8a>
    118a:	464b      	mov	r3, r9
    118c:	00d8      	lsls	r0, r3, #3
    118e:	4649      	mov	r1, r9
    1190:	1940      	adds	r0, r0, r5
    1192:	f000 fa39 	bl	1608 <__udivsi3>
    1196:	0900      	lsrs	r0, r0, #4
    1198:	3802      	subs	r0, #2
    119a:	6278      	str	r0, [r7, #36]	; 0x24
    119c:	9b0e      	ldr	r3, [sp, #56]	; 0x38
    119e:	431c      	orrs	r4, r3
    11a0:	4643      	mov	r3, r8
    11a2:	431c      	orrs	r4, r3
    11a4:	60fc      	str	r4, [r7, #12]
    11a6:	b006      	add	sp, #24
    11a8:	bce0      	pop	{r5, r6, r7}
    11aa:	46ba      	mov	sl, r7
    11ac:	46b1      	mov	r9, r6
    11ae:	46a8      	mov	r8, r5
    11b0:	bdf0      	pop	{r4, r5, r6, r7, pc}
    11b2:	23c0      	movs	r3, #192	; 0xc0
    11b4:	059b      	lsls	r3, r3, #22
    11b6:	4318      	orrs	r0, r3
    11b8:	6278      	str	r0, [r7, #36]	; 0x24
    11ba:	e7ef      	b.n	119c <UART_SetLine_Config+0x74>
    11bc:	4915      	ldr	r1, [pc, #84]	; (1214 <UART_SetLine_Config+0xec>)
    11be:	9101      	str	r1, [sp, #4]
    11c0:	6a19      	ldr	r1, [r3, #32]
    11c2:	23a0      	movs	r3, #160	; 0xa0
    11c4:	02db      	lsls	r3, r3, #11
    11c6:	4219      	tst	r1, r3
    11c8:	d11c      	bne.n	1204 <UART_SetLine_Config+0xdc>
    11ca:	4813      	ldr	r0, [pc, #76]	; (1218 <UART_SetLine_Config+0xf0>)
    11cc:	030b      	lsls	r3, r1, #12
    11ce:	17db      	asrs	r3, r3, #31
    11d0:	4003      	ands	r3, r0
    11d2:	4812      	ldr	r0, [pc, #72]	; (121c <UART_SetLine_Config+0xf4>)
    11d4:	4684      	mov	ip, r0
    11d6:	4463      	add	r3, ip
    11d8:	0388      	lsls	r0, r1, #14
    11da:	d411      	bmi.n	1200 <UART_SetLine_Config+0xd8>
    11dc:	05c8      	lsls	r0, r1, #23
    11de:	0dc0      	lsrs	r0, r0, #23
    11e0:	3002      	adds	r0, #2
    11e2:	4684      	mov	ip, r0
    11e4:	0898      	lsrs	r0, r3, #2
    11e6:	4663      	mov	r3, ip
    11e8:	4358      	muls	r0, r3
    11ea:	0b8b      	lsrs	r3, r1, #14
    11ec:	401a      	ands	r2, r3
    11ee:	0489      	lsls	r1, r1, #18
    11f0:	ab01      	add	r3, sp, #4
    11f2:	5c9b      	ldrb	r3, [r3, r2]
    11f4:	0ec9      	lsrs	r1, r1, #27
    11f6:	3102      	adds	r1, #2
    11f8:	4359      	muls	r1, r3
    11fa:	f000 fa05 	bl	1608 <__udivsi3>
    11fe:	0083      	lsls	r3, r0, #2
    1200:	6073      	str	r3, [r6, #4]
    1202:	e7ab      	b.n	115c <UART_SetLine_Config+0x34>
    1204:	2300      	movs	r3, #0
    1206:	6073      	str	r3, [r6, #4]
    1208:	e7a8      	b.n	115c <UART_SetLine_Config+0x34>
    120a:	46c0      	nop			; (mov r8, r8)
    120c:	0000bf34 	.word	0x0000bf34
    1210:	50000200 	.word	0x50000200
    1214:	04020201 	.word	0x04020201
    1218:	009a6500 	.word	0x009a6500
    121c:	00b71b00 	.word	0x00b71b00

00001220 <UART_SetTimeoutCnt>:
    1220:	22ff      	movs	r2, #255	; 0xff
    1222:	6a03      	ldr	r3, [r0, #32]
    1224:	4393      	bics	r3, r2
    1226:	430b      	orrs	r3, r1
    1228:	6203      	str	r3, [r0, #32]
    122a:	2380      	movs	r3, #128	; 0x80
    122c:	6842      	ldr	r2, [r0, #4]
    122e:	011b      	lsls	r3, r3, #4
    1230:	4313      	orrs	r3, r2
    1232:	6043      	str	r3, [r0, #4]
    1234:	4770      	bx	lr
    1236:	46c0      	nop			; (mov r8, r8)

00001238 <UART_SelectIrDAMode>:
    1238:	b5f0      	push	{r4, r5, r6, r7, lr}
    123a:	4647      	mov	r7, r8
    123c:	46ce      	mov	lr, r9
    123e:	b580      	push	{r7, lr}
    1240:	b087      	sub	sp, #28
    1242:	ae02      	add	r6, sp, #8
    1244:	4690      	mov	r8, r2
    1246:	0032      	movs	r2, r6
    1248:	4b33      	ldr	r3, [pc, #204]	; (1318 <UART_SelectIrDAMode+0xe0>)
    124a:	0004      	movs	r4, r0
    124c:	000f      	movs	r7, r1
    124e:	cb23      	ldmia	r3!, {r0, r1, r5}
    1250:	c223      	stmia	r2!, {r0, r1, r5}
    1252:	681b      	ldr	r3, [r3, #0]
    1254:	6013      	str	r3, [r2, #0]
    1256:	2302      	movs	r3, #2
    1258:	2203      	movs	r2, #3
    125a:	6323      	str	r3, [r4, #48]	; 0x30
    125c:	4b2f      	ldr	r3, [pc, #188]	; (131c <UART_SelectIrDAMode+0xe4>)
    125e:	695d      	ldr	r5, [r3, #20]
    1260:	6999      	ldr	r1, [r3, #24]
    1262:	0e2d      	lsrs	r5, r5, #24
    1264:	4689      	mov	r9, r1
    1266:	4015      	ands	r5, r2
    1268:	2d01      	cmp	r5, #1
    126a:	d02e      	beq.n	12ca <UART_SelectIrDAMode+0x92>
    126c:	2f00      	cmp	r7, #0
    126e:	d011      	beq.n	1294 <UART_SelectIrDAMode+0x5c>
    1270:	464b      	mov	r3, r9
    1272:	0519      	lsls	r1, r3, #20
    1274:	00ad      	lsls	r5, r5, #2
    1276:	0f09      	lsrs	r1, r1, #28
    1278:	3101      	adds	r1, #1
    127a:	5970      	ldr	r0, [r6, r5]
    127c:	f000 f9c4 	bl	1608 <__udivsi3>
    1280:	00fb      	lsls	r3, r7, #3
    1282:	18c0      	adds	r0, r0, r3
    1284:	0039      	movs	r1, r7
    1286:	f000 f9bf 	bl	1608 <__udivsi3>
    128a:	4b25      	ldr	r3, [pc, #148]	; (1320 <UART_SelectIrDAMode+0xe8>)
    128c:	0900      	lsrs	r0, r0, #4
    128e:	3802      	subs	r0, #2
    1290:	4298      	cmp	r0, r3
    1292:	d918      	bls.n	12c6 <UART_SelectIrDAMode+0x8e>
    1294:	4643      	mov	r3, r8
    1296:	2b00      	cmp	r3, #0
    1298:	d10c      	bne.n	12b4 <UART_SelectIrDAMode+0x7c>
    129a:	2240      	movs	r2, #64	; 0x40
    129c:	6aa3      	ldr	r3, [r4, #40]	; 0x28
    129e:	4313      	orrs	r3, r2
    12a0:	62a3      	str	r3, [r4, #40]	; 0x28
    12a2:	6aa3      	ldr	r3, [r4, #40]	; 0x28
    12a4:	3a3e      	subs	r2, #62	; 0x3e
    12a6:	4393      	bics	r3, r2
    12a8:	62a3      	str	r3, [r4, #40]	; 0x28
    12aa:	b007      	add	sp, #28
    12ac:	bcc0      	pop	{r6, r7}
    12ae:	46b9      	mov	r9, r7
    12b0:	46b0      	mov	r8, r6
    12b2:	bdf0      	pop	{r4, r5, r6, r7, pc}
    12b4:	2220      	movs	r2, #32
    12b6:	6aa3      	ldr	r3, [r4, #40]	; 0x28
    12b8:	4393      	bics	r3, r2
    12ba:	62a3      	str	r3, [r4, #40]	; 0x28
    12bc:	6aa3      	ldr	r3, [r4, #40]	; 0x28
    12be:	3a1e      	subs	r2, #30
    12c0:	4313      	orrs	r3, r2
    12c2:	62a3      	str	r3, [r4, #40]	; 0x28
    12c4:	e7f1      	b.n	12aa <UART_SelectIrDAMode+0x72>
    12c6:	6260      	str	r0, [r4, #36]	; 0x24
    12c8:	e7e4      	b.n	1294 <UART_SelectIrDAMode+0x5c>
    12ca:	4916      	ldr	r1, [pc, #88]	; (1324 <UART_SelectIrDAMode+0xec>)
    12cc:	9101      	str	r1, [sp, #4]
    12ce:	6a19      	ldr	r1, [r3, #32]
    12d0:	23a0      	movs	r3, #160	; 0xa0
    12d2:	02db      	lsls	r3, r3, #11
    12d4:	4219      	tst	r1, r3
    12d6:	d11c      	bne.n	1312 <UART_SelectIrDAMode+0xda>
    12d8:	4813      	ldr	r0, [pc, #76]	; (1328 <UART_SelectIrDAMode+0xf0>)
    12da:	030b      	lsls	r3, r1, #12
    12dc:	17db      	asrs	r3, r3, #31
    12de:	4003      	ands	r3, r0
    12e0:	4812      	ldr	r0, [pc, #72]	; (132c <UART_SelectIrDAMode+0xf4>)
    12e2:	4684      	mov	ip, r0
    12e4:	4463      	add	r3, ip
    12e6:	0388      	lsls	r0, r1, #14
    12e8:	d411      	bmi.n	130e <UART_SelectIrDAMode+0xd6>
    12ea:	05c8      	lsls	r0, r1, #23
    12ec:	0dc0      	lsrs	r0, r0, #23
    12ee:	3002      	adds	r0, #2
    12f0:	4684      	mov	ip, r0
    12f2:	0898      	lsrs	r0, r3, #2
    12f4:	4663      	mov	r3, ip
    12f6:	4358      	muls	r0, r3
    12f8:	0b8b      	lsrs	r3, r1, #14
    12fa:	401a      	ands	r2, r3
    12fc:	0489      	lsls	r1, r1, #18
    12fe:	ab01      	add	r3, sp, #4
    1300:	5c9b      	ldrb	r3, [r3, r2]
    1302:	0ec9      	lsrs	r1, r1, #27
    1304:	3102      	adds	r1, #2
    1306:	4359      	muls	r1, r3
    1308:	f000 f97e 	bl	1608 <__udivsi3>
    130c:	0083      	lsls	r3, r0, #2
    130e:	6073      	str	r3, [r6, #4]
    1310:	e7ac      	b.n	126c <UART_SelectIrDAMode+0x34>
    1312:	2300      	movs	r3, #0
    1314:	6073      	str	r3, [r6, #4]
    1316:	e7a9      	b.n	126c <UART_SelectIrDAMode+0x34>
    1318:	0000bf34 	.word	0x0000bf34
    131c:	50000200 	.word	0x50000200
    1320:	0000fffe 	.word	0x0000fffe
    1324:	04020201 	.word	0x04020201
    1328:	009a6500 	.word	0x009a6500
    132c:	00b71b00 	.word	0x00b71b00

00001330 <UART_SelectRS485Mode>:
    1330:	2303      	movs	r3, #3
    1332:	6303      	str	r3, [r0, #48]	; 0x30
    1334:	6ac3      	ldr	r3, [r0, #44]	; 0x2c
    1336:	b510      	push	{r4, lr}
    1338:	4c04      	ldr	r4, [pc, #16]	; (134c <UART_SelectRS485Mode+0x1c>)
    133a:	0612      	lsls	r2, r2, #24
    133c:	4023      	ands	r3, r4
    133e:	62c3      	str	r3, [r0, #44]	; 0x2c
    1340:	6ac3      	ldr	r3, [r0, #44]	; 0x2c
    1342:	430a      	orrs	r2, r1
    1344:	431a      	orrs	r2, r3
    1346:	62c2      	str	r2, [r0, #44]	; 0x2c
    1348:	bd10      	pop	{r4, pc}
    134a:	46c0      	nop			; (mov r8, r8)
    134c:	00fff8ff 	.word	0x00fff8ff

00001350 <UART_SelectLINMode>:
    1350:	2301      	movs	r3, #1
    1352:	b510      	push	{r4, lr}
    1354:	24cf      	movs	r4, #207	; 0xcf
    1356:	6303      	str	r3, [r0, #48]	; 0x30
    1358:	6ac3      	ldr	r3, [r0, #44]	; 0x2c
    135a:	4311      	orrs	r1, r2
    135c:	43a3      	bics	r3, r4
    135e:	62c3      	str	r3, [r0, #44]	; 0x2c
    1360:	6ac3      	ldr	r3, [r0, #44]	; 0x2c
    1362:	4319      	orrs	r1, r3
    1364:	62c1      	str	r1, [r0, #44]	; 0x2c
    1366:	bd10      	pop	{r4, pc}

00001368 <UART_Write>:
    1368:	b570      	push	{r4, r5, r6, lr}
    136a:	000e      	movs	r6, r1
    136c:	2180      	movs	r1, #128	; 0x80
    136e:	0004      	movs	r4, r0
    1370:	0015      	movs	r5, r2
    1372:	2000      	movs	r0, #0
    1374:	0409      	lsls	r1, r1, #16
    1376:	2a00      	cmp	r2, #0
    1378:	d00d      	beq.n	1396 <UART_Write+0x2e>
    137a:	2380      	movs	r3, #128	; 0x80
    137c:	05db      	lsls	r3, r3, #23
    137e:	e002      	b.n	1386 <UART_Write+0x1e>
    1380:	3b01      	subs	r3, #1
    1382:	2b00      	cmp	r3, #0
    1384:	d007      	beq.n	1396 <UART_Write+0x2e>
    1386:	69a2      	ldr	r2, [r4, #24]
    1388:	420a      	tst	r2, r1
    138a:	d1f9      	bne.n	1380 <UART_Write+0x18>
    138c:	5c33      	ldrb	r3, [r6, r0]
    138e:	3001      	adds	r0, #1
    1390:	6023      	str	r3, [r4, #0]
    1392:	4285      	cmp	r5, r0
    1394:	d1f1      	bne.n	137a <UART_Write+0x12>
    1396:	bd70      	pop	{r4, r5, r6, pc}

00001398 <SYS_ClearResetSrc>:
    1398:	23a0      	movs	r3, #160	; 0xa0
    139a:	05db      	lsls	r3, r3, #23
    139c:	6058      	str	r0, [r3, #4]
    139e:	4770      	bx	lr

000013a0 <SYS_GetBODStatus>:
    13a0:	23a0      	movs	r3, #160	; 0xa0
    13a2:	05db      	lsls	r3, r3, #23
    13a4:	6998      	ldr	r0, [r3, #24]
    13a6:	0640      	lsls	r0, r0, #25
    13a8:	0fc0      	lsrs	r0, r0, #31
    13aa:	4770      	bx	lr

000013ac <SYS_GetResetSrc>:
    13ac:	23a0      	movs	r3, #160	; 0xa0
    13ae:	05db      	lsls	r3, r3, #23
    13b0:	6858      	ldr	r0, [r3, #4]
    13b2:	4770      	bx	lr

000013b4 <SYS_IsRegLocked>:
    13b4:	22a0      	movs	r2, #160	; 0xa0
    13b6:	2380      	movs	r3, #128	; 0x80
    13b8:	2001      	movs	r0, #1
    13ba:	05d2      	lsls	r2, r2, #23
    13bc:	005b      	lsls	r3, r3, #1
    13be:	58d3      	ldr	r3, [r2, r3]
    13c0:	4398      	bics	r0, r3
    13c2:	4770      	bx	lr

000013c4 <SYS_ReadPDID>:
    13c4:	23a0      	movs	r3, #160	; 0xa0
    13c6:	05db      	lsls	r3, r3, #23
    13c8:	6818      	ldr	r0, [r3, #0]
    13ca:	4770      	bx	lr

000013cc <SYS_ResetChip>:
    13cc:	22a0      	movs	r2, #160	; 0xa0
    13ce:	2101      	movs	r1, #1
    13d0:	05d2      	lsls	r2, r2, #23
    13d2:	6893      	ldr	r3, [r2, #8]
    13d4:	430b      	orrs	r3, r1
    13d6:	6093      	str	r3, [r2, #8]
    13d8:	4770      	bx	lr
    13da:	46c0      	nop			; (mov r8, r8)

000013dc <SYS_ResetCPU>:
    13dc:	22a0      	movs	r2, #160	; 0xa0
    13de:	2102      	movs	r1, #2
    13e0:	05d2      	lsls	r2, r2, #23
    13e2:	6893      	ldr	r3, [r2, #8]
    13e4:	430b      	orrs	r3, r1
    13e6:	6093      	str	r3, [r2, #8]
    13e8:	4770      	bx	lr
    13ea:	46c0      	nop			; (mov r8, r8)

000013ec <SYS_ResetModule>:
    13ec:	4a07      	ldr	r2, [pc, #28]	; (140c <SYS_ResetModule+0x20>)
    13ee:	0e03      	lsrs	r3, r0, #24
    13f0:	4694      	mov	ip, r2
    13f2:	2201      	movs	r2, #1
    13f4:	0200      	lsls	r0, r0, #8
    13f6:	0a00      	lsrs	r0, r0, #8
    13f8:	4082      	lsls	r2, r0
    13fa:	4463      	add	r3, ip
    13fc:	6819      	ldr	r1, [r3, #0]
    13fe:	4311      	orrs	r1, r2
    1400:	6019      	str	r1, [r3, #0]
    1402:	6819      	ldr	r1, [r3, #0]
    1404:	4391      	bics	r1, r2
    1406:	6019      	str	r1, [r3, #0]
    1408:	4770      	bx	lr
    140a:	46c0      	nop			; (mov r8, r8)
    140c:	50000008 	.word	0x50000008

00001410 <SYS_EnableBOD>:
    1410:	23a0      	movs	r3, #160	; 0xa0
    1412:	2201      	movs	r2, #1
    1414:	05db      	lsls	r3, r3, #23
    1416:	b530      	push	{r4, r5, lr}
    1418:	699d      	ldr	r5, [r3, #24]
    141a:	4315      	orrs	r5, r2
    141c:	619d      	str	r5, [r3, #24]
    141e:	699c      	ldr	r4, [r3, #24]
    1420:	3207      	adds	r2, #7
    1422:	4394      	bics	r4, r2
    1424:	4304      	orrs	r4, r0
    1426:	2006      	movs	r0, #6
    1428:	619c      	str	r4, [r3, #24]
    142a:	699a      	ldr	r2, [r3, #24]
    142c:	4382      	bics	r2, r0
    142e:	430a      	orrs	r2, r1
    1430:	619a      	str	r2, [r3, #24]
    1432:	bd30      	pop	{r4, r5, pc}

00001434 <SYS_DisableBOD>:
    1434:	22a0      	movs	r2, #160	; 0xa0
    1436:	2101      	movs	r1, #1
    1438:	05d2      	lsls	r2, r2, #23
    143a:	6993      	ldr	r3, [r2, #24]
    143c:	438b      	bics	r3, r1
    143e:	6193      	str	r3, [r2, #24]
    1440:	4770      	bx	lr
    1442:	46c0      	nop			; (mov r8, r8)

00001444 <GPIO_SetMode>:
    1444:	b5f0      	push	{r4, r5, r6, r7, lr}
    1446:	2403      	movs	r4, #3
    1448:	2300      	movs	r3, #0
    144a:	2601      	movs	r6, #1
    144c:	46a4      	mov	ip, r4
    144e:	0034      	movs	r4, r6
    1450:	409c      	lsls	r4, r3
    1452:	4221      	tst	r1, r4
    1454:	d008      	beq.n	1468 <GPIO_SetMode+0x24>
    1456:	4667      	mov	r7, ip
    1458:	005d      	lsls	r5, r3, #1
    145a:	40af      	lsls	r7, r5
    145c:	6804      	ldr	r4, [r0, #0]
    145e:	43bc      	bics	r4, r7
    1460:	0017      	movs	r7, r2
    1462:	40af      	lsls	r7, r5
    1464:	433c      	orrs	r4, r7
    1466:	6004      	str	r4, [r0, #0]
    1468:	3301      	adds	r3, #1
    146a:	2b10      	cmp	r3, #16
    146c:	d1ef      	bne.n	144e <GPIO_SetMode+0xa>
    146e:	bdf0      	pop	{r4, r5, r6, r7, pc}

00001470 <GPIO_EnableInt>:
    1470:	b510      	push	{r4, lr}
    1472:	2401      	movs	r4, #1
    1474:	408c      	lsls	r4, r1
    1476:	6983      	ldr	r3, [r0, #24]
    1478:	43a3      	bics	r3, r4
    147a:	0e14      	lsrs	r4, r2, #24
    147c:	408c      	lsls	r4, r1
    147e:	4323      	orrs	r3, r4
    1480:	4c05      	ldr	r4, [pc, #20]	; (1498 <GPIO_EnableInt+0x28>)
    1482:	0212      	lsls	r2, r2, #8
    1484:	408c      	lsls	r4, r1
    1486:	0a12      	lsrs	r2, r2, #8
    1488:	408a      	lsls	r2, r1
    148a:	6183      	str	r3, [r0, #24]
    148c:	69c3      	ldr	r3, [r0, #28]
    148e:	43a3      	bics	r3, r4
    1490:	431a      	orrs	r2, r3
    1492:	61c2      	str	r2, [r0, #28]
    1494:	bd10      	pop	{r4, pc}
    1496:	46c0      	nop			; (mov r8, r8)
    1498:	00010001 	.word	0x00010001

0000149c <GPIO_DisableInt>:
    149c:	2201      	movs	r2, #1
    149e:	408a      	lsls	r2, r1
    14a0:	6983      	ldr	r3, [r0, #24]
    14a2:	4393      	bics	r3, r2
    14a4:	4a03      	ldr	r2, [pc, #12]	; (14b4 <GPIO_DisableInt+0x18>)
    14a6:	6183      	str	r3, [r0, #24]
    14a8:	408a      	lsls	r2, r1
    14aa:	69c3      	ldr	r3, [r0, #28]
    14ac:	4393      	bics	r3, r2
    14ae:	61c3      	str	r3, [r0, #28]
    14b0:	4770      	bx	lr
    14b2:	46c0      	nop			; (mov r8, r8)
    14b4:	00010001 	.word	0x00010001

000014b8 <ProcessHardFault>:
    14b8:	b510      	push	{r4, lr}
    14ba:	4802      	ldr	r0, [pc, #8]	; (14c4 <ProcessHardFault+0xc>)
    14bc:	f000 fb50 	bl	1b60 <printf>
    14c0:	e7fe      	b.n	14c0 <ProcessHardFault+0x8>
    14c2:	46c0      	nop			; (mov r8, r8)
    14c4:	0000bf44 	.word	0x0000bf44

000014c8 <SH_Return>:
    14c8:	2000      	movs	r0, #0
    14ca:	4770      	bx	lr

000014cc <SendChar_ToUART>:
    14cc:	b2c3      	uxtb	r3, r0
    14ce:	2b0a      	cmp	r3, #10
    14d0:	d007      	beq.n	14e2 <SendChar_ToUART+0x16>
    14d2:	2180      	movs	r1, #128	; 0x80
    14d4:	4a07      	ldr	r2, [pc, #28]	; (14f4 <SendChar_ToUART+0x28>)
    14d6:	0409      	lsls	r1, r1, #16
    14d8:	6993      	ldr	r3, [r2, #24]
    14da:	420b      	tst	r3, r1
    14dc:	d1fc      	bne.n	14d8 <SendChar_ToUART+0xc>
    14de:	6010      	str	r0, [r2, #0]
    14e0:	4770      	bx	lr
    14e2:	2180      	movs	r1, #128	; 0x80
    14e4:	4a03      	ldr	r2, [pc, #12]	; (14f4 <SendChar_ToUART+0x28>)
    14e6:	0409      	lsls	r1, r1, #16
    14e8:	6993      	ldr	r3, [r2, #24]
    14ea:	420b      	tst	r3, r1
    14ec:	d1fc      	bne.n	14e8 <SendChar_ToUART+0x1c>
    14ee:	230d      	movs	r3, #13
    14f0:	6013      	str	r3, [r2, #0]
    14f2:	e7ee      	b.n	14d2 <SendChar_ToUART+0x6>
    14f4:	40050000 	.word	0x40050000

000014f8 <SendChar>:
    14f8:	b2c3      	uxtb	r3, r0
    14fa:	2b0a      	cmp	r3, #10
    14fc:	d007      	beq.n	150e <SendChar+0x16>
    14fe:	2180      	movs	r1, #128	; 0x80
    1500:	4a07      	ldr	r2, [pc, #28]	; (1520 <SendChar+0x28>)
    1502:	0409      	lsls	r1, r1, #16
    1504:	6993      	ldr	r3, [r2, #24]
    1506:	420b      	tst	r3, r1
    1508:	d1fc      	bne.n	1504 <SendChar+0xc>
    150a:	6010      	str	r0, [r2, #0]
    150c:	4770      	bx	lr
    150e:	2180      	movs	r1, #128	; 0x80
    1510:	4a03      	ldr	r2, [pc, #12]	; (1520 <SendChar+0x28>)
    1512:	0409      	lsls	r1, r1, #16
    1514:	6993      	ldr	r3, [r2, #24]
    1516:	420b      	tst	r3, r1
    1518:	d1fc      	bne.n	1514 <SendChar+0x1c>
    151a:	230d      	movs	r3, #13
    151c:	6013      	str	r3, [r2, #0]
    151e:	e7ee      	b.n	14fe <SendChar+0x6>
    1520:	40050000 	.word	0x40050000

00001524 <GetChar>:
    1524:	2180      	movs	r1, #128	; 0x80
    1526:	4a04      	ldr	r2, [pc, #16]	; (1538 <GetChar+0x14>)
    1528:	01c9      	lsls	r1, r1, #7
    152a:	6993      	ldr	r3, [r2, #24]
    152c:	420b      	tst	r3, r1
    152e:	d1fc      	bne.n	152a <GetChar+0x6>
    1530:	6810      	ldr	r0, [r2, #0]
    1532:	b2c0      	uxtb	r0, r0
    1534:	4770      	bx	lr
    1536:	46c0      	nop			; (mov r8, r8)
    1538:	40050000 	.word	0x40050000

0000153c <kbhit>:
    153c:	4b02      	ldr	r3, [pc, #8]	; (1548 <kbhit+0xc>)
    153e:	6998      	ldr	r0, [r3, #24]
    1540:	0440      	lsls	r0, r0, #17
    1542:	0fc0      	lsrs	r0, r0, #31
    1544:	4770      	bx	lr
    1546:	46c0      	nop			; (mov r8, r8)
    1548:	40050000 	.word	0x40050000

0000154c <IsDebugFifoEmpty>:
    154c:	4b02      	ldr	r3, [pc, #8]	; (1558 <IsDebugFifoEmpty+0xc>)
    154e:	6998      	ldr	r0, [r3, #24]
    1550:	00c0      	lsls	r0, r0, #3
    1552:	0fc0      	lsrs	r0, r0, #31
    1554:	4770      	bx	lr
    1556:	46c0      	nop			; (mov r8, r8)
    1558:	40050000 	.word	0x40050000

0000155c <_ttywrch>:
    155c:	b2c3      	uxtb	r3, r0
    155e:	2b0a      	cmp	r3, #10
    1560:	d007      	beq.n	1572 <_ttywrch+0x16>
    1562:	2180      	movs	r1, #128	; 0x80
    1564:	4a07      	ldr	r2, [pc, #28]	; (1584 <_ttywrch+0x28>)
    1566:	0409      	lsls	r1, r1, #16
    1568:	6993      	ldr	r3, [r2, #24]
    156a:	420b      	tst	r3, r1
    156c:	d1fc      	bne.n	1568 <_ttywrch+0xc>
    156e:	6010      	str	r0, [r2, #0]
    1570:	4770      	bx	lr
    1572:	2180      	movs	r1, #128	; 0x80
    1574:	4a03      	ldr	r2, [pc, #12]	; (1584 <_ttywrch+0x28>)
    1576:	0409      	lsls	r1, r1, #16
    1578:	6993      	ldr	r3, [r2, #24]
    157a:	420b      	tst	r3, r1
    157c:	d1fc      	bne.n	1578 <_ttywrch+0x1c>
    157e:	230d      	movs	r3, #13
    1580:	6013      	str	r3, [r2, #0]
    1582:	e7ee      	b.n	1562 <_ttywrch+0x6>
    1584:	40050000 	.word	0x40050000

00001588 <fputc>:
    1588:	b2c3      	uxtb	r3, r0
    158a:	2b0a      	cmp	r3, #10
    158c:	d007      	beq.n	159e <fputc+0x16>
    158e:	2180      	movs	r1, #128	; 0x80
    1590:	4a07      	ldr	r2, [pc, #28]	; (15b0 <fputc+0x28>)
    1592:	0409      	lsls	r1, r1, #16
    1594:	6993      	ldr	r3, [r2, #24]
    1596:	420b      	tst	r3, r1
    1598:	d1fc      	bne.n	1594 <fputc+0xc>
    159a:	6010      	str	r0, [r2, #0]
    159c:	4770      	bx	lr
    159e:	2180      	movs	r1, #128	; 0x80
    15a0:	4a03      	ldr	r2, [pc, #12]	; (15b0 <fputc+0x28>)
    15a2:	0409      	lsls	r1, r1, #16
    15a4:	6993      	ldr	r3, [r2, #24]
    15a6:	420b      	tst	r3, r1
    15a8:	d1fc      	bne.n	15a4 <fputc+0x1c>
    15aa:	230d      	movs	r3, #13
    15ac:	6013      	str	r3, [r2, #0]
    15ae:	e7ee      	b.n	158e <fputc+0x6>
    15b0:	40050000 	.word	0x40050000

000015b4 <_write>:
    15b4:	b5f0      	push	{r4, r5, r6, r7, lr}
    15b6:	0010      	movs	r0, r2
    15b8:	000c      	movs	r4, r1
    15ba:	188e      	adds	r6, r1, r2
    15bc:	2a00      	cmp	r2, #0
    15be:	d00d      	beq.n	15dc <_write+0x28>
    15c0:	2180      	movs	r1, #128	; 0x80
    15c2:	270d      	movs	r7, #13
    15c4:	4a09      	ldr	r2, [pc, #36]	; (15ec <_write+0x38>)
    15c6:	0409      	lsls	r1, r1, #16
    15c8:	7825      	ldrb	r5, [r4, #0]
    15ca:	2d0a      	cmp	r5, #10
    15cc:	d007      	beq.n	15de <_write+0x2a>
    15ce:	6993      	ldr	r3, [r2, #24]
    15d0:	420b      	tst	r3, r1
    15d2:	d1fc      	bne.n	15ce <_write+0x1a>
    15d4:	3401      	adds	r4, #1
    15d6:	6015      	str	r5, [r2, #0]
    15d8:	42a6      	cmp	r6, r4
    15da:	d1f5      	bne.n	15c8 <_write+0x14>
    15dc:	bdf0      	pop	{r4, r5, r6, r7, pc}
    15de:	6993      	ldr	r3, [r2, #24]
    15e0:	420b      	tst	r3, r1
    15e2:	d1fc      	bne.n	15de <_write+0x2a>
    15e4:	6017      	str	r7, [r2, #0]
    15e6:	7825      	ldrb	r5, [r4, #0]
    15e8:	e7f1      	b.n	15ce <_write+0x1a>
    15ea:	46c0      	nop			; (mov r8, r8)
    15ec:	40050000 	.word	0x40050000

000015f0 <_read>:
    15f0:	2080      	movs	r0, #128	; 0x80
    15f2:	4a04      	ldr	r2, [pc, #16]	; (1604 <_read+0x14>)
    15f4:	01c0      	lsls	r0, r0, #7
    15f6:	6993      	ldr	r3, [r2, #24]
    15f8:	4203      	tst	r3, r0
    15fa:	d1fc      	bne.n	15f6 <_read+0x6>
    15fc:	6813      	ldr	r3, [r2, #0]
    15fe:	2001      	movs	r0, #1
    1600:	700b      	strb	r3, [r1, #0]
    1602:	4770      	bx	lr
    1604:	40050000 	.word	0x40050000

00001608 <__udivsi3>:
    1608:	e2512001 	subs	r2, r1, #1
    160c:	012fff1e 	bxeq	lr
    1610:	3a000036 	bcc	16f0 <__udivsi3+0xe8>
    1614:	e1500001 	cmp	r0, r1
    1618:	9a000022 	bls	16a8 <__udivsi3+0xa0>
    161c:	e1110002 	tst	r1, r2
    1620:	0a000023 	beq	16b4 <__udivsi3+0xac>
    1624:	e311020e 	tst	r1, #-536870912	; 0xe0000000
    1628:	01a01181 	lsleq	r1, r1, #3
    162c:	03a03008 	moveq	r3, #8
    1630:	13a03001 	movne	r3, #1
    1634:	e3510201 	cmp	r1, #268435456	; 0x10000000
    1638:	31510000 	cmpcc	r1, r0
    163c:	31a01201 	lslcc	r1, r1, #4
    1640:	31a03203 	lslcc	r3, r3, #4
    1644:	3afffffa 	bcc	1634 <__udivsi3+0x2c>
    1648:	e3510102 	cmp	r1, #-2147483648	; 0x80000000
    164c:	31510000 	cmpcc	r1, r0
    1650:	31a01081 	lslcc	r1, r1, #1
    1654:	31a03083 	lslcc	r3, r3, #1
    1658:	3afffffa 	bcc	1648 <__udivsi3+0x40>
    165c:	e3a02000 	mov	r2, #0
    1660:	e1500001 	cmp	r0, r1
    1664:	20400001 	subcs	r0, r0, r1
    1668:	21822003 	orrcs	r2, r2, r3
    166c:	e15000a1 	cmp	r0, r1, lsr #1
    1670:	204000a1 	subcs	r0, r0, r1, lsr #1
    1674:	218220a3 	orrcs	r2, r2, r3, lsr #1
    1678:	e1500121 	cmp	r0, r1, lsr #2
    167c:	20400121 	subcs	r0, r0, r1, lsr #2
    1680:	21822123 	orrcs	r2, r2, r3, lsr #2
    1684:	e15001a1 	cmp	r0, r1, lsr #3
    1688:	204001a1 	subcs	r0, r0, r1, lsr #3
    168c:	218221a3 	orrcs	r2, r2, r3, lsr #3
    1690:	e3500000 	cmp	r0, #0
    1694:	11b03223 	lsrsne	r3, r3, #4
    1698:	11a01221 	lsrne	r1, r1, #4
    169c:	1affffef 	bne	1660 <__udivsi3+0x58>
    16a0:	e1a00002 	mov	r0, r2
    16a4:	e12fff1e 	bx	lr
    16a8:	03a00001 	moveq	r0, #1
    16ac:	13a00000 	movne	r0, #0
    16b0:	e12fff1e 	bx	lr
    16b4:	e3510801 	cmp	r1, #65536	; 0x10000
    16b8:	21a01821 	lsrcs	r1, r1, #16
    16bc:	23a02010 	movcs	r2, #16
    16c0:	33a02000 	movcc	r2, #0
    16c4:	e3510c01 	cmp	r1, #256	; 0x100
    16c8:	21a01421 	lsrcs	r1, r1, #8
    16cc:	22822008 	addcs	r2, r2, #8
    16d0:	e3510010 	cmp	r1, #16
    16d4:	21a01221 	lsrcs	r1, r1, #4
    16d8:	22822004 	addcs	r2, r2, #4
    16dc:	e3510004 	cmp	r1, #4
    16e0:	82822003 	addhi	r2, r2, #3
    16e4:	908220a1 	addls	r2, r2, r1, lsr #1
    16e8:	e1a00230 	lsr	r0, r0, r2
    16ec:	e12fff1e 	bx	lr
    16f0:	e3500000 	cmp	r0, #0
    16f4:	13e00000 	mvnne	r0, #0
    16f8:	ea000059 	b	1864 <__aeabi_idiv0>

000016fc <__aeabi_uidivmod>:
    16fc:	e3510000 	cmp	r1, #0
    1700:	0afffffa 	beq	16f0 <__udivsi3+0xe8>
    1704:	e92d4003 	push	{r0, r1, lr}
    1708:	ebffffbe 	bl	1608 <__udivsi3>
    170c:	e8bd4006 	pop	{r1, r2, lr}
    1710:	e0030092 	mul	r3, r2, r0
    1714:	e0411003 	sub	r1, r1, r3
    1718:	e12fff1e 	bx	lr

0000171c <__divsi3>:
    171c:	e3510000 	cmp	r1, #0
    1720:	0a000043 	beq	1834 <.divsi3_skip_div0_test+0x110>

00001724 <.divsi3_skip_div0_test>:
    1724:	e020c001 	eor	ip, r0, r1
    1728:	42611000 	rsbmi	r1, r1, #0
    172c:	e2512001 	subs	r2, r1, #1
    1730:	0a000027 	beq	17d4 <.divsi3_skip_div0_test+0xb0>
    1734:	e1b03000 	movs	r3, r0
    1738:	42603000 	rsbmi	r3, r0, #0
    173c:	e1530001 	cmp	r3, r1
    1740:	9a000026 	bls	17e0 <.divsi3_skip_div0_test+0xbc>
    1744:	e1110002 	tst	r1, r2
    1748:	0a000028 	beq	17f0 <.divsi3_skip_div0_test+0xcc>
    174c:	e311020e 	tst	r1, #-536870912	; 0xe0000000
    1750:	01a01181 	lsleq	r1, r1, #3
    1754:	03a02008 	moveq	r2, #8
    1758:	13a02001 	movne	r2, #1
    175c:	e3510201 	cmp	r1, #268435456	; 0x10000000
    1760:	31510003 	cmpcc	r1, r3
    1764:	31a01201 	lslcc	r1, r1, #4
    1768:	31a02202 	lslcc	r2, r2, #4
    176c:	3afffffa 	bcc	175c <.divsi3_skip_div0_test+0x38>
    1770:	e3510102 	cmp	r1, #-2147483648	; 0x80000000
    1774:	31510003 	cmpcc	r1, r3
    1778:	31a01081 	lslcc	r1, r1, #1
    177c:	31a02082 	lslcc	r2, r2, #1
    1780:	3afffffa 	bcc	1770 <.divsi3_skip_div0_test+0x4c>
    1784:	e3a00000 	mov	r0, #0
    1788:	e1530001 	cmp	r3, r1
    178c:	20433001 	subcs	r3, r3, r1
    1790:	21800002 	orrcs	r0, r0, r2
    1794:	e15300a1 	cmp	r3, r1, lsr #1
    1798:	204330a1 	subcs	r3, r3, r1, lsr #1
    179c:	218000a2 	orrcs	r0, r0, r2, lsr #1
    17a0:	e1530121 	cmp	r3, r1, lsr #2
    17a4:	20433121 	subcs	r3, r3, r1, lsr #2
    17a8:	21800122 	orrcs	r0, r0, r2, lsr #2
    17ac:	e15301a1 	cmp	r3, r1, lsr #3
    17b0:	204331a1 	subcs	r3, r3, r1, lsr #3
    17b4:	218001a2 	orrcs	r0, r0, r2, lsr #3
    17b8:	e3530000 	cmp	r3, #0
    17bc:	11b02222 	lsrsne	r2, r2, #4
    17c0:	11a01221 	lsrne	r1, r1, #4
    17c4:	1affffef 	bne	1788 <.divsi3_skip_div0_test+0x64>
    17c8:	e35c0000 	cmp	ip, #0
    17cc:	42600000 	rsbmi	r0, r0, #0
    17d0:	e12fff1e 	bx	lr
    17d4:	e13c0000 	teq	ip, r0
    17d8:	42600000 	rsbmi	r0, r0, #0
    17dc:	e12fff1e 	bx	lr
    17e0:	33a00000 	movcc	r0, #0
    17e4:	01a00fcc 	asreq	r0, ip, #31
    17e8:	03800001 	orreq	r0, r0, #1
    17ec:	e12fff1e 	bx	lr
    17f0:	e3510801 	cmp	r1, #65536	; 0x10000
    17f4:	21a01821 	lsrcs	r1, r1, #16
    17f8:	23a02010 	movcs	r2, #16
    17fc:	33a02000 	movcc	r2, #0
    1800:	e3510c01 	cmp	r1, #256	; 0x100
    1804:	21a01421 	lsrcs	r1, r1, #8
    1808:	22822008 	addcs	r2, r2, #8
    180c:	e3510010 	cmp	r1, #16
    1810:	21a01221 	lsrcs	r1, r1, #4
    1814:	22822004 	addcs	r2, r2, #4
    1818:	e3510004 	cmp	r1, #4
    181c:	82822003 	addhi	r2, r2, #3
    1820:	908220a1 	addls	r2, r2, r1, lsr #1
    1824:	e35c0000 	cmp	ip, #0
    1828:	e1a00233 	lsr	r0, r3, r2
    182c:	42600000 	rsbmi	r0, r0, #0
    1830:	e12fff1e 	bx	lr
    1834:	e3500000 	cmp	r0, #0
    1838:	c3e00102 	mvngt	r0, #-2147483648	; 0x80000000
    183c:	b3a00102 	movlt	r0, #-2147483648	; 0x80000000
    1840:	ea000007 	b	1864 <__aeabi_idiv0>

00001844 <__aeabi_idivmod>:
    1844:	e3510000 	cmp	r1, #0
    1848:	0afffff9 	beq	1834 <.divsi3_skip_div0_test+0x110>
    184c:	e92d4003 	push	{r0, r1, lr}
    1850:	ebffffb3 	bl	1724 <.divsi3_skip_div0_test>
    1854:	e8bd4006 	pop	{r1, r2, lr}
    1858:	e0030092 	mul	r3, r2, r0
    185c:	e0411003 	sub	r1, r1, r3
    1860:	e12fff1e 	bx	lr

00001864 <__aeabi_idiv0>:
    1864:	e12fff1e 	bx	lr

00001868 <exit>:
    1868:	e92d4010 	push	{r4, lr}
    186c:	e3a01000 	mov	r1, #0
    1870:	e1a04000 	mov	r4, r0
    1874:	eb000ba5 	bl	4710 <__call_exitprocs>
    1878:	e59f3018 	ldr	r3, [pc, #24]	; 1898 <exit+0x30>
    187c:	e5930000 	ldr	r0, [r3]
    1880:	e590303c 	ldr	r3, [r0, #60]	; 0x3c
    1884:	e3530000 	cmp	r3, #0
    1888:	11a0e00f 	movne	lr, pc
    188c:	112fff13 	bxne	r3
    1890:	e1a00004 	mov	r0, r4
    1894:	eb0028c9 	bl	bbc0 <_exit>
    1898:	0000bf54 	.word	0x0000bf54

0000189c <__libc_init_array>:
    189c:	e92d4070 	push	{r4, r5, r6, lr}
    18a0:	e59f606c 	ldr	r6, [pc, #108]	; 1914 <__libc_init_array+0x78>
    18a4:	e59f506c 	ldr	r5, [pc, #108]	; 1918 <__libc_init_array+0x7c>
    18a8:	e0466005 	sub	r6, r6, r5
    18ac:	e1b06146 	asrs	r6, r6, #2
    18b0:	0a000007 	beq	18d4 <__libc_init_array+0x38>
    18b4:	e3a04000 	mov	r4, #0
    18b8:	e2455004 	sub	r5, r5, #4
    18bc:	e5b53004 	ldr	r3, [r5, #4]!
    18c0:	e2844001 	add	r4, r4, #1
    18c4:	e1a0e00f 	mov	lr, pc
    18c8:	e12fff13 	bx	r3
    18cc:	e1560004 	cmp	r6, r4
    18d0:	1afffff9 	bne	18bc <__libc_init_array+0x20>
    18d4:	e59f6040 	ldr	r6, [pc, #64]	; 191c <__libc_init_array+0x80>
    18d8:	e59f5040 	ldr	r5, [pc, #64]	; 1920 <__libc_init_array+0x84>
    18dc:	e0466005 	sub	r6, r6, r5
    18e0:	eb0028b7 	bl	bbc4 <_init>
    18e4:	e1b06146 	asrs	r6, r6, #2
    18e8:	0a000007 	beq	190c <__libc_init_array+0x70>
    18ec:	e3a04000 	mov	r4, #0
    18f0:	e2455004 	sub	r5, r5, #4
    18f4:	e5b53004 	ldr	r3, [r5, #4]!
    18f8:	e2844001 	add	r4, r4, #1
    18fc:	e1a0e00f 	mov	lr, pc
    1900:	e12fff13 	bx	r3
    1904:	e1560004 	cmp	r6, r4
    1908:	1afffff9 	bne	18f4 <__libc_init_array+0x58>
    190c:	e8bd4070 	pop	{r4, r5, r6, lr}
    1910:	e12fff1e 	bx	lr
    1914:	20000a70 	.word	0x20000a70
    1918:	20000a70 	.word	0x20000a70
    191c:	20000a78 	.word	0x20000a78
    1920:	20000a70 	.word	0x20000a70

00001924 <memcpy>:
    1924:	e352000f 	cmp	r2, #15
    1928:	9a000036 	bls	1a08 <memcpy+0xe4>
    192c:	e1803001 	orr	r3, r0, r1
    1930:	e3130003 	tst	r3, #3
    1934:	1a00003f 	bne	1a38 <memcpy+0x114>
    1938:	e242c010 	sub	ip, r2, #16
    193c:	e92d40f0 	push	{r4, r5, r6, r7, lr}
    1940:	e2814020 	add	r4, r1, #32
    1944:	e3cce00f 	bic	lr, ip, #15
    1948:	e2813010 	add	r3, r1, #16
    194c:	e2806010 	add	r6, r0, #16
    1950:	e084400e 	add	r4, r4, lr
    1954:	e1a0522c 	lsr	r5, ip, #4
    1958:	e513e00c 	ldr	lr, [r3, #-12]
    195c:	e513c008 	ldr	ip, [r3, #-8]
    1960:	e5137010 	ldr	r7, [r3, #-16]
    1964:	e506e00c 	str	lr, [r6, #-12]
    1968:	e2833010 	add	r3, r3, #16
    196c:	e513e014 	ldr	lr, [r3, #-20]	; 0xffffffec
    1970:	e1530004 	cmp	r3, r4
    1974:	e9065000 	stmdb	r6, {ip, lr}
    1978:	e5067010 	str	r7, [r6, #-16]
    197c:	e2866010 	add	r6, r6, #16
    1980:	1afffff4 	bne	1958 <memcpy+0x34>
    1984:	e285c001 	add	ip, r5, #1
    1988:	e312000c 	tst	r2, #12
    198c:	e202300f 	and	r3, r2, #15
    1990:	e081120c 	add	r1, r1, ip, lsl #4
    1994:	01a02003 	moveq	r2, r3
    1998:	e080c20c 	add	ip, r0, ip, lsl #4
    199c:	0a00000d 	beq	19d8 <memcpy+0xb4>
    19a0:	e1a04001 	mov	r4, r1
    19a4:	e2433004 	sub	r3, r3, #4
    19a8:	e3c36003 	bic	r6, r3, #3
    19ac:	e1a0e123 	lsr	lr, r3, #2
    19b0:	e08c6006 	add	r6, ip, r6
    19b4:	e24c3004 	sub	r3, ip, #4
    19b8:	e4945004 	ldr	r5, [r4], #4
    19bc:	e5a35004 	str	r5, [r3, #4]!
    19c0:	e1530006 	cmp	r3, r6
    19c4:	1afffffb 	bne	19b8 <memcpy+0x94>
    19c8:	e28e3001 	add	r3, lr, #1
    19cc:	e2022003 	and	r2, r2, #3
    19d0:	e08cc103 	add	ip, ip, r3, lsl #2
    19d4:	e0811103 	add	r1, r1, r3, lsl #2
    19d8:	e3520000 	cmp	r2, #0
    19dc:	e2423001 	sub	r3, r2, #1
    19e0:	12833001 	addne	r3, r3, #1
    19e4:	124c2001 	subne	r2, ip, #1
    19e8:	10813003 	addne	r3, r1, r3
    19ec:	0a000003 	beq	1a00 <memcpy+0xdc>
    19f0:	e4d1c001 	ldrb	ip, [r1], #1
    19f4:	e1510003 	cmp	r1, r3
    19f8:	e5e2c001 	strb	ip, [r2, #1]!
    19fc:	1afffffb 	bne	19f0 <memcpy+0xcc>
    1a00:	e8bd40f0 	pop	{r4, r5, r6, r7, lr}
    1a04:	e12fff1e 	bx	lr
    1a08:	e3520000 	cmp	r2, #0
    1a0c:	e1a0c000 	mov	ip, r0
    1a10:	e2423001 	sub	r3, r2, #1
    1a14:	012fff1e 	bxeq	lr
    1a18:	e2833001 	add	r3, r3, #1
    1a1c:	e24c2001 	sub	r2, ip, #1
    1a20:	e0813003 	add	r3, r1, r3
    1a24:	e4d1c001 	ldrb	ip, [r1], #1
    1a28:	e1510003 	cmp	r1, r3
    1a2c:	e5e2c001 	strb	ip, [r2, #1]!
    1a30:	1afffffb 	bne	1a24 <memcpy+0x100>
    1a34:	e12fff1e 	bx	lr
    1a38:	e1a0c000 	mov	ip, r0
    1a3c:	e2423001 	sub	r3, r2, #1
    1a40:	eafffff4 	b	1a18 <memcpy+0xf4>

00001a44 <memset>:
    1a44:	e3100003 	tst	r0, #3
    1a48:	0a000040 	beq	1b50 <memset+0x10c>
    1a4c:	e3520000 	cmp	r2, #0
    1a50:	e2422001 	sub	r2, r2, #1
    1a54:	012fff1e 	bxeq	lr
    1a58:	e1a03000 	mov	r3, r0
    1a5c:	e201c0ff 	and	ip, r1, #255	; 0xff
    1a60:	ea000002 	b	1a70 <memset+0x2c>
    1a64:	e2422001 	sub	r2, r2, #1
    1a68:	e3720001 	cmn	r2, #1
    1a6c:	012fff1e 	bxeq	lr
    1a70:	e4c3c001 	strb	ip, [r3], #1
    1a74:	e3130003 	tst	r3, #3
    1a78:	1afffff9 	bne	1a64 <memset+0x20>
    1a7c:	e3520003 	cmp	r2, #3
    1a80:	9a000028 	bls	1b28 <memset+0xe4>
    1a84:	e92d4030 	push	{r4, r5, lr}
    1a88:	e201e0ff 	and	lr, r1, #255	; 0xff
    1a8c:	e18ee40e 	orr	lr, lr, lr, lsl #8
    1a90:	e352000f 	cmp	r2, #15
    1a94:	e18ee80e 	orr	lr, lr, lr, lsl #16
    1a98:	9a00002e 	bls	1b58 <memset+0x114>
    1a9c:	e242c010 	sub	ip, r2, #16
    1aa0:	e3cc400f 	bic	r4, ip, #15
    1aa4:	e2835020 	add	r5, r3, #32
    1aa8:	e0855004 	add	r5, r5, r4
    1aac:	e1a0422c 	lsr	r4, ip, #4
    1ab0:	e283c010 	add	ip, r3, #16
    1ab4:	e50ce010 	str	lr, [ip, #-16]
    1ab8:	e50ce00c 	str	lr, [ip, #-12]
    1abc:	e50ce008 	str	lr, [ip, #-8]
    1ac0:	e50ce004 	str	lr, [ip, #-4]
    1ac4:	e28cc010 	add	ip, ip, #16
    1ac8:	e15c0005 	cmp	ip, r5
    1acc:	1afffff8 	bne	1ab4 <memset+0x70>
    1ad0:	e284c001 	add	ip, r4, #1
    1ad4:	e312000c 	tst	r2, #12
    1ad8:	e083c20c 	add	ip, r3, ip, lsl #4
    1adc:	e202200f 	and	r2, r2, #15
    1ae0:	0a000018 	beq	1b48 <memset+0x104>
    1ae4:	e2423004 	sub	r3, r2, #4
    1ae8:	e3c33003 	bic	r3, r3, #3
    1aec:	e2833004 	add	r3, r3, #4
    1af0:	e08c3003 	add	r3, ip, r3
    1af4:	e48ce004 	str	lr, [ip], #4
    1af8:	e153000c 	cmp	r3, ip
    1afc:	1afffffc 	bne	1af4 <memset+0xb0>
    1b00:	e2022003 	and	r2, r2, #3
    1b04:	e3520000 	cmp	r2, #0
    1b08:	0a000004 	beq	1b20 <memset+0xdc>
    1b0c:	e20110ff 	and	r1, r1, #255	; 0xff
    1b10:	e0832002 	add	r2, r3, r2
    1b14:	e4c31001 	strb	r1, [r3], #1
    1b18:	e1520003 	cmp	r2, r3
    1b1c:	1afffffc 	bne	1b14 <memset+0xd0>
    1b20:	e8bd4030 	pop	{r4, r5, lr}
    1b24:	e12fff1e 	bx	lr
    1b28:	e3520000 	cmp	r2, #0
    1b2c:	012fff1e 	bxeq	lr
    1b30:	e20110ff 	and	r1, r1, #255	; 0xff
    1b34:	e0832002 	add	r2, r3, r2
    1b38:	e4c31001 	strb	r1, [r3], #1
    1b3c:	e1520003 	cmp	r2, r3
    1b40:	1afffffc 	bne	1b38 <memset+0xf4>
    1b44:	e12fff1e 	bx	lr
    1b48:	e1a0300c 	mov	r3, ip
    1b4c:	eaffffec 	b	1b04 <memset+0xc0>
    1b50:	e1a03000 	mov	r3, r0
    1b54:	eaffffc8 	b	1a7c <memset+0x38>
    1b58:	e1a0c003 	mov	ip, r3
    1b5c:	eaffffe0 	b	1ae4 <memset+0xa0>

00001b60 <printf>:
    1b60:	e92d000f 	push	{r0, r1, r2, r3}
    1b64:	e52de004 	push	{lr}		; (str lr, [sp, #-4]!)
    1b68:	e59f2028 	ldr	r2, [pc, #40]	; 1b98 <printf+0x38>
    1b6c:	e5920000 	ldr	r0, [r2]
    1b70:	e24dd00c 	sub	sp, sp, #12
    1b74:	e28d3014 	add	r3, sp, #20
    1b78:	e59d2010 	ldr	r2, [sp, #16]
    1b7c:	e5901008 	ldr	r1, [r0, #8]
    1b80:	e58d3004 	str	r3, [sp, #4]
    1b84:	eb000004 	bl	1b9c <_vfprintf_r>
    1b88:	e28dd00c 	add	sp, sp, #12
    1b8c:	e49de004 	pop	{lr}		; (ldr lr, [sp], #4)
    1b90:	e28dd010 	add	sp, sp, #16
    1b94:	e12fff1e 	bx	lr
    1b98:	200000c0 	.word	0x200000c0

00001b9c <_vfprintf_r>:
    1b9c:	e92d4ff0 	push	{r4, r5, r6, r7, r8, r9, sl, fp, lr}
    1ba0:	e24ddf55 	sub	sp, sp, #340	; 0x154
    1ba4:	e1a04003 	mov	r4, r3
    1ba8:	e1a0b001 	mov	fp, r1
    1bac:	e1a08002 	mov	r8, r2
    1bb0:	e1a07000 	mov	r7, r0
    1bb4:	eb0013bd 	bl	6ab0 <_localeconv_r>
    1bb8:	e5903000 	ldr	r3, [r0]
    1bbc:	e1a00003 	mov	r0, r3
    1bc0:	e58d3060 	str	r3, [sp, #96]	; 0x60
    1bc4:	e58d4034 	str	r4, [sp, #52]	; 0x34
    1bc8:	eb0019a0 	bl	8250 <strlen>
    1bcc:	e3570000 	cmp	r7, #0
    1bd0:	e58d005c 	str	r0, [sp, #92]	; 0x5c
    1bd4:	0a000002 	beq	1be4 <_vfprintf_r+0x48>
    1bd8:	e5973038 	ldr	r3, [r7, #56]	; 0x38
    1bdc:	e3530000 	cmp	r3, #0
    1be0:	0a000184 	beq	21f8 <_vfprintf_r+0x65c>
    1be4:	e59b3064 	ldr	r3, [fp, #100]	; 0x64
    1be8:	e3130001 	tst	r3, #1
    1bec:	e1db20fc 	ldrsh	r2, [fp, #12]
    1bf0:	1a0000db 	bne	1f64 <_vfprintf_r+0x3c8>
    1bf4:	e1a01802 	lsl	r1, r2, #16
    1bf8:	e3120c02 	tst	r2, #512	; 0x200
    1bfc:	e1a01821 	lsr	r1, r1, #16
    1c00:	0a0000d4 	beq	1f58 <_vfprintf_r+0x3bc>
    1c04:	e3110a02 	tst	r1, #8192	; 0x2000
    1c08:	1a000006 	bne	1c28 <_vfprintf_r+0x8c>
    1c0c:	e59b3064 	ldr	r3, [fp, #100]	; 0x64
    1c10:	e3822a02 	orr	r2, r2, #8192	; 0x2000
    1c14:	e3c33a02 	bic	r3, r3, #8192	; 0x2000
    1c18:	e1a01802 	lsl	r1, r2, #16
    1c1c:	e1cb20bc 	strh	r2, [fp, #12]
    1c20:	e58b3064 	str	r3, [fp, #100]	; 0x64
    1c24:	e1a01821 	lsr	r1, r1, #16
    1c28:	e3110008 	tst	r1, #8
    1c2c:	0a0000b1 	beq	1ef8 <_vfprintf_r+0x35c>
    1c30:	e59b3010 	ldr	r3, [fp, #16]
    1c34:	e3530000 	cmp	r3, #0
    1c38:	0a0000ae 	beq	1ef8 <_vfprintf_r+0x35c>
    1c3c:	e201301a 	and	r3, r1, #26
    1c40:	e353000a 	cmp	r3, #10
    1c44:	0a0000b4 	beq	1f1c <_vfprintf_r+0x380>
    1c48:	e3a04000 	mov	r4, #0
    1c4c:	e28d30ac 	add	r3, sp, #172	; 0xac
    1c50:	e1a02004 	mov	r2, r4
    1c54:	e1a09003 	mov	r9, r3
    1c58:	e58d30a0 	str	r3, [sp, #160]	; 0xa0
    1c5c:	e58d40a8 	str	r4, [sp, #168]	; 0xa8
    1c60:	e3a03000 	mov	r3, #0
    1c64:	e58d40a4 	str	r4, [sp, #164]	; 0xa4
    1c68:	e58d404c 	str	r4, [sp, #76]	; 0x4c
    1c6c:	e3a04000 	mov	r4, #0
    1c70:	e58d3050 	str	r3, [sp, #80]	; 0x50
    1c74:	e58d4054 	str	r4, [sp, #84]	; 0x54
    1c78:	e1a0300b 	mov	r3, fp
    1c7c:	e1a0b007 	mov	fp, r7
    1c80:	e1a07003 	mov	r7, r3
    1c84:	e58d2068 	str	r2, [sp, #104]	; 0x68
    1c88:	e58d206c 	str	r2, [sp, #108]	; 0x6c
    1c8c:	e58d2074 	str	r2, [sp, #116]	; 0x74
    1c90:	e58d2078 	str	r2, [sp, #120]	; 0x78
    1c94:	e58d2070 	str	r2, [sp, #112]	; 0x70
    1c98:	e58d2024 	str	r2, [sp, #36]	; 0x24
    1c9c:	e5d83000 	ldrb	r3, [r8]
    1ca0:	e3530025 	cmp	r3, #37	; 0x25
    1ca4:	13530000 	cmpne	r3, #0
    1ca8:	e1a04008 	mov	r4, r8
    1cac:	0a000015 	beq	1d08 <_vfprintf_r+0x16c>
    1cb0:	e1a05004 	mov	r5, r4
    1cb4:	e5f43001 	ldrb	r3, [r4, #1]!
    1cb8:	e3530000 	cmp	r3, #0
    1cbc:	13530025 	cmpne	r3, #37	; 0x25
    1cc0:	1afffffa 	bne	1cb0 <_vfprintf_r+0x114>
    1cc4:	e0546008 	subs	r6, r4, r8
    1cc8:	0a00000e 	beq	1d08 <_vfprintf_r+0x16c>
    1ccc:	e59d30a4 	ldr	r3, [sp, #164]	; 0xa4
    1cd0:	e2833001 	add	r3, r3, #1
    1cd4:	e3530007 	cmp	r3, #7
    1cd8:	e58d30a4 	str	r3, [sp, #164]	; 0xa4
    1cdc:	e59d30a8 	ldr	r3, [sp, #168]	; 0xa8
    1ce0:	e0833006 	add	r3, r3, r6
    1ce4:	e5898000 	str	r8, [r9]
    1ce8:	e5896004 	str	r6, [r9, #4]
    1cec:	e58d30a8 	str	r3, [sp, #168]	; 0xa8
    1cf0:	d2899008 	addle	r9, r9, #8
    1cf4:	ca00009d 	bgt	1f70 <_vfprintf_r+0x3d4>
    1cf8:	e59d3024 	ldr	r3, [sp, #36]	; 0x24
    1cfc:	e0833006 	add	r3, r3, r6
    1d00:	e58d3024 	str	r3, [sp, #36]	; 0x24
    1d04:	e5d53001 	ldrb	r3, [r5, #1]
    1d08:	e3530000 	cmp	r3, #0
    1d0c:	0a000656 	beq	366c <_vfprintf_r+0x1ad0>
    1d10:	e3a02000 	mov	r2, #0
    1d14:	e3e05000 	mvn	r5, #0
    1d18:	e5d43001 	ldrb	r3, [r4, #1]
    1d1c:	e2848001 	add	r8, r4, #1
    1d20:	e1a0a002 	mov	sl, r2
    1d24:	e1a04005 	mov	r4, r5
    1d28:	e5cd2083 	strb	r2, [sp, #131]	; 0x83
    1d2c:	e58d2020 	str	r2, [sp, #32]
    1d30:	e2888001 	add	r8, r8, #1
    1d34:	e2432020 	sub	r2, r3, #32
    1d38:	e352005a 	cmp	r2, #90	; 0x5a
    1d3c:	979ff102 	ldrls	pc, [pc, r2, lsl #2]
    1d40:	ea000092 	b	1f90 <_vfprintf_r+0x3f4>
    1d44:	00002598 	.word	0x00002598
    1d48:	00001f90 	.word	0x00001f90
    1d4c:	00001f90 	.word	0x00001f90
    1d50:	0000258c 	.word	0x0000258c
    1d54:	00001f90 	.word	0x00001f90
    1d58:	00001f90 	.word	0x00001f90
    1d5c:	00001f90 	.word	0x00001f90
    1d60:	00002530 	.word	0x00002530
    1d64:	00001f90 	.word	0x00001f90
    1d68:	00001f90 	.word	0x00001f90
    1d6c:	00001ed8 	.word	0x00001ed8
    1d70:	00002418 	.word	0x00002418
    1d74:	00001f90 	.word	0x00001f90
    1d78:	00002338 	.word	0x00002338
    1d7c:	00002434 	.word	0x00002434
    1d80:	00001f90 	.word	0x00001f90
    1d84:	00002428 	.word	0x00002428
    1d88:	00001eb0 	.word	0x00001eb0
    1d8c:	00001eb0 	.word	0x00001eb0
    1d90:	00001eb0 	.word	0x00001eb0
    1d94:	00001eb0 	.word	0x00001eb0
    1d98:	00001eb0 	.word	0x00001eb0
    1d9c:	00001eb0 	.word	0x00001eb0
    1da0:	00001eb0 	.word	0x00001eb0
    1da4:	00001eb0 	.word	0x00001eb0
    1da8:	00001eb0 	.word	0x00001eb0
    1dac:	00001f90 	.word	0x00001f90
    1db0:	00001f90 	.word	0x00001f90
    1db4:	00001f90 	.word	0x00001f90
    1db8:	00001f90 	.word	0x00001f90
    1dbc:	00001f90 	.word	0x00001f90
    1dc0:	00001f90 	.word	0x00001f90
    1dc4:	00001f90 	.word	0x00001f90
    1dc8:	00002128 	.word	0x00002128
    1dcc:	00001f90 	.word	0x00001f90
    1dd0:	00002210 	.word	0x00002210
    1dd4:	000024f0 	.word	0x000024f0
    1dd8:	00002128 	.word	0x00002128
    1ddc:	00002128 	.word	0x00002128
    1de0:	00002128 	.word	0x00002128
    1de4:	00001f90 	.word	0x00001f90
    1de8:	00001f90 	.word	0x00001f90
    1dec:	00001f90 	.word	0x00001f90
    1df0:	00001f90 	.word	0x00001f90
    1df4:	000024e4 	.word	0x000024e4
    1df8:	00001f90 	.word	0x00001f90
    1dfc:	00001f90 	.word	0x00001f90
    1e00:	00002474 	.word	0x00002474
    1e04:	00001f90 	.word	0x00001f90
    1e08:	00001f90 	.word	0x00001f90
    1e0c:	00001f90 	.word	0x00001f90
    1e10:	00002244 	.word	0x00002244
    1e14:	00001f90 	.word	0x00001f90
    1e18:	00002344 	.word	0x00002344
    1e1c:	00001f90 	.word	0x00001f90
    1e20:	00001f90 	.word	0x00001f90
    1e24:	000033bc 	.word	0x000033bc
    1e28:	00001f90 	.word	0x00001f90
    1e2c:	00001f90 	.word	0x00001f90
    1e30:	00001f90 	.word	0x00001f90
    1e34:	00001f90 	.word	0x00001f90
    1e38:	00001f90 	.word	0x00001f90
    1e3c:	00001f90 	.word	0x00001f90
    1e40:	00001f90 	.word	0x00001f90
    1e44:	00001f90 	.word	0x00001f90
    1e48:	00002128 	.word	0x00002128
    1e4c:	00001f90 	.word	0x00001f90
    1e50:	00002210 	.word	0x00002210
    1e54:	000022c0 	.word	0x000022c0
    1e58:	00002128 	.word	0x00002128
    1e5c:	00002128 	.word	0x00002128
    1e60:	00002128 	.word	0x00002128
    1e64:	000024ac 	.word	0x000024ac
    1e68:	000022c0 	.word	0x000022c0
    1e6c:	00002204 	.word	0x00002204
    1e70:	00001f90 	.word	0x00001f90
    1e74:	000024c8 	.word	0x000024c8
    1e78:	00001f90 	.word	0x00001f90
    1e7c:	000025f0 	.word	0x000025f0
    1e80:	000033b4 	.word	0x000033b4
    1e84:	000025b4 	.word	0x000025b4
    1e88:	00002204 	.word	0x00002204
    1e8c:	00001f90 	.word	0x00001f90
    1e90:	00002244 	.word	0x00002244
    1e94:	00001ef0 	.word	0x00001ef0
    1e98:	000033a8 	.word	0x000033a8
    1e9c:	00001f90 	.word	0x00001f90
    1ea0:	00001f90 	.word	0x00001f90
    1ea4:	00003348 	.word	0x00003348
    1ea8:	00001f90 	.word	0x00001f90
    1eac:	00001ef0 	.word	0x00001ef0
    1eb0:	e3a01000 	mov	r1, #0
    1eb4:	e2432030 	sub	r2, r3, #48	; 0x30
    1eb8:	e4d83001 	ldrb	r3, [r8], #1
    1ebc:	e0811101 	add	r1, r1, r1, lsl #2
    1ec0:	e0821081 	add	r1, r2, r1, lsl #1
    1ec4:	e2432030 	sub	r2, r3, #48	; 0x30
    1ec8:	e3520009 	cmp	r2, #9
    1ecc:	9afffff9 	bls	1eb8 <_vfprintf_r+0x31c>
    1ed0:	e58d1020 	str	r1, [sp, #32]
    1ed4:	eaffff96 	b	1d34 <_vfprintf_r+0x198>
    1ed8:	e59d3034 	ldr	r3, [sp, #52]	; 0x34
    1edc:	e4932004 	ldr	r2, [r3], #4
    1ee0:	e3520000 	cmp	r2, #0
    1ee4:	e58d2020 	str	r2, [sp, #32]
    1ee8:	e58d3034 	str	r3, [sp, #52]	; 0x34
    1eec:	ba00010e 	blt	232c <_vfprintf_r+0x790>
    1ef0:	e5d83000 	ldrb	r3, [r8]
    1ef4:	eaffff8d 	b	1d30 <_vfprintf_r+0x194>
    1ef8:	e1a0100b 	mov	r1, fp
    1efc:	e1a00007 	mov	r0, r7
    1f00:	eb00099d 	bl	457c <__swsetup_r>
    1f04:	e3500000 	cmp	r0, #0
    1f08:	1a0008ba 	bne	41f8 <_vfprintf_r+0x265c>
    1f0c:	e1db10bc 	ldrh	r1, [fp, #12]
    1f10:	e201301a 	and	r3, r1, #26
    1f14:	e353000a 	cmp	r3, #10
    1f18:	1affff4a 	bne	1c48 <_vfprintf_r+0xac>
    1f1c:	e1db30fe 	ldrsh	r3, [fp, #14]
    1f20:	e3530000 	cmp	r3, #0
    1f24:	baffff47 	blt	1c48 <_vfprintf_r+0xac>
    1f28:	e59b3064 	ldr	r3, [fp, #100]	; 0x64
    1f2c:	e3130001 	tst	r3, #1
    1f30:	1a000001 	bne	1f3c <_vfprintf_r+0x3a0>
    1f34:	e3110c02 	tst	r1, #512	; 0x200
    1f38:	0a0006d5 	beq	3a94 <_vfprintf_r+0x1ef8>
    1f3c:	e1a03004 	mov	r3, r4
    1f40:	e1a02008 	mov	r2, r8
    1f44:	e1a0100b 	mov	r1, fp
    1f48:	e1a00007 	mov	r0, r7
    1f4c:	e28ddf55 	add	sp, sp, #340	; 0x154
    1f50:	e8bd4ff0 	pop	{r4, r5, r6, r7, r8, r9, sl, fp, lr}
    1f54:	ea000953 	b	44a8 <__sbprintf>
    1f58:	e59b0058 	ldr	r0, [fp, #88]	; 0x58
    1f5c:	eb0012d8 	bl	6ac4 <__retarget_lock_acquire_recursive>
    1f60:	e1db20fc 	ldrsh	r2, [fp, #12]
    1f64:	e1a01802 	lsl	r1, r2, #16
    1f68:	e1a01821 	lsr	r1, r1, #16
    1f6c:	eaffff24 	b	1c04 <_vfprintf_r+0x68>
    1f70:	e1a01007 	mov	r1, r7
    1f74:	e1a0000b 	mov	r0, fp
    1f78:	e28d20a0 	add	r2, sp, #160	; 0xa0
    1f7c:	eb001929 	bl	8428 <__sprint_r>
    1f80:	e3500000 	cmp	r0, #0
    1f84:	1a0008cd 	bne	42c0 <_vfprintf_r+0x2724>
    1f88:	e28d90ac 	add	r9, sp, #172	; 0xac
    1f8c:	eaffff59 	b	1cf8 <_vfprintf_r+0x15c>
    1f90:	e3530000 	cmp	r3, #0
    1f94:	e58d3040 	str	r3, [sp, #64]	; 0x40
    1f98:	0a0005b3 	beq	366c <_vfprintf_r+0x1ad0>
    1f9c:	e3a02000 	mov	r2, #0
    1fa0:	e5cd30ec 	strb	r3, [sp, #236]	; 0xec
    1fa4:	e3a03001 	mov	r3, #1
    1fa8:	e28d10ec 	add	r1, sp, #236	; 0xec
    1fac:	e58d301c 	str	r3, [sp, #28]
    1fb0:	e58d1038 	str	r1, [sp, #56]	; 0x38
    1fb4:	e5cd2083 	strb	r2, [sp, #131]	; 0x83
    1fb8:	e58d3028 	str	r3, [sp, #40]	; 0x28
    1fbc:	e1a05002 	mov	r5, r2
    1fc0:	e58d2030 	str	r2, [sp, #48]	; 0x30
    1fc4:	e58d2058 	str	r2, [sp, #88]	; 0x58
    1fc8:	e58d2048 	str	r2, [sp, #72]	; 0x48
    1fcc:	e58d2044 	str	r2, [sp, #68]	; 0x44
    1fd0:	e21a3002 	ands	r3, sl, #2
    1fd4:	159d101c 	ldrne	r1, [sp, #28]
    1fd8:	12811002 	addne	r1, r1, #2
    1fdc:	158d101c 	strne	r1, [sp, #28]
    1fe0:	e21a1084 	ands	r1, sl, #132	; 0x84
    1fe4:	e58d103c 	str	r1, [sp, #60]	; 0x3c
    1fe8:	1a000004 	bne	2000 <_vfprintf_r+0x464>
    1fec:	e28d001c 	add	r0, sp, #28
    1ff0:	e8900003 	ldm	r0, {r0, r1}
    1ff4:	e0416000 	sub	r6, r1, r0
    1ff8:	e3560000 	cmp	r6, #0
    1ffc:	ca0002a9 	bgt	2aa8 <_vfprintf_r+0xf0c>
    2000:	e59d40a8 	ldr	r4, [sp, #168]	; 0xa8
    2004:	e3520000 	cmp	r2, #0
    2008:	0a00000b 	beq	203c <_vfprintf_r+0x4a0>
    200c:	e3a02001 	mov	r2, #1
    2010:	e5892004 	str	r2, [r9, #4]
    2014:	e59d20a4 	ldr	r2, [sp, #164]	; 0xa4
    2018:	e2822001 	add	r2, r2, #1
    201c:	e3520007 	cmp	r2, #7
    2020:	e58d20a4 	str	r2, [sp, #164]	; 0xa4
    2024:	e2844001 	add	r4, r4, #1
    2028:	e28d2083 	add	r2, sp, #131	; 0x83
    202c:	e5892000 	str	r2, [r9]
    2030:	e58d40a8 	str	r4, [sp, #168]	; 0xa8
    2034:	d2899008 	addle	r9, r9, #8
    2038:	ca0002d1 	bgt	2b84 <_vfprintf_r+0xfe8>
    203c:	e3530000 	cmp	r3, #0
    2040:	0a00000b 	beq	2074 <_vfprintf_r+0x4d8>
    2044:	e3a03002 	mov	r3, #2
    2048:	e5893004 	str	r3, [r9, #4]
    204c:	e59d30a4 	ldr	r3, [sp, #164]	; 0xa4
    2050:	e2833001 	add	r3, r3, #1
    2054:	e3530007 	cmp	r3, #7
    2058:	e58d30a4 	str	r3, [sp, #164]	; 0xa4
    205c:	e2844002 	add	r4, r4, #2
    2060:	e28d3084 	add	r3, sp, #132	; 0x84
    2064:	e5893000 	str	r3, [r9]
    2068:	e58d40a8 	str	r4, [sp, #168]	; 0xa8
    206c:	d2899008 	addle	r9, r9, #8
    2070:	ca0002ce 	bgt	2bb0 <_vfprintf_r+0x1014>
    2074:	e59d303c 	ldr	r3, [sp, #60]	; 0x3c
    2078:	e3530080 	cmp	r3, #128	; 0x80
    207c:	0a0001ad 	beq	2738 <_vfprintf_r+0xb9c>
    2080:	e59d3028 	ldr	r3, [sp, #40]	; 0x28
    2084:	e0455003 	sub	r5, r5, r3
    2088:	e3550000 	cmp	r5, #0
    208c:	ca0001df 	bgt	2810 <_vfprintf_r+0xc74>
    2090:	e31a0c01 	tst	sl, #256	; 0x100
    2094:	1a000163 	bne	2628 <_vfprintf_r+0xa8c>
    2098:	e59d3038 	ldr	r3, [sp, #56]	; 0x38
    209c:	e5893000 	str	r3, [r9]
    20a0:	e59d3028 	ldr	r3, [sp, #40]	; 0x28
    20a4:	e0844003 	add	r4, r4, r3
    20a8:	e5893004 	str	r3, [r9, #4]
    20ac:	e59d30a4 	ldr	r3, [sp, #164]	; 0xa4
    20b0:	e2833001 	add	r3, r3, #1
    20b4:	e3530007 	cmp	r3, #7
    20b8:	e58d40a8 	str	r4, [sp, #168]	; 0xa8
    20bc:	e58d30a4 	str	r3, [sp, #164]	; 0xa4
    20c0:	ca00026f 	bgt	2a84 <_vfprintf_r+0xee8>
    20c4:	e2899008 	add	r9, r9, #8
    20c8:	e31a0004 	tst	sl, #4
    20cc:	0a000004 	beq	20e4 <_vfprintf_r+0x548>
    20d0:	e28d201c 	add	r2, sp, #28
    20d4:	e892000c 	ldm	r2, {r2, r3}
    20d8:	e0435002 	sub	r5, r3, r2
    20dc:	e3550000 	cmp	r5, #0
    20e0:	ca0002ca 	bgt	2c10 <_vfprintf_r+0x1074>
    20e4:	e28d101c 	add	r1, sp, #28
    20e8:	e891000e 	ldm	r1, {r1, r2, r3}
    20ec:	e1520001 	cmp	r2, r1
    20f0:	a0833002 	addge	r3, r3, r2
    20f4:	b0833001 	addlt	r3, r3, r1
    20f8:	e3540000 	cmp	r4, #0
    20fc:	e58d3024 	str	r3, [sp, #36]	; 0x24
    2100:	1a00020f 	bne	2944 <_vfprintf_r+0xda8>
    2104:	e59d3030 	ldr	r3, [sp, #48]	; 0x30
    2108:	e3530000 	cmp	r3, #0
    210c:	e3a03000 	mov	r3, #0
    2110:	e58d30a4 	str	r3, [sp, #164]	; 0xa4
    2114:	11a0000b 	movne	r0, fp
    2118:	159d1030 	ldrne	r1, [sp, #48]	; 0x30
    211c:	1b00118a 	blne	674c <_free_r>
    2120:	e28d90ac 	add	r9, sp, #172	; 0xac
    2124:	eafffedc 	b	1c9c <_vfprintf_r+0x100>
    2128:	e58d3040 	str	r3, [sp, #64]	; 0x40
    212c:	e59d3034 	ldr	r3, [sp, #52]	; 0x34
    2130:	e2833007 	add	r3, r3, #7
    2134:	e3c32007 	bic	r2, r3, #7
    2138:	e8b20018 	ldm	r2!, {r3, r4}
    213c:	e58d3050 	str	r3, [sp, #80]	; 0x50
    2140:	e58d4054 	str	r4, [sp, #84]	; 0x54
    2144:	e28d4050 	add	r4, sp, #80	; 0x50
    2148:	e8940018 	ldm	r4, {r3, r4}
    214c:	e3c44102 	bic	r4, r4, #-2147483648	; 0x80000000
    2150:	e1a00003 	mov	r0, r3
    2154:	e58d2034 	str	r2, [sp, #52]	; 0x34
    2158:	e1a06003 	mov	r6, r3
    215c:	e1a01004 	mov	r1, r4
    2160:	e3e02000 	mvn	r2, #0
    2164:	e59f3f78 	ldr	r3, [pc, #3960]	; 30e4 <_vfprintf_r+0x1548>
    2168:	eb0025cb 	bl	b89c <__aeabi_dcmpun>
    216c:	e3500000 	cmp	r0, #0
    2170:	1a0003e7 	bne	3114 <_vfprintf_r+0x1578>
    2174:	e1a00006 	mov	r0, r6
    2178:	e1a01004 	mov	r1, r4
    217c:	e3e02000 	mvn	r2, #0
    2180:	e59f3f5c 	ldr	r3, [pc, #3932]	; 30e4 <_vfprintf_r+0x1548>
    2184:	eb0025b2 	bl	b854 <__aeabi_dcmple>
    2188:	e3500000 	cmp	r0, #0
    218c:	1a0003e0 	bne	3114 <_vfprintf_r+0x1578>
    2190:	e3a02000 	mov	r2, #0
    2194:	e3a03000 	mov	r3, #0
    2198:	e28d1050 	add	r1, sp, #80	; 0x50
    219c:	e8910003 	ldm	r1, {r0, r1}
    21a0:	eb0025a5 	bl	b83c <__aeabi_dcmplt>
    21a4:	e3500000 	cmp	r0, #0
    21a8:	13a0202d 	movne	r2, #45	; 0x2d
    21ac:	15cd2083 	strbne	r2, [sp, #131]	; 0x83
    21b0:	05dd2083 	ldrbeq	r2, [sp, #131]	; 0x83
    21b4:	e3a00000 	mov	r0, #0
    21b8:	e3a0c003 	mov	ip, #3
    21bc:	e58d0030 	str	r0, [sp, #48]	; 0x30
    21c0:	e58dc01c 	str	ip, [sp, #28]
    21c4:	e59f1f1c 	ldr	r1, [pc, #3868]	; 30e8 <_vfprintf_r+0x154c>
    21c8:	e59f3f1c 	ldr	r3, [pc, #3868]	; 30ec <_vfprintf_r+0x1550>
    21cc:	e3caa080 	bic	sl, sl, #128	; 0x80
    21d0:	e59de040 	ldr	lr, [sp, #64]	; 0x40
    21d4:	e35e0047 	cmp	lr, #71	; 0x47
    21d8:	c1a01003 	movgt	r1, r3
    21dc:	e1a05000 	mov	r5, r0
    21e0:	e58d1038 	str	r1, [sp, #56]	; 0x38
    21e4:	e58dc028 	str	ip, [sp, #40]	; 0x28
    21e8:	e58d0058 	str	r0, [sp, #88]	; 0x58
    21ec:	e58d0048 	str	r0, [sp, #72]	; 0x48
    21f0:	e58d0044 	str	r0, [sp, #68]	; 0x44
    21f4:	ea000081 	b	2400 <_vfprintf_r+0x864>
    21f8:	e1a00007 	mov	r0, r7
    21fc:	eb001092 	bl	644c <__sinit>
    2200:	eafffe77 	b	1be4 <_vfprintf_r+0x48>
    2204:	e5d83000 	ldrb	r3, [r8]
    2208:	e38aa020 	orr	sl, sl, #32
    220c:	eafffec7 	b	1d30 <_vfprintf_r+0x194>
    2210:	e3a00001 	mov	r0, #1
    2214:	e3a02000 	mov	r2, #0
    2218:	e58d3040 	str	r3, [sp, #64]	; 0x40
    221c:	e59d3034 	ldr	r3, [sp, #52]	; 0x34
    2220:	e28d10ec 	add	r1, sp, #236	; 0xec
    2224:	e58d1038 	str	r1, [sp, #56]	; 0x38
    2228:	e4931004 	ldr	r1, [r3], #4
    222c:	e58d001c 	str	r0, [sp, #28]
    2230:	e5cd2083 	strb	r2, [sp, #131]	; 0x83
    2234:	e5cd10ec 	strb	r1, [sp, #236]	; 0xec
    2238:	e58d3034 	str	r3, [sp, #52]	; 0x34
    223c:	e58d0028 	str	r0, [sp, #40]	; 0x28
    2240:	eaffff5d 	b	1fbc <_vfprintf_r+0x420>
    2244:	e3a06000 	mov	r6, #0
    2248:	e59d4034 	ldr	r4, [sp, #52]	; 0x34
    224c:	e58d3040 	str	r3, [sp, #64]	; 0x40
    2250:	e4943004 	ldr	r3, [r4], #4
    2254:	e1530006 	cmp	r3, r6
    2258:	e5cd6083 	strb	r6, [sp, #131]	; 0x83
    225c:	e58d3038 	str	r3, [sp, #56]	; 0x38
    2260:	0a000462 	beq	33f0 <_vfprintf_r+0x1854>
    2264:	e3750001 	cmn	r5, #1
    2268:	0a00052d 	beq	3724 <_vfprintf_r+0x1b88>
    226c:	e1a02005 	mov	r2, r5
    2270:	e1a01006 	mov	r1, r6
    2274:	e59d0038 	ldr	r0, [sp, #56]	; 0x38
    2278:	eb001468 	bl	7420 <memchr>
    227c:	e2503000 	subs	r3, r0, #0
    2280:	e58d3030 	str	r3, [sp, #48]	; 0x30
    2284:	0a00078a 	beq	40b4 <_vfprintf_r+0x2518>
    2288:	e59d3030 	ldr	r3, [sp, #48]	; 0x30
    228c:	e59d2038 	ldr	r2, [sp, #56]	; 0x38
    2290:	e0433002 	sub	r3, r3, r2
    2294:	e58d3028 	str	r3, [sp, #40]	; 0x28
    2298:	e1c33fc3 	bic	r3, r3, r3, asr #31
    229c:	e1a05006 	mov	r5, r6
    22a0:	e58d4034 	str	r4, [sp, #52]	; 0x34
    22a4:	e5dd2083 	ldrb	r2, [sp, #131]	; 0x83
    22a8:	e58d301c 	str	r3, [sp, #28]
    22ac:	e58d6030 	str	r6, [sp, #48]	; 0x30
    22b0:	e58d6058 	str	r6, [sp, #88]	; 0x58
    22b4:	e58d6048 	str	r6, [sp, #72]	; 0x48
    22b8:	e58d6044 	str	r6, [sp, #68]	; 0x44
    22bc:	ea00004f 	b	2400 <_vfprintf_r+0x864>
    22c0:	e31a0020 	tst	sl, #32
    22c4:	e58d3040 	str	r3, [sp, #64]	; 0x40
    22c8:	e59d3034 	ldr	r3, [sp, #52]	; 0x34
    22cc:	0a00008c 	beq	2504 <_vfprintf_r+0x968>
    22d0:	e2833007 	add	r3, r3, #7
    22d4:	e3c33007 	bic	r3, r3, #7
    22d8:	e1a02003 	mov	r2, r3
    22dc:	e5933004 	ldr	r3, [r3, #4]
    22e0:	e1a06003 	mov	r6, r3
    22e4:	e4924008 	ldr	r4, [r2], #8
    22e8:	e58d2034 	str	r2, [sp, #52]	; 0x34
    22ec:	e3530000 	cmp	r3, #0
    22f0:	ba000334 	blt	2fc8 <_vfprintf_r+0x142c>
    22f4:	e3750001 	cmn	r5, #1
    22f8:	0a000273 	beq	2ccc <_vfprintf_r+0x1130>
    22fc:	e1843006 	orr	r3, r4, r6
    2300:	e3530000 	cmp	r3, #0
    2304:	03550000 	cmpeq	r5, #0
    2308:	e3caa080 	bic	sl, sl, #128	; 0x80
    230c:	13a03001 	movne	r3, #1
    2310:	03a03000 	moveq	r3, #0
    2314:	1a00026c 	bne	2ccc <_vfprintf_r+0x1130>
    2318:	e1a05003 	mov	r5, r3
    231c:	e28d3e15 	add	r3, sp, #336	; 0x150
    2320:	e58d3038 	str	r3, [sp, #56]	; 0x38
    2324:	e58d5028 	str	r5, [sp, #40]	; 0x28
    2328:	ea00002a 	b	23d8 <_vfprintf_r+0x83c>
    232c:	e59d3020 	ldr	r3, [sp, #32]
    2330:	e2633000 	rsb	r3, r3, #0
    2334:	e58d3020 	str	r3, [sp, #32]
    2338:	e5d83000 	ldrb	r3, [r8]
    233c:	e38aa004 	orr	sl, sl, #4
    2340:	eafffe7a 	b	1d30 <_vfprintf_r+0x194>
    2344:	e58d3040 	str	r3, [sp, #64]	; 0x40
    2348:	e38a3010 	orr	r3, sl, #16
    234c:	e58d301c 	str	r3, [sp, #28]
    2350:	e59d301c 	ldr	r3, [sp, #28]
    2354:	e2136020 	ands	r6, r3, #32
    2358:	0a000301 	beq	2f64 <_vfprintf_r+0x13c8>
    235c:	e3a02001 	mov	r2, #1
    2360:	e59d3034 	ldr	r3, [sp, #52]	; 0x34
    2364:	e2833007 	add	r3, r3, #7
    2368:	e3c33007 	bic	r3, r3, #7
    236c:	e5936004 	ldr	r6, [r3, #4]
    2370:	e4934008 	ldr	r4, [r3], #8
    2374:	e58d3034 	str	r3, [sp, #52]	; 0x34
    2378:	e3a03000 	mov	r3, #0
    237c:	e5cd3083 	strb	r3, [sp, #131]	; 0x83
    2380:	e3750001 	cmn	r5, #1
    2384:	0a000152 	beq	28d4 <_vfprintf_r+0xd38>
    2388:	e1843006 	orr	r3, r4, r6
    238c:	e3530000 	cmp	r3, #0
    2390:	03550000 	cmpeq	r5, #0
    2394:	e59d101c 	ldr	r1, [sp, #28]
    2398:	13a03001 	movne	r3, #1
    239c:	03a03000 	moveq	r3, #0
    23a0:	e3c1a080 	bic	sl, r1, #128	; 0x80
    23a4:	1a000149 	bne	28d0 <_vfprintf_r+0xd34>
    23a8:	e3520000 	cmp	r2, #0
    23ac:	1affffd9 	bne	2318 <_vfprintf_r+0x77c>
    23b0:	e59d301c 	ldr	r3, [sp, #28]
    23b4:	e2133001 	ands	r3, r3, #1
    23b8:	e58d3028 	str	r3, [sp, #40]	; 0x28
    23bc:	13a03030 	movne	r3, #48	; 0x30
    23c0:	e1a05002 	mov	r5, r2
    23c4:	15cd314f 	strbne	r3, [sp, #335]	; 0x14f
    23c8:	128d3f53 	addne	r3, sp, #332	; 0x14c
    23cc:	12833003 	addne	r3, r3, #3
    23d0:	028d3e15 	addeq	r3, sp, #336	; 0x150
    23d4:	e58d3038 	str	r3, [sp, #56]	; 0x38
    23d8:	e59d2028 	ldr	r2, [sp, #40]	; 0x28
    23dc:	e1550002 	cmp	r5, r2
    23e0:	e3a03000 	mov	r3, #0
    23e4:	a1a02005 	movge	r2, r5
    23e8:	e58d3030 	str	r3, [sp, #48]	; 0x30
    23ec:	e58d201c 	str	r2, [sp, #28]
    23f0:	e58d3058 	str	r3, [sp, #88]	; 0x58
    23f4:	e5dd2083 	ldrb	r2, [sp, #131]	; 0x83
    23f8:	e58d3048 	str	r3, [sp, #72]	; 0x48
    23fc:	e58d3044 	str	r3, [sp, #68]	; 0x44
    2400:	e3520000 	cmp	r2, #0
    2404:	0afffef1 	beq	1fd0 <_vfprintf_r+0x434>
    2408:	e59d301c 	ldr	r3, [sp, #28]
    240c:	e2833001 	add	r3, r3, #1
    2410:	e58d301c 	str	r3, [sp, #28]
    2414:	eafffeed 	b	1fd0 <_vfprintf_r+0x434>
    2418:	e3a0302b 	mov	r3, #43	; 0x2b
    241c:	e5cd3083 	strb	r3, [sp, #131]	; 0x83
    2420:	e5d83000 	ldrb	r3, [r8]
    2424:	eafffe41 	b	1d30 <_vfprintf_r+0x194>
    2428:	e5d83000 	ldrb	r3, [r8]
    242c:	e38aa080 	orr	sl, sl, #128	; 0x80
    2430:	eafffe3e 	b	1d30 <_vfprintf_r+0x194>
    2434:	e1a01008 	mov	r1, r8
    2438:	e4d13001 	ldrb	r3, [r1], #1
    243c:	e353002a 	cmp	r3, #42	; 0x2a
    2440:	0a0007f1 	beq	440c <_vfprintf_r+0x2870>
    2444:	e2432030 	sub	r2, r3, #48	; 0x30
    2448:	e3520009 	cmp	r2, #9
    244c:	e1a08001 	mov	r8, r1
    2450:	e3a05000 	mov	r5, #0
    2454:	8afffe36 	bhi	1d34 <_vfprintf_r+0x198>
    2458:	e4d83001 	ldrb	r3, [r8], #1
    245c:	e0855105 	add	r5, r5, r5, lsl #2
    2460:	e0825085 	add	r5, r2, r5, lsl #1
    2464:	e2432030 	sub	r2, r3, #48	; 0x30
    2468:	e3520009 	cmp	r2, #9
    246c:	9afffff9 	bls	2458 <_vfprintf_r+0x8bc>
    2470:	eafffe2f 	b	1d34 <_vfprintf_r+0x198>
    2474:	e58d3040 	str	r3, [sp, #64]	; 0x40
    2478:	e38aa010 	orr	sl, sl, #16
    247c:	e21a6020 	ands	r6, sl, #32
    2480:	0a0002c5 	beq	2f9c <_vfprintf_r+0x1400>
    2484:	e59d3034 	ldr	r3, [sp, #52]	; 0x34
    2488:	e2833007 	add	r3, r3, #7
    248c:	e3c33007 	bic	r3, r3, #7
    2490:	e5936004 	ldr	r6, [r3, #4]
    2494:	e4934008 	ldr	r4, [r3], #8
    2498:	e58d3034 	str	r3, [sp, #52]	; 0x34
    249c:	e3ca3b01 	bic	r3, sl, #1024	; 0x400
    24a0:	e3a02000 	mov	r2, #0
    24a4:	e58d301c 	str	r3, [sp, #28]
    24a8:	eaffffb2 	b	2378 <_vfprintf_r+0x7dc>
    24ac:	e5d83000 	ldrb	r3, [r8]
    24b0:	e3530068 	cmp	r3, #104	; 0x68
    24b4:	05d83001 	ldrbeq	r3, [r8, #1]
    24b8:	038aac02 	orreq	sl, sl, #512	; 0x200
    24bc:	02888001 	addeq	r8, r8, #1
    24c0:	138aa040 	orrne	sl, sl, #64	; 0x40
    24c4:	eafffe19 	b	1d30 <_vfprintf_r+0x194>
    24c8:	e5d83000 	ldrb	r3, [r8]
    24cc:	e353006c 	cmp	r3, #108	; 0x6c
    24d0:	05d83001 	ldrbeq	r3, [r8, #1]
    24d4:	038aa020 	orreq	sl, sl, #32
    24d8:	02888001 	addeq	r8, r8, #1
    24dc:	138aa010 	orrne	sl, sl, #16
    24e0:	eafffe12 	b	1d30 <_vfprintf_r+0x194>
    24e4:	e5d83000 	ldrb	r3, [r8]
    24e8:	e38aa008 	orr	sl, sl, #8
    24ec:	eafffe0f 	b	1d30 <_vfprintf_r+0x194>
    24f0:	e38aa010 	orr	sl, sl, #16
    24f4:	e31a0020 	tst	sl, #32
    24f8:	e58d3040 	str	r3, [sp, #64]	; 0x40
    24fc:	e59d3034 	ldr	r3, [sp, #52]	; 0x34
    2500:	1affff72 	bne	22d0 <_vfprintf_r+0x734>
    2504:	e31a0010 	tst	sl, #16
    2508:	e4934004 	ldr	r4, [r3], #4
    250c:	1a0002e0 	bne	3094 <_vfprintf_r+0x14f8>
    2510:	e31a0040 	tst	sl, #64	; 0x40
    2514:	0a0002dc 	beq	308c <_vfprintf_r+0x14f0>
    2518:	e1a04804 	lsl	r4, r4, #16
    251c:	e1a06fc4 	asr	r6, r4, #31
    2520:	e58d3034 	str	r3, [sp, #52]	; 0x34
    2524:	e1a04844 	asr	r4, r4, #16
    2528:	e1a03006 	mov	r3, r6
    252c:	eaffff6e 	b	22ec <_vfprintf_r+0x750>
    2530:	e1a0000b 	mov	r0, fp
    2534:	eb00115d 	bl	6ab0 <_localeconv_r>
    2538:	e5903004 	ldr	r3, [r0, #4]
    253c:	e1a00003 	mov	r0, r3
    2540:	e58d3070 	str	r3, [sp, #112]	; 0x70
    2544:	eb001741 	bl	8250 <strlen>
    2548:	e1a03000 	mov	r3, r0
    254c:	e1a0000b 	mov	r0, fp
    2550:	e1a06003 	mov	r6, r3
    2554:	e58d3078 	str	r3, [sp, #120]	; 0x78
    2558:	eb001154 	bl	6ab0 <_localeconv_r>
    255c:	e5902008 	ldr	r2, [r0, #8]
    2560:	e3560000 	cmp	r6, #0
    2564:	13520000 	cmpne	r2, #0
    2568:	e58d2074 	str	r2, [sp, #116]	; 0x74
    256c:	0afffe5f 	beq	1ef0 <_vfprintf_r+0x354>
    2570:	e59d3074 	ldr	r3, [sp, #116]	; 0x74
    2574:	e5d33000 	ldrb	r3, [r3]
    2578:	e3530000 	cmp	r3, #0
    257c:	0afffe5b 	beq	1ef0 <_vfprintf_r+0x354>
    2580:	e5d83000 	ldrb	r3, [r8]
    2584:	e38aab01 	orr	sl, sl, #1024	; 0x400
    2588:	eafffde8 	b	1d30 <_vfprintf_r+0x194>
    258c:	e5d83000 	ldrb	r3, [r8]
    2590:	e38aa001 	orr	sl, sl, #1
    2594:	eafffde5 	b	1d30 <_vfprintf_r+0x194>
    2598:	e5dd3083 	ldrb	r3, [sp, #131]	; 0x83
    259c:	e3530000 	cmp	r3, #0
    25a0:	1afffe52 	bne	1ef0 <_vfprintf_r+0x354>
    25a4:	e3a03020 	mov	r3, #32
    25a8:	e5cd3083 	strb	r3, [sp, #131]	; 0x83
    25ac:	e5d83000 	ldrb	r3, [r8]
    25b0:	eafffdde 	b	1d30 <_vfprintf_r+0x194>
    25b4:	e38a2002 	orr	r2, sl, #2
    25b8:	e3a01030 	mov	r1, #48	; 0x30
    25bc:	e58d201c 	str	r2, [sp, #28]
    25c0:	e3a02078 	mov	r2, #120	; 0x78
    25c4:	e59d3034 	ldr	r3, [sp, #52]	; 0x34
    25c8:	e4934004 	ldr	r4, [r3], #4
    25cc:	e58d3034 	str	r3, [sp, #52]	; 0x34
    25d0:	e59f3b24 	ldr	r3, [pc, #2852]	; 30fc <_vfprintf_r+0x1560>
    25d4:	e5cd2085 	strb	r2, [sp, #133]	; 0x85
    25d8:	e58d2040 	str	r2, [sp, #64]	; 0x40
    25dc:	e3a06000 	mov	r6, #0
    25e0:	e3a02002 	mov	r2, #2
    25e4:	e5cd1084 	strb	r1, [sp, #132]	; 0x84
    25e8:	e58d3068 	str	r3, [sp, #104]	; 0x68
    25ec:	eaffff61 	b	2378 <_vfprintf_r+0x7dc>
    25f0:	e31a0020 	tst	sl, #32
    25f4:	1a0002aa 	bne	30a4 <_vfprintf_r+0x1508>
    25f8:	e31a0010 	tst	sl, #16
    25fc:	1a000414 	bne	3654 <_vfprintf_r+0x1ab8>
    2600:	e31a0040 	tst	sl, #64	; 0x40
    2604:	1a000516 	bne	3a64 <_vfprintf_r+0x1ec8>
    2608:	e31a0c02 	tst	sl, #512	; 0x200
    260c:	0a000410 	beq	3654 <_vfprintf_r+0x1ab8>
    2610:	e59d3034 	ldr	r3, [sp, #52]	; 0x34
    2614:	e59d1024 	ldr	r1, [sp, #36]	; 0x24
    2618:	e4932004 	ldr	r2, [r3], #4
    261c:	e5c21000 	strb	r1, [r2]
    2620:	e58d3034 	str	r3, [sp, #52]	; 0x34
    2624:	eafffd9c 	b	1c9c <_vfprintf_r+0x100>
    2628:	e59d3040 	ldr	r3, [sp, #64]	; 0x40
    262c:	e3530065 	cmp	r3, #101	; 0x65
    2630:	da0000dc 	ble	29a8 <_vfprintf_r+0xe0c>
    2634:	e3a02000 	mov	r2, #0
    2638:	e3a03000 	mov	r3, #0
    263c:	e28d1050 	add	r1, sp, #80	; 0x50
    2640:	e8910003 	ldm	r1, {r0, r1}
    2644:	eb002476 	bl	b824 <__aeabi_dcmpeq>
    2648:	e3500000 	cmp	r0, #0
    264c:	0a0001ab 	beq	2d00 <_vfprintf_r+0x1164>
    2650:	e3a03001 	mov	r3, #1
    2654:	e5893004 	str	r3, [r9, #4]
    2658:	e59d30a4 	ldr	r3, [sp, #164]	; 0xa4
    265c:	e2833001 	add	r3, r3, #1
    2660:	e3530007 	cmp	r3, #7
    2664:	e58d30a4 	str	r3, [sp, #164]	; 0xa4
    2668:	e59f3a80 	ldr	r3, [pc, #2688]	; 30f0 <_vfprintf_r+0x1554>
    266c:	e2844001 	add	r4, r4, #1
    2670:	e5893000 	str	r3, [r9]
    2674:	e58d40a8 	str	r4, [sp, #168]	; 0xa8
    2678:	d2899008 	addle	r9, r9, #8
    267c:	ca0003a7 	bgt	3520 <_vfprintf_r+0x1984>
    2680:	e59d3088 	ldr	r3, [sp, #136]	; 0x88
    2684:	e59d204c 	ldr	r2, [sp, #76]	; 0x4c
    2688:	e1530002 	cmp	r3, r2
    268c:	aa000254 	bge	2fe4 <_vfprintf_r+0x1448>
    2690:	e59d305c 	ldr	r3, [sp, #92]	; 0x5c
    2694:	e59d2060 	ldr	r2, [sp, #96]	; 0x60
    2698:	e0844003 	add	r4, r4, r3
    269c:	e889000c 	stm	r9, {r2, r3}
    26a0:	e59d30a4 	ldr	r3, [sp, #164]	; 0xa4
    26a4:	e2833001 	add	r3, r3, #1
    26a8:	e3530007 	cmp	r3, #7
    26ac:	e58d40a8 	str	r4, [sp, #168]	; 0xa8
    26b0:	e58d30a4 	str	r3, [sp, #164]	; 0xa4
    26b4:	d2899008 	addle	r9, r9, #8
    26b8:	ca000343 	bgt	33cc <_vfprintf_r+0x1830>
    26bc:	e59d304c 	ldr	r3, [sp, #76]	; 0x4c
    26c0:	e2435001 	sub	r5, r3, #1
    26c4:	e3550000 	cmp	r5, #0
    26c8:	dafffe7e 	ble	20c8 <_vfprintf_r+0x52c>
    26cc:	e3550010 	cmp	r5, #16
    26d0:	da00039b 	ble	3544 <_vfprintf_r+0x19a8>
    26d4:	e3a06010 	mov	r6, #16
    26d8:	e59d30a4 	ldr	r3, [sp, #164]	; 0xa4
    26dc:	ea000002 	b	26ec <_vfprintf_r+0xb50>
    26e0:	e2455010 	sub	r5, r5, #16
    26e4:	e3550010 	cmp	r5, #16
    26e8:	da000396 	ble	3548 <_vfprintf_r+0x19ac>
    26ec:	e2833001 	add	r3, r3, #1
    26f0:	e59f2a14 	ldr	r2, [pc, #2580]	; 310c <_vfprintf_r+0x1570>
    26f4:	e3530007 	cmp	r3, #7
    26f8:	e2844010 	add	r4, r4, #16
    26fc:	e8890044 	stm	r9, {r2, r6}
    2700:	e58d40a8 	str	r4, [sp, #168]	; 0xa8
    2704:	e58d30a4 	str	r3, [sp, #164]	; 0xa4
    2708:	d2899008 	addle	r9, r9, #8
    270c:	dafffff3 	ble	26e0 <_vfprintf_r+0xb44>
    2710:	e1a01007 	mov	r1, r7
    2714:	e1a0000b 	mov	r0, fp
    2718:	e28d20a0 	add	r2, sp, #160	; 0xa0
    271c:	eb001741 	bl	8428 <__sprint_r>
    2720:	e3500000 	cmp	r0, #0
    2724:	1a00008c 	bne	295c <_vfprintf_r+0xdc0>
    2728:	e28d30a4 	add	r3, sp, #164	; 0xa4
    272c:	e8930018 	ldm	r3, {r3, r4}
    2730:	e28d90ac 	add	r9, sp, #172	; 0xac
    2734:	eaffffe9 	b	26e0 <_vfprintf_r+0xb44>
    2738:	e28d201c 	add	r2, sp, #28
    273c:	e892000c 	ldm	r2, {r2, r3}
    2740:	e0436002 	sub	r6, r3, r2
    2744:	e3560000 	cmp	r6, #0
    2748:	dafffe4c 	ble	2080 <_vfprintf_r+0x4e4>
    274c:	e3560010 	cmp	r6, #16
    2750:	e59d30a4 	ldr	r3, [sp, #164]	; 0xa4
    2754:	ca000003 	bgt	2768 <_vfprintf_r+0xbcc>
    2758:	ea000019 	b	27c4 <_vfprintf_r+0xc28>
    275c:	e2466010 	sub	r6, r6, #16
    2760:	e3560010 	cmp	r6, #16
    2764:	da000016 	ble	27c4 <_vfprintf_r+0xc28>
    2768:	e59f299c 	ldr	r2, [pc, #2460]	; 310c <_vfprintf_r+0x1570>
    276c:	e5892000 	str	r2, [r9]
    2770:	e3a02010 	mov	r2, #16
    2774:	e2833001 	add	r3, r3, #1
    2778:	e3530007 	cmp	r3, #7
    277c:	e2844010 	add	r4, r4, #16
    2780:	e5892004 	str	r2, [r9, #4]
    2784:	e58d40a8 	str	r4, [sp, #168]	; 0xa8
    2788:	e58d30a4 	str	r3, [sp, #164]	; 0xa4
    278c:	d2899008 	addle	r9, r9, #8
    2790:	dafffff1 	ble	275c <_vfprintf_r+0xbc0>
    2794:	e1a01007 	mov	r1, r7
    2798:	e1a0000b 	mov	r0, fp
    279c:	e28d20a0 	add	r2, sp, #160	; 0xa0
    27a0:	eb001720 	bl	8428 <__sprint_r>
    27a4:	e3500000 	cmp	r0, #0
    27a8:	1a00006b 	bne	295c <_vfprintf_r+0xdc0>
    27ac:	e2466010 	sub	r6, r6, #16
    27b0:	e28d30a4 	add	r3, sp, #164	; 0xa4
    27b4:	e3560010 	cmp	r6, #16
    27b8:	e8930018 	ldm	r3, {r3, r4}
    27bc:	e28d90ac 	add	r9, sp, #172	; 0xac
    27c0:	caffffe8 	bgt	2768 <_vfprintf_r+0xbcc>
    27c4:	e2833001 	add	r3, r3, #1
    27c8:	e3530007 	cmp	r3, #7
    27cc:	e58d30a4 	str	r3, [sp, #164]	; 0xa4
    27d0:	e59f3934 	ldr	r3, [pc, #2356]	; 310c <_vfprintf_r+0x1570>
    27d4:	e0844006 	add	r4, r4, r6
    27d8:	e5896004 	str	r6, [r9, #4]
    27dc:	e5893000 	str	r3, [r9]
    27e0:	e58d40a8 	str	r4, [sp, #168]	; 0xa8
    27e4:	d2899008 	addle	r9, r9, #8
    27e8:	dafffe24 	ble	2080 <_vfprintf_r+0x4e4>
    27ec:	e1a01007 	mov	r1, r7
    27f0:	e1a0000b 	mov	r0, fp
    27f4:	e28d20a0 	add	r2, sp, #160	; 0xa0
    27f8:	eb00170a 	bl	8428 <__sprint_r>
    27fc:	e3500000 	cmp	r0, #0
    2800:	1a000055 	bne	295c <_vfprintf_r+0xdc0>
    2804:	e59d40a8 	ldr	r4, [sp, #168]	; 0xa8
    2808:	e28d90ac 	add	r9, sp, #172	; 0xac
    280c:	eafffe1b 	b	2080 <_vfprintf_r+0x4e4>
    2810:	e3550010 	cmp	r5, #16
    2814:	da0003ed 	ble	37d0 <_vfprintf_r+0x1c34>
    2818:	e3a06010 	mov	r6, #16
    281c:	e59d30a4 	ldr	r3, [sp, #164]	; 0xa4
    2820:	ea000002 	b	2830 <_vfprintf_r+0xc94>
    2824:	e2455010 	sub	r5, r5, #16
    2828:	e3550010 	cmp	r5, #16
    282c:	da000014 	ble	2884 <_vfprintf_r+0xce8>
    2830:	e2833001 	add	r3, r3, #1
    2834:	e59f28d0 	ldr	r2, [pc, #2256]	; 310c <_vfprintf_r+0x1570>
    2838:	e3530007 	cmp	r3, #7
    283c:	e2844010 	add	r4, r4, #16
    2840:	e8890044 	stm	r9, {r2, r6}
    2844:	e58d40a8 	str	r4, [sp, #168]	; 0xa8
    2848:	e58d30a4 	str	r3, [sp, #164]	; 0xa4
    284c:	d2899008 	addle	r9, r9, #8
    2850:	dafffff3 	ble	2824 <_vfprintf_r+0xc88>
    2854:	e1a01007 	mov	r1, r7
    2858:	e1a0000b 	mov	r0, fp
    285c:	e28d20a0 	add	r2, sp, #160	; 0xa0
    2860:	eb0016f0 	bl	8428 <__sprint_r>
    2864:	e3500000 	cmp	r0, #0
    2868:	1a00003b 	bne	295c <_vfprintf_r+0xdc0>
    286c:	e2455010 	sub	r5, r5, #16
    2870:	e28d30a4 	add	r3, sp, #164	; 0xa4
    2874:	e3550010 	cmp	r5, #16
    2878:	e8930018 	ldm	r3, {r3, r4}
    287c:	e28d90ac 	add	r9, sp, #172	; 0xac
    2880:	caffffea 	bgt	2830 <_vfprintf_r+0xc94>
    2884:	e2833001 	add	r3, r3, #1
    2888:	e3530007 	cmp	r3, #7
    288c:	e58d30a4 	str	r3, [sp, #164]	; 0xa4
    2890:	e59f3874 	ldr	r3, [pc, #2164]	; 310c <_vfprintf_r+0x1570>
    2894:	e0844005 	add	r4, r4, r5
    2898:	e5895004 	str	r5, [r9, #4]
    289c:	e5893000 	str	r3, [r9]
    28a0:	e58d40a8 	str	r4, [sp, #168]	; 0xa8
    28a4:	d2899008 	addle	r9, r9, #8
    28a8:	dafffdf8 	ble	2090 <_vfprintf_r+0x4f4>
    28ac:	e1a01007 	mov	r1, r7
    28b0:	e1a0000b 	mov	r0, fp
    28b4:	e28d20a0 	add	r2, sp, #160	; 0xa0
    28b8:	eb0016da 	bl	8428 <__sprint_r>
    28bc:	e3500000 	cmp	r0, #0
    28c0:	1a000025 	bne	295c <_vfprintf_r+0xdc0>
    28c4:	e59d40a8 	ldr	r4, [sp, #168]	; 0xa8
    28c8:	e28d90ac 	add	r9, sp, #172	; 0xac
    28cc:	eafffdef 	b	2090 <_vfprintf_r+0x4f4>
    28d0:	e58da01c 	str	sl, [sp, #28]
    28d4:	e3520001 	cmp	r2, #1
    28d8:	0a0000fc 	beq	2cd0 <_vfprintf_r+0x1134>
    28dc:	e3520002 	cmp	r2, #2
    28e0:	e28d3e15 	add	r3, sp, #336	; 0x150
    28e4:	0a0000ba 	beq	2bd4 <_vfprintf_r+0x1038>
    28e8:	e1a01003 	mov	r1, r3
    28ec:	e1a021a4 	lsr	r2, r4, #3
    28f0:	e2043007 	and	r3, r4, #7
    28f4:	e1824e86 	orr	r4, r2, r6, lsl #29
    28f8:	e1a061a6 	lsr	r6, r6, #3
    28fc:	e2833030 	add	r3, r3, #48	; 0x30
    2900:	e1942006 	orrs	r2, r4, r6
    2904:	e1a02001 	mov	r2, r1
    2908:	e5613001 	strb	r3, [r1, #-1]!
    290c:	1afffff6 	bne	28ec <_vfprintf_r+0xd50>
    2910:	e59da01c 	ldr	sl, [sp, #28]
    2914:	e1a00001 	mov	r0, r1
    2918:	e58d1038 	str	r1, [sp, #56]	; 0x38
    291c:	e1a0100a 	mov	r1, sl
    2920:	e3530030 	cmp	r3, #48	; 0x30
    2924:	03a01000 	moveq	r1, #0
    2928:	12011001 	andne	r1, r1, #1
    292c:	e3510000 	cmp	r1, #0
    2930:	1a0002f0 	bne	34f8 <_vfprintf_r+0x195c>
    2934:	e28d3e15 	add	r3, sp, #336	; 0x150
    2938:	e0433000 	sub	r3, r3, r0
    293c:	e58d3028 	str	r3, [sp, #40]	; 0x28
    2940:	eafffea4 	b	23d8 <_vfprintf_r+0x83c>
    2944:	e1a01007 	mov	r1, r7
    2948:	e1a0000b 	mov	r0, fp
    294c:	e28d20a0 	add	r2, sp, #160	; 0xa0
    2950:	eb0016b4 	bl	8428 <__sprint_r>
    2954:	e3500000 	cmp	r0, #0
    2958:	0afffde9 	beq	2104 <_vfprintf_r+0x568>
    295c:	e1a03007 	mov	r3, r7
    2960:	e1a0700b 	mov	r7, fp
    2964:	e1a0b003 	mov	fp, r3
    2968:	e59d1030 	ldr	r1, [sp, #48]	; 0x30
    296c:	e3510000 	cmp	r1, #0
    2970:	11a00007 	movne	r0, r7
    2974:	1b000f74 	blne	674c <_free_r>
    2978:	e59b3064 	ldr	r3, [fp, #100]	; 0x64
    297c:	e3130001 	tst	r3, #1
    2980:	e1db30bc 	ldrh	r3, [fp, #12]
    2984:	1a000001 	bne	2990 <_vfprintf_r+0xdf4>
    2988:	e3130c02 	tst	r3, #512	; 0x200
    298c:	0a0002c0 	beq	3494 <_vfprintf_r+0x18f8>
    2990:	e3130040 	tst	r3, #64	; 0x40
    2994:	1a00061e 	bne	4214 <_vfprintf_r+0x2678>
    2998:	e59d0024 	ldr	r0, [sp, #36]	; 0x24
    299c:	e28ddf55 	add	sp, sp, #340	; 0x154
    29a0:	e8bd4ff0 	pop	{r4, r5, r6, r7, r8, r9, sl, fp, lr}
    29a4:	e12fff1e 	bx	lr
    29a8:	e59d304c 	ldr	r3, [sp, #76]	; 0x4c
    29ac:	e3530001 	cmp	r3, #1
    29b0:	da000135 	ble	2e8c <_vfprintf_r+0x12f0>
    29b4:	e59d3038 	ldr	r3, [sp, #56]	; 0x38
    29b8:	e5893000 	str	r3, [r9]
    29bc:	e3a03001 	mov	r3, #1
    29c0:	e59d50a4 	ldr	r5, [sp, #164]	; 0xa4
    29c4:	e0855003 	add	r5, r5, r3
    29c8:	e2844001 	add	r4, r4, #1
    29cc:	e3550007 	cmp	r5, #7
    29d0:	e5893004 	str	r3, [r9, #4]
    29d4:	e58d40a8 	str	r4, [sp, #168]	; 0xa8
    29d8:	e58d50a4 	str	r5, [sp, #164]	; 0xa4
    29dc:	d2899008 	addle	r9, r9, #8
    29e0:	ca0002a1 	bgt	346c <_vfprintf_r+0x18d0>
    29e4:	e59d305c 	ldr	r3, [sp, #92]	; 0x5c
    29e8:	e2855001 	add	r5, r5, #1
    29ec:	e59d2060 	ldr	r2, [sp, #96]	; 0x60
    29f0:	e0834004 	add	r4, r3, r4
    29f4:	e3550007 	cmp	r5, #7
    29f8:	e889000c 	stm	r9, {r2, r3}
    29fc:	e58d40a8 	str	r4, [sp, #168]	; 0xa8
    2a00:	e58d50a4 	str	r5, [sp, #164]	; 0xa4
    2a04:	d2899008 	addle	r9, r9, #8
    2a08:	ca00028d 	bgt	3444 <_vfprintf_r+0x18a8>
    2a0c:	e3a02000 	mov	r2, #0
    2a10:	e3a03000 	mov	r3, #0
    2a14:	e28d1050 	add	r1, sp, #80	; 0x50
    2a18:	e8910003 	ldm	r1, {r0, r1}
    2a1c:	eb002380 	bl	b824 <__aeabi_dcmpeq>
    2a20:	e3500000 	cmp	r0, #0
    2a24:	1a00012f 	bne	2ee8 <_vfprintf_r+0x134c>
    2a28:	e59d3038 	ldr	r3, [sp, #56]	; 0x38
    2a2c:	e2833001 	add	r3, r3, #1
    2a30:	e5893000 	str	r3, [r9]
    2a34:	e59d304c 	ldr	r3, [sp, #76]	; 0x4c
    2a38:	e2855001 	add	r5, r5, #1
    2a3c:	e2433001 	sub	r3, r3, #1
    2a40:	e0844003 	add	r4, r4, r3
    2a44:	e3550007 	cmp	r5, #7
    2a48:	e58d50a4 	str	r5, [sp, #164]	; 0xa4
    2a4c:	e5893004 	str	r3, [r9, #4]
    2a50:	e58d40a8 	str	r4, [sp, #168]	; 0xa8
    2a54:	ca000119 	bgt	2ec0 <_vfprintf_r+0x1324>
    2a58:	e2899008 	add	r9, r9, #8
    2a5c:	e59d306c 	ldr	r3, [sp, #108]	; 0x6c
    2a60:	e2855001 	add	r5, r5, #1
    2a64:	e0834004 	add	r4, r3, r4
    2a68:	e5893004 	str	r3, [r9, #4]
    2a6c:	e3550007 	cmp	r5, #7
    2a70:	e28d3090 	add	r3, sp, #144	; 0x90
    2a74:	e58d50a4 	str	r5, [sp, #164]	; 0xa4
    2a78:	e58d40a8 	str	r4, [sp, #168]	; 0xa8
    2a7c:	e5893000 	str	r3, [r9]
    2a80:	dafffd8f 	ble	20c4 <_vfprintf_r+0x528>
    2a84:	e1a01007 	mov	r1, r7
    2a88:	e1a0000b 	mov	r0, fp
    2a8c:	e28d20a0 	add	r2, sp, #160	; 0xa0
    2a90:	eb001664 	bl	8428 <__sprint_r>
    2a94:	e3500000 	cmp	r0, #0
    2a98:	1affffaf 	bne	295c <_vfprintf_r+0xdc0>
    2a9c:	e59d40a8 	ldr	r4, [sp, #168]	; 0xa8
    2aa0:	e28d90ac 	add	r9, sp, #172	; 0xac
    2aa4:	eafffd87 	b	20c8 <_vfprintf_r+0x52c>
    2aa8:	e3560010 	cmp	r6, #16
    2aac:	da000589 	ble	40d8 <_vfprintf_r+0x253c>
    2ab0:	e59fc658 	ldr	ip, [pc, #1624]	; 3110 <_vfprintf_r+0x1574>
    2ab4:	e59d10a8 	ldr	r1, [sp, #168]	; 0xa8
    2ab8:	e58d807c 	str	r8, [sp, #124]	; 0x7c
    2abc:	e3a04010 	mov	r4, #16
    2ac0:	e1a08003 	mov	r8, r3
    2ac4:	e1a00001 	mov	r0, r1
    2ac8:	e1a03009 	mov	r3, r9
    2acc:	e59d20a4 	ldr	r2, [sp, #164]	; 0xa4
    2ad0:	e1a09005 	mov	r9, r5
    2ad4:	e58dc064 	str	ip, [sp, #100]	; 0x64
    2ad8:	e1a0500c 	mov	r5, ip
    2adc:	ea000002 	b	2aec <_vfprintf_r+0xf50>
    2ae0:	e2466010 	sub	r6, r6, #16
    2ae4:	e3560010 	cmp	r6, #16
    2ae8:	da000014 	ble	2b40 <_vfprintf_r+0xfa4>
    2aec:	e2822001 	add	r2, r2, #1
    2af0:	e2800010 	add	r0, r0, #16
    2af4:	e3520007 	cmp	r2, #7
    2af8:	e5835000 	str	r5, [r3]
    2afc:	e5834004 	str	r4, [r3, #4]
    2b00:	e58d00a8 	str	r0, [sp, #168]	; 0xa8
    2b04:	e58d20a4 	str	r2, [sp, #164]	; 0xa4
    2b08:	d2833008 	addle	r3, r3, #8
    2b0c:	dafffff3 	ble	2ae0 <_vfprintf_r+0xf44>
    2b10:	e1a01007 	mov	r1, r7
    2b14:	e1a0000b 	mov	r0, fp
    2b18:	e28d20a0 	add	r2, sp, #160	; 0xa0
    2b1c:	eb001641 	bl	8428 <__sprint_r>
    2b20:	e3500000 	cmp	r0, #0
    2b24:	1affff8c 	bne	295c <_vfprintf_r+0xdc0>
    2b28:	e2466010 	sub	r6, r6, #16
    2b2c:	e3560010 	cmp	r6, #16
    2b30:	e59d00a8 	ldr	r0, [sp, #168]	; 0xa8
    2b34:	e59d20a4 	ldr	r2, [sp, #164]	; 0xa4
    2b38:	e28d30ac 	add	r3, sp, #172	; 0xac
    2b3c:	caffffea 	bgt	2aec <_vfprintf_r+0xf50>
    2b40:	e1a01000 	mov	r1, r0
    2b44:	e1a05009 	mov	r5, r9
    2b48:	e1a09003 	mov	r9, r3
    2b4c:	e1a03008 	mov	r3, r8
    2b50:	e59d807c 	ldr	r8, [sp, #124]	; 0x7c
    2b54:	e2822001 	add	r2, r2, #1
    2b58:	e59d0064 	ldr	r0, [sp, #100]	; 0x64
    2b5c:	e0864001 	add	r4, r6, r1
    2b60:	e3520007 	cmp	r2, #7
    2b64:	e5890000 	str	r0, [r9]
    2b68:	e5896004 	str	r6, [r9, #4]
    2b6c:	e58d20a4 	str	r2, [sp, #164]	; 0xa4
    2b70:	e58d40a8 	str	r4, [sp, #168]	; 0xa8
    2b74:	ca00024a 	bgt	34a4 <_vfprintf_r+0x1908>
    2b78:	e5dd2083 	ldrb	r2, [sp, #131]	; 0x83
    2b7c:	e2899008 	add	r9, r9, #8
    2b80:	eafffd1f 	b	2004 <_vfprintf_r+0x468>
    2b84:	e1a01007 	mov	r1, r7
    2b88:	e1a0000b 	mov	r0, fp
    2b8c:	e28d20a0 	add	r2, sp, #160	; 0xa0
    2b90:	e58d3064 	str	r3, [sp, #100]	; 0x64
    2b94:	eb001623 	bl	8428 <__sprint_r>
    2b98:	e3500000 	cmp	r0, #0
    2b9c:	1affff6e 	bne	295c <_vfprintf_r+0xdc0>
    2ba0:	e59d40a8 	ldr	r4, [sp, #168]	; 0xa8
    2ba4:	e59d3064 	ldr	r3, [sp, #100]	; 0x64
    2ba8:	e28d90ac 	add	r9, sp, #172	; 0xac
    2bac:	eafffd22 	b	203c <_vfprintf_r+0x4a0>
    2bb0:	e1a01007 	mov	r1, r7
    2bb4:	e1a0000b 	mov	r0, fp
    2bb8:	e28d20a0 	add	r2, sp, #160	; 0xa0
    2bbc:	eb001619 	bl	8428 <__sprint_r>
    2bc0:	e3500000 	cmp	r0, #0
    2bc4:	1affff64 	bne	295c <_vfprintf_r+0xdc0>
    2bc8:	e59d40a8 	ldr	r4, [sp, #168]	; 0xa8
    2bcc:	e28d90ac 	add	r9, sp, #172	; 0xac
    2bd0:	eafffd27 	b	2074 <_vfprintf_r+0x4d8>
    2bd4:	e59d1068 	ldr	r1, [sp, #104]	; 0x68
    2bd8:	e204200f 	and	r2, r4, #15
    2bdc:	e7d12002 	ldrb	r2, [r1, r2]
    2be0:	e1a04224 	lsr	r4, r4, #4
    2be4:	e1844e06 	orr	r4, r4, r6, lsl #28
    2be8:	e1a06226 	lsr	r6, r6, #4
    2bec:	e5632001 	strb	r2, [r3, #-1]!
    2bf0:	e1942006 	orrs	r2, r4, r6
    2bf4:	1afffff7 	bne	2bd8 <_vfprintf_r+0x103c>
    2bf8:	e28d2e15 	add	r2, sp, #336	; 0x150
    2bfc:	e58d3038 	str	r3, [sp, #56]	; 0x38
    2c00:	e0423003 	sub	r3, r2, r3
    2c04:	e59da01c 	ldr	sl, [sp, #28]
    2c08:	e58d3028 	str	r3, [sp, #40]	; 0x28
    2c0c:	eafffdf1 	b	23d8 <_vfprintf_r+0x83c>
    2c10:	e3550010 	cmp	r5, #16
    2c14:	da00056c 	ble	41cc <_vfprintf_r+0x2630>
    2c18:	e59fa4f0 	ldr	sl, [pc, #1264]	; 3110 <_vfprintf_r+0x1574>
    2c1c:	e3a06010 	mov	r6, #16
    2c20:	e59d30a4 	ldr	r3, [sp, #164]	; 0xa4
    2c24:	e58da064 	str	sl, [sp, #100]	; 0x64
    2c28:	ea000002 	b	2c38 <_vfprintf_r+0x109c>
    2c2c:	e2455010 	sub	r5, r5, #16
    2c30:	e3550010 	cmp	r5, #16
    2c34:	da000014 	ble	2c8c <_vfprintf_r+0x10f0>
    2c38:	e2833001 	add	r3, r3, #1
    2c3c:	e3530007 	cmp	r3, #7
    2c40:	e2844010 	add	r4, r4, #16
    2c44:	e589a000 	str	sl, [r9]
    2c48:	e5896004 	str	r6, [r9, #4]
    2c4c:	e58d40a8 	str	r4, [sp, #168]	; 0xa8
    2c50:	e58d30a4 	str	r3, [sp, #164]	; 0xa4
    2c54:	d2899008 	addle	r9, r9, #8
    2c58:	dafffff3 	ble	2c2c <_vfprintf_r+0x1090>
    2c5c:	e1a01007 	mov	r1, r7
    2c60:	e1a0000b 	mov	r0, fp
    2c64:	e28d20a0 	add	r2, sp, #160	; 0xa0
    2c68:	eb0015ee 	bl	8428 <__sprint_r>
    2c6c:	e3500000 	cmp	r0, #0
    2c70:	1affff39 	bne	295c <_vfprintf_r+0xdc0>
    2c74:	e2455010 	sub	r5, r5, #16
    2c78:	e28d30a4 	add	r3, sp, #164	; 0xa4
    2c7c:	e3550010 	cmp	r5, #16
    2c80:	e8930018 	ldm	r3, {r3, r4}
    2c84:	e28d90ac 	add	r9, sp, #172	; 0xac
    2c88:	caffffea 	bgt	2c38 <_vfprintf_r+0x109c>
    2c8c:	e2833001 	add	r3, r3, #1
    2c90:	e59d2064 	ldr	r2, [sp, #100]	; 0x64
    2c94:	e0844005 	add	r4, r4, r5
    2c98:	e3530007 	cmp	r3, #7
    2c9c:	e8890024 	stm	r9, {r2, r5}
    2ca0:	e58d30a4 	str	r3, [sp, #164]	; 0xa4
    2ca4:	e58d40a8 	str	r4, [sp, #168]	; 0xa8
    2ca8:	dafffd0d 	ble	20e4 <_vfprintf_r+0x548>
    2cac:	e1a01007 	mov	r1, r7
    2cb0:	e1a0000b 	mov	r0, fp
    2cb4:	e28d20a0 	add	r2, sp, #160	; 0xa0
    2cb8:	eb0015da 	bl	8428 <__sprint_r>
    2cbc:	e3500000 	cmp	r0, #0
    2cc0:	1affff25 	bne	295c <_vfprintf_r+0xdc0>
    2cc4:	e59d40a8 	ldr	r4, [sp, #168]	; 0xa8
    2cc8:	eafffd05 	b	20e4 <_vfprintf_r+0x548>
    2ccc:	e58da01c 	str	sl, [sp, #28]
    2cd0:	e354000a 	cmp	r4, #10
    2cd4:	e2d63000 	sbcs	r3, r6, #0
    2cd8:	2a000224 	bcs	3570 <_vfprintf_r+0x19d4>
    2cdc:	e3a03001 	mov	r3, #1
    2ce0:	e58d3028 	str	r3, [sp, #40]	; 0x28
    2ce4:	e28d3f53 	add	r3, sp, #332	; 0x14c
    2ce8:	e2844030 	add	r4, r4, #48	; 0x30
    2cec:	e2833003 	add	r3, r3, #3
    2cf0:	e5cd414f 	strb	r4, [sp, #335]	; 0x14f
    2cf4:	e59da01c 	ldr	sl, [sp, #28]
    2cf8:	e58d3038 	str	r3, [sp, #56]	; 0x38
    2cfc:	eafffdb5 	b	23d8 <_vfprintf_r+0x83c>
    2d00:	e59d5088 	ldr	r5, [sp, #136]	; 0x88
    2d04:	e3550000 	cmp	r5, #0
    2d08:	da0000b8 	ble	2ff0 <_vfprintf_r+0x1454>
    2d0c:	e59d3044 	ldr	r3, [sp, #68]	; 0x44
    2d10:	e59d204c 	ldr	r2, [sp, #76]	; 0x4c
    2d14:	e1530002 	cmp	r3, r2
    2d18:	b1a06003 	movlt	r6, r3
    2d1c:	a1a06002 	movge	r6, r2
    2d20:	e3560000 	cmp	r6, #0
    2d24:	da000009 	ble	2d50 <_vfprintf_r+0x11b4>
    2d28:	e59d3038 	ldr	r3, [sp, #56]	; 0x38
    2d2c:	e8890048 	stm	r9, {r3, r6}
    2d30:	e59d30a4 	ldr	r3, [sp, #164]	; 0xa4
    2d34:	e2833001 	add	r3, r3, #1
    2d38:	e0844006 	add	r4, r4, r6
    2d3c:	e3530007 	cmp	r3, #7
    2d40:	e58d40a8 	str	r4, [sp, #168]	; 0xa8
    2d44:	e58d30a4 	str	r3, [sp, #164]	; 0xa4
    2d48:	d2899008 	addle	r9, r9, #8
    2d4c:	ca00047c 	bgt	3f44 <_vfprintf_r+0x23a8>
    2d50:	e59d5044 	ldr	r5, [sp, #68]	; 0x44
    2d54:	e3560000 	cmp	r6, #0
    2d58:	a0455006 	subge	r5, r5, r6
    2d5c:	e3550000 	cmp	r5, #0
    2d60:	ca000254 	bgt	36b8 <_vfprintf_r+0x1b1c>
    2d64:	e59d3038 	ldr	r3, [sp, #56]	; 0x38
    2d68:	e59d2044 	ldr	r2, [sp, #68]	; 0x44
    2d6c:	e31a0b01 	tst	sl, #1024	; 0x400
    2d70:	e0833002 	add	r3, r3, r2
    2d74:	e58d303c 	str	r3, [sp, #60]	; 0x3c
    2d78:	1a0003e8 	bne	3d20 <_vfprintf_r+0x2184>
    2d7c:	e59d5088 	ldr	r5, [sp, #136]	; 0x88
    2d80:	e59d304c 	ldr	r3, [sp, #76]	; 0x4c
    2d84:	e1550003 	cmp	r5, r3
    2d88:	ba000001 	blt	2d94 <_vfprintf_r+0x11f8>
    2d8c:	e31a0001 	tst	sl, #1
    2d90:	0a00032a 	beq	3a40 <_vfprintf_r+0x1ea4>
    2d94:	e59d305c 	ldr	r3, [sp, #92]	; 0x5c
    2d98:	e59d2060 	ldr	r2, [sp, #96]	; 0x60
    2d9c:	e0844003 	add	r4, r4, r3
    2da0:	e889000c 	stm	r9, {r2, r3}
    2da4:	e59d30a4 	ldr	r3, [sp, #164]	; 0xa4
    2da8:	e2833001 	add	r3, r3, #1
    2dac:	e3530007 	cmp	r3, #7
    2db0:	e58d40a8 	str	r4, [sp, #168]	; 0xa8
    2db4:	e58d30a4 	str	r3, [sp, #164]	; 0xa4
    2db8:	d2899008 	addle	r9, r9, #8
    2dbc:	ca00048c 	bgt	3ff4 <_vfprintf_r+0x2458>
    2dc0:	e59d2038 	ldr	r2, [sp, #56]	; 0x38
    2dc4:	e59d304c 	ldr	r3, [sp, #76]	; 0x4c
    2dc8:	e0826003 	add	r6, r2, r3
    2dcc:	e59d203c 	ldr	r2, [sp, #60]	; 0x3c
    2dd0:	e0435005 	sub	r5, r3, r5
    2dd4:	e0466002 	sub	r6, r6, r2
    2dd8:	e1550006 	cmp	r5, r6
    2ddc:	b1a06005 	movlt	r6, r5
    2de0:	e3560000 	cmp	r6, #0
    2de4:	da000009 	ble	2e10 <_vfprintf_r+0x1274>
    2de8:	e59d30a4 	ldr	r3, [sp, #164]	; 0xa4
    2dec:	e2833001 	add	r3, r3, #1
    2df0:	e0844006 	add	r4, r4, r6
    2df4:	e3530007 	cmp	r3, #7
    2df8:	e5892000 	str	r2, [r9]
    2dfc:	e5896004 	str	r6, [r9, #4]
    2e00:	e58d40a8 	str	r4, [sp, #168]	; 0xa8
    2e04:	e58d30a4 	str	r3, [sp, #164]	; 0xa4
    2e08:	d2899008 	addle	r9, r9, #8
    2e0c:	ca0004b6 	bgt	40ec <_vfprintf_r+0x2550>
    2e10:	e3560000 	cmp	r6, #0
    2e14:	a0455006 	subge	r5, r5, r6
    2e18:	e3550000 	cmp	r5, #0
    2e1c:	dafffca9 	ble	20c8 <_vfprintf_r+0x52c>
    2e20:	e3550010 	cmp	r5, #16
    2e24:	da0001c6 	ble	3544 <_vfprintf_r+0x19a8>
    2e28:	e3a06010 	mov	r6, #16
    2e2c:	e59d30a4 	ldr	r3, [sp, #164]	; 0xa4
    2e30:	ea000002 	b	2e40 <_vfprintf_r+0x12a4>
    2e34:	e2455010 	sub	r5, r5, #16
    2e38:	e3550010 	cmp	r5, #16
    2e3c:	da0001c1 	ble	3548 <_vfprintf_r+0x19ac>
    2e40:	e2833001 	add	r3, r3, #1
    2e44:	e59f22c0 	ldr	r2, [pc, #704]	; 310c <_vfprintf_r+0x1570>
    2e48:	e3530007 	cmp	r3, #7
    2e4c:	e2844010 	add	r4, r4, #16
    2e50:	e8890044 	stm	r9, {r2, r6}
    2e54:	e58d40a8 	str	r4, [sp, #168]	; 0xa8
    2e58:	e58d30a4 	str	r3, [sp, #164]	; 0xa4
    2e5c:	d2899008 	addle	r9, r9, #8
    2e60:	dafffff3 	ble	2e34 <_vfprintf_r+0x1298>
    2e64:	e1a01007 	mov	r1, r7
    2e68:	e1a0000b 	mov	r0, fp
    2e6c:	e28d20a0 	add	r2, sp, #160	; 0xa0
    2e70:	eb00156c 	bl	8428 <__sprint_r>
    2e74:	e3500000 	cmp	r0, #0
    2e78:	1afffeb7 	bne	295c <_vfprintf_r+0xdc0>
    2e7c:	e28d30a4 	add	r3, sp, #164	; 0xa4
    2e80:	e8930018 	ldm	r3, {r3, r4}
    2e84:	e28d90ac 	add	r9, sp, #172	; 0xac
    2e88:	eaffffe9 	b	2e34 <_vfprintf_r+0x1298>
    2e8c:	e31a0001 	tst	sl, #1
    2e90:	1afffec7 	bne	29b4 <_vfprintf_r+0xe18>
    2e94:	e59d3038 	ldr	r3, [sp, #56]	; 0x38
    2e98:	e5893000 	str	r3, [r9]
    2e9c:	e3a03001 	mov	r3, #1
    2ea0:	e59d50a4 	ldr	r5, [sp, #164]	; 0xa4
    2ea4:	e0855003 	add	r5, r5, r3
    2ea8:	e2844001 	add	r4, r4, #1
    2eac:	e3550007 	cmp	r5, #7
    2eb0:	e58d40a8 	str	r4, [sp, #168]	; 0xa8
    2eb4:	e5893004 	str	r3, [r9, #4]
    2eb8:	e58d50a4 	str	r5, [sp, #164]	; 0xa4
    2ebc:	dafffee5 	ble	2a58 <_vfprintf_r+0xebc>
    2ec0:	e1a01007 	mov	r1, r7
    2ec4:	e1a0000b 	mov	r0, fp
    2ec8:	e28d20a0 	add	r2, sp, #160	; 0xa0
    2ecc:	eb001555 	bl	8428 <__sprint_r>
    2ed0:	e3500000 	cmp	r0, #0
    2ed4:	1afffea0 	bne	295c <_vfprintf_r+0xdc0>
    2ed8:	e59d40a8 	ldr	r4, [sp, #168]	; 0xa8
    2edc:	e59d50a4 	ldr	r5, [sp, #164]	; 0xa4
    2ee0:	e28d90ac 	add	r9, sp, #172	; 0xac
    2ee4:	eafffedc 	b	2a5c <_vfprintf_r+0xec0>
    2ee8:	e59d304c 	ldr	r3, [sp, #76]	; 0x4c
    2eec:	e2436001 	sub	r6, r3, #1
    2ef0:	e3560000 	cmp	r6, #0
    2ef4:	dafffed8 	ble	2a5c <_vfprintf_r+0xec0>
    2ef8:	e3560010 	cmp	r6, #16
    2efc:	da0001e3 	ble	3690 <_vfprintf_r+0x1af4>
    2f00:	e3a03010 	mov	r3, #16
    2f04:	ea000002 	b	2f14 <_vfprintf_r+0x1378>
    2f08:	e2466010 	sub	r6, r6, #16
    2f0c:	e3560010 	cmp	r6, #16
    2f10:	da0001de 	ble	3690 <_vfprintf_r+0x1af4>
    2f14:	e2855001 	add	r5, r5, #1
    2f18:	e59f21ec 	ldr	r2, [pc, #492]	; 310c <_vfprintf_r+0x1570>
    2f1c:	e3550007 	cmp	r5, #7
    2f20:	e2844010 	add	r4, r4, #16
    2f24:	e889000c 	stm	r9, {r2, r3}
    2f28:	e58d40a8 	str	r4, [sp, #168]	; 0xa8
    2f2c:	e58d50a4 	str	r5, [sp, #164]	; 0xa4
    2f30:	d2899008 	addle	r9, r9, #8
    2f34:	dafffff3 	ble	2f08 <_vfprintf_r+0x136c>
    2f38:	e1a01007 	mov	r1, r7
    2f3c:	e1a0000b 	mov	r0, fp
    2f40:	e28d20a0 	add	r2, sp, #160	; 0xa0
    2f44:	eb001537 	bl	8428 <__sprint_r>
    2f48:	e3500000 	cmp	r0, #0
    2f4c:	1afffe82 	bne	295c <_vfprintf_r+0xdc0>
    2f50:	e3a03010 	mov	r3, #16
    2f54:	e59d40a8 	ldr	r4, [sp, #168]	; 0xa8
    2f58:	e59d50a4 	ldr	r5, [sp, #164]	; 0xa4
    2f5c:	e28d90ac 	add	r9, sp, #172	; 0xac
    2f60:	eaffffe8 	b	2f08 <_vfprintf_r+0x136c>
    2f64:	e59d301c 	ldr	r3, [sp, #28]
    2f68:	e2133010 	ands	r3, r3, #16
    2f6c:	1a000053 	bne	30c0 <_vfprintf_r+0x1524>
    2f70:	e59d201c 	ldr	r2, [sp, #28]
    2f74:	e2122040 	ands	r2, r2, #64	; 0x40
    2f78:	0a0001f6 	beq	3758 <_vfprintf_r+0x1bbc>
    2f7c:	e59d1034 	ldr	r1, [sp, #52]	; 0x34
    2f80:	e4914004 	ldr	r4, [r1], #4
    2f84:	e1a04804 	lsl	r4, r4, #16
    2f88:	e1a06003 	mov	r6, r3
    2f8c:	e3a02001 	mov	r2, #1
    2f90:	e58d1034 	str	r1, [sp, #52]	; 0x34
    2f94:	e1a04824 	lsr	r4, r4, #16
    2f98:	eafffcf6 	b	2378 <_vfprintf_r+0x7dc>
    2f9c:	e21a3010 	ands	r3, sl, #16
    2fa0:	1a00004b 	bne	30d4 <_vfprintf_r+0x1538>
    2fa4:	e21a2040 	ands	r2, sl, #64	; 0x40
    2fa8:	0a0001f6 	beq	3788 <_vfprintf_r+0x1bec>
    2fac:	e59d2034 	ldr	r2, [sp, #52]	; 0x34
    2fb0:	e4924004 	ldr	r4, [r2], #4
    2fb4:	e1a04804 	lsl	r4, r4, #16
    2fb8:	e1a06003 	mov	r6, r3
    2fbc:	e58d2034 	str	r2, [sp, #52]	; 0x34
    2fc0:	e1a04824 	lsr	r4, r4, #16
    2fc4:	eafffd34 	b	249c <_vfprintf_r+0x900>
    2fc8:	e3a0302d 	mov	r3, #45	; 0x2d
    2fcc:	e2744000 	rsbs	r4, r4, #0
    2fd0:	e3a02001 	mov	r2, #1
    2fd4:	e58da01c 	str	sl, [sp, #28]
    2fd8:	e5cd3083 	strb	r3, [sp, #131]	; 0x83
    2fdc:	e2e66000 	rsc	r6, r6, #0
    2fe0:	eafffce6 	b	2380 <_vfprintf_r+0x7e4>
    2fe4:	e31a0001 	tst	sl, #1
    2fe8:	0afffc36 	beq	20c8 <_vfprintf_r+0x52c>
    2fec:	eafffda7 	b	2690 <_vfprintf_r+0xaf4>
    2ff0:	e3a03001 	mov	r3, #1
    2ff4:	e5893004 	str	r3, [r9, #4]
    2ff8:	e59d30a4 	ldr	r3, [sp, #164]	; 0xa4
    2ffc:	e2833001 	add	r3, r3, #1
    3000:	e3530007 	cmp	r3, #7
    3004:	e58d30a4 	str	r3, [sp, #164]	; 0xa4
    3008:	e59f30e0 	ldr	r3, [pc, #224]	; 30f0 <_vfprintf_r+0x1554>
    300c:	e2844001 	add	r4, r4, #1
    3010:	e5893000 	str	r3, [r9]
    3014:	e58d40a8 	str	r4, [sp, #168]	; 0xa8
    3018:	d2899008 	addle	r9, r9, #8
    301c:	ca0003bb 	bgt	3f10 <_vfprintf_r+0x2374>
    3020:	e59d304c 	ldr	r3, [sp, #76]	; 0x4c
    3024:	e1933005 	orrs	r3, r3, r5
    3028:	0a0003d9 	beq	3f94 <_vfprintf_r+0x23f8>
    302c:	e59d305c 	ldr	r3, [sp, #92]	; 0x5c
    3030:	e59d2060 	ldr	r2, [sp, #96]	; 0x60
    3034:	e0834004 	add	r4, r3, r4
    3038:	e889000c 	stm	r9, {r2, r3}
    303c:	e59d30a4 	ldr	r3, [sp, #164]	; 0xa4
    3040:	e2833001 	add	r3, r3, #1
    3044:	e3530007 	cmp	r3, #7
    3048:	e58d40a8 	str	r4, [sp, #168]	; 0xa8
    304c:	e58d30a4 	str	r3, [sp, #164]	; 0xa4
    3050:	d2899008 	addle	r9, r9, #8
    3054:	ca0003c3 	bgt	3f68 <_vfprintf_r+0x23cc>
    3058:	e3550000 	cmp	r5, #0
    305c:	ba00043f 	blt	4160 <_vfprintf_r+0x25c4>
    3060:	e59d2038 	ldr	r2, [sp, #56]	; 0x38
    3064:	e5892000 	str	r2, [r9]
    3068:	e59d204c 	ldr	r2, [sp, #76]	; 0x4c
    306c:	e2833001 	add	r3, r3, #1
    3070:	e0824004 	add	r4, r2, r4
    3074:	e3530007 	cmp	r3, #7
    3078:	e58d30a4 	str	r3, [sp, #164]	; 0xa4
    307c:	e5892004 	str	r2, [r9, #4]
    3080:	e58d40a8 	str	r4, [sp, #168]	; 0xa8
    3084:	dafffc0e 	ble	20c4 <_vfprintf_r+0x528>
    3088:	eafffe7d 	b	2a84 <_vfprintf_r+0xee8>
    308c:	e31a0c02 	tst	sl, #512	; 0x200
    3090:	1a000279 	bne	3a7c <_vfprintf_r+0x1ee0>
    3094:	e1a06fc4 	asr	r6, r4, #31
    3098:	e58d3034 	str	r3, [sp, #52]	; 0x34
    309c:	e1a03006 	mov	r3, r6
    30a0:	eafffc91 	b	22ec <_vfprintf_r+0x750>
    30a4:	e59d3034 	ldr	r3, [sp, #52]	; 0x34
    30a8:	e59d0024 	ldr	r0, [sp, #36]	; 0x24
    30ac:	e4931004 	ldr	r1, [r3], #4
    30b0:	e1a02fc0 	asr	r2, r0, #31
    30b4:	e8810005 	stm	r1, {r0, r2}
    30b8:	e58d3034 	str	r3, [sp, #52]	; 0x34
    30bc:	eafffaf6 	b	1c9c <_vfprintf_r+0x100>
    30c0:	e59d3034 	ldr	r3, [sp, #52]	; 0x34
    30c4:	e4934004 	ldr	r4, [r3], #4
    30c8:	e3a02001 	mov	r2, #1
    30cc:	e58d3034 	str	r3, [sp, #52]	; 0x34
    30d0:	eafffca8 	b	2378 <_vfprintf_r+0x7dc>
    30d4:	e59d3034 	ldr	r3, [sp, #52]	; 0x34
    30d8:	e4934004 	ldr	r4, [r3], #4
    30dc:	e58d3034 	str	r3, [sp, #52]	; 0x34
    30e0:	eafffced 	b	249c <_vfprintf_r+0x900>
    30e4:	7fefffff 	.word	0x7fefffff
    30e8:	0000bf58 	.word	0x0000bf58
    30ec:	0000bf5c 	.word	0x0000bf5c
    30f0:	0000bf98 	.word	0x0000bf98
    30f4:	40300000 	.word	0x40300000
    30f8:	3fe00000 	.word	0x3fe00000
    30fc:	0000bf68 	.word	0x0000bf68
    3100:	0000bf7c 	.word	0x0000bf7c
    3104:	0000bf90 	.word	0x0000bf90
    3108:	66666667 	.word	0x66666667
    310c:	0000bfac 	.word	0x0000bfac
    3110:	0000bf9c 	.word	0x0000bf9c
    3114:	e28d1050 	add	r1, sp, #80	; 0x50
    3118:	e8910003 	ldm	r1, {r0, r1}
    311c:	e1a02000 	mov	r2, r0
    3120:	e1a03001 	mov	r3, r1
    3124:	eb0021dc 	bl	b89c <__aeabi_dcmpun>
    3128:	e3500000 	cmp	r0, #0
    312c:	1a000456 	bne	428c <_vfprintf_r+0x26f0>
    3130:	e59d2040 	ldr	r2, [sp, #64]	; 0x40
    3134:	e3c23020 	bic	r3, r2, #32
    3138:	e3530041 	cmp	r3, #65	; 0x41
    313c:	e58d301c 	str	r3, [sp, #28]
    3140:	1a0001a4 	bne	37d8 <_vfprintf_r+0x1c3c>
    3144:	e3520061 	cmp	r2, #97	; 0x61
    3148:	03a03078 	moveq	r3, #120	; 0x78
    314c:	13a03058 	movne	r3, #88	; 0x58
    3150:	e5cd3085 	strb	r3, [sp, #133]	; 0x85
    3154:	e3a03030 	mov	r3, #48	; 0x30
    3158:	e3550063 	cmp	r5, #99	; 0x63
    315c:	e5cd3084 	strb	r3, [sp, #132]	; 0x84
    3160:	d28d30ec 	addle	r3, sp, #236	; 0xec
    3164:	d58d0030 	strle	r0, [sp, #48]	; 0x30
    3168:	d58d3038 	strle	r3, [sp, #56]	; 0x38
    316c:	ca000291 	bgt	3bb8 <_vfprintf_r+0x201c>
    3170:	e28d2050 	add	r2, sp, #80	; 0x50
    3174:	e8920006 	ldm	r2, {r1, r2}
    3178:	e1a03002 	mov	r3, r2
    317c:	e3530000 	cmp	r3, #0
    3180:	aa000246 	bge	3aa0 <_vfprintf_r+0x1f04>
    3184:	e3a0102d 	mov	r1, #45	; 0x2d
    3188:	e28d4050 	add	r4, sp, #80	; 0x50
    318c:	e8940018 	ldm	r4, {r3, r4}
    3190:	e58d103c 	str	r1, [sp, #60]	; 0x3c
    3194:	e1a02003 	mov	r2, r3
    3198:	e2843102 	add	r3, r4, #-2147483648	; 0x80000000
    319c:	e1a00002 	mov	r0, r2
    31a0:	e1a01003 	mov	r1, r3
    31a4:	e28d2088 	add	r2, sp, #136	; 0x88
    31a8:	eb0013b9 	bl	8094 <frexp>
    31ac:	e3a02000 	mov	r2, #0
    31b0:	e3a035ff 	mov	r3, #1069547520	; 0x3fc00000
    31b4:	eb002040 	bl	b2bc <__aeabi_dmul>
    31b8:	e1a03001 	mov	r3, r1
    31bc:	e1a02000 	mov	r2, r0
    31c0:	e58d2028 	str	r2, [sp, #40]	; 0x28
    31c4:	e58d302c 	str	r3, [sp, #44]	; 0x2c
    31c8:	e3a03000 	mov	r3, #0
    31cc:	e3a02000 	mov	r2, #0
    31d0:	eb002193 	bl	b824 <__aeabi_dcmpeq>
    31d4:	e3500000 	cmp	r0, #0
    31d8:	13a03001 	movne	r3, #1
    31dc:	e59d1040 	ldr	r1, [sp, #64]	; 0x40
    31e0:	158d3088 	strne	r3, [sp, #136]	; 0x88
    31e4:	e51f30ec 	ldr	r3, [pc, #-236]	; 3100 <_vfprintf_r+0x1564>
    31e8:	e3510061 	cmp	r1, #97	; 0x61
    31ec:	e51f20f8 	ldr	r2, [pc, #-248]	; 30fc <_vfprintf_r+0x1560>
    31f0:	11a02003 	movne	r2, r3
    31f4:	e58da04c 	str	sl, [sp, #76]	; 0x4c
    31f8:	e58db064 	str	fp, [sp, #100]	; 0x64
    31fc:	e58d706c 	str	r7, [sp, #108]	; 0x6c
    3200:	e58d2044 	str	r2, [sp, #68]	; 0x44
    3204:	e1a07002 	mov	r7, r2
    3208:	e59d6038 	ldr	r6, [sp, #56]	; 0x38
    320c:	e58d9058 	str	r9, [sp, #88]	; 0x58
    3210:	e28db028 	add	fp, sp, #40	; 0x28
    3214:	e89b0c00 	ldm	fp, {sl, fp}
    3218:	e58d807c 	str	r8, [sp, #124]	; 0x7c
    321c:	e2454001 	sub	r4, r5, #1
    3220:	ea000004 	b	3238 <_vfprintf_r+0x169c>
    3224:	e3a02000 	mov	r2, #0
    3228:	e3a03000 	mov	r3, #0
    322c:	eb00217c 	bl	b824 <__aeabi_dcmpeq>
    3230:	e3500000 	cmp	r0, #0
    3234:	1a000017 	bne	3298 <_vfprintf_r+0x16fc>
    3238:	e3a02000 	mov	r2, #0
    323c:	e51f3150 	ldr	r3, [pc, #-336]	; 30f4 <_vfprintf_r+0x1558>
    3240:	e1a0000a 	mov	r0, sl
    3244:	e1a0100b 	mov	r1, fp
    3248:	eb00201b 	bl	b2bc <__aeabi_dmul>
    324c:	e1a0b001 	mov	fp, r1
    3250:	e1a0a000 	mov	sl, r0
    3254:	eb00219e 	bl	b8d4 <__aeabi_d2iz>
    3258:	e1a05000 	mov	r5, r0
    325c:	eb001fdd 	bl	b1d8 <__aeabi_i2d>
    3260:	e1a03001 	mov	r3, r1
    3264:	e1a02000 	mov	r2, r0
    3268:	e1a0100b 	mov	r1, fp
    326c:	e1a0000a 	mov	r0, sl
    3270:	eb001f0a 	bl	aea0 <__aeabi_dsub>
    3274:	e7d73005 	ldrb	r3, [r7, r5]
    3278:	e3740001 	cmn	r4, #1
    327c:	e1a08006 	mov	r8, r6
    3280:	e1a09004 	mov	r9, r4
    3284:	e1a0a000 	mov	sl, r0
    3288:	e1a0b001 	mov	fp, r1
    328c:	e4c63001 	strb	r3, [r6], #1
    3290:	e2444001 	sub	r4, r4, #1
    3294:	1affffe2 	bne	3224 <_vfprintf_r+0x1688>
    3298:	e1a0000a 	mov	r0, sl
    329c:	e1a0100b 	mov	r1, fp
    32a0:	e3a02000 	mov	r2, #0
    32a4:	e51f31b4 	ldr	r3, [pc, #-436]	; 30f8 <_vfprintf_r+0x155c>
    32a8:	e58d8048 	str	r8, [sp, #72]	; 0x48
    32ac:	e58d9028 	str	r9, [sp, #40]	; 0x28
    32b0:	e1a04000 	mov	r4, r0
    32b4:	e59da04c 	ldr	sl, [sp, #76]	; 0x4c
    32b8:	e58d504c 	str	r5, [sp, #76]	; 0x4c
    32bc:	e1a05001 	mov	r5, r1
    32c0:	eb00216f 	bl	b884 <__aeabi_dcmpgt>
    32c4:	e3500000 	cmp	r0, #0
    32c8:	e59d9058 	ldr	r9, [sp, #88]	; 0x58
    32cc:	e59db064 	ldr	fp, [sp, #100]	; 0x64
    32d0:	e59d706c 	ldr	r7, [sp, #108]	; 0x6c
    32d4:	e59d807c 	ldr	r8, [sp, #124]	; 0x7c
    32d8:	1a0003fa 	bne	42c8 <_vfprintf_r+0x272c>
    32dc:	e1a00004 	mov	r0, r4
    32e0:	e1a01005 	mov	r1, r5
    32e4:	e3a02000 	mov	r2, #0
    32e8:	e51f31f8 	ldr	r3, [pc, #-504]	; 30f8 <_vfprintf_r+0x155c>
    32ec:	eb00214c 	bl	b824 <__aeabi_dcmpeq>
    32f0:	e3500000 	cmp	r0, #0
    32f4:	0a000002 	beq	3304 <_vfprintf_r+0x1768>
    32f8:	e59d304c 	ldr	r3, [sp, #76]	; 0x4c
    32fc:	e3130001 	tst	r3, #1
    3300:	1a0003f0 	bne	42c8 <_vfprintf_r+0x272c>
    3304:	e59d3028 	ldr	r3, [sp, #40]	; 0x28
    3308:	e3530000 	cmp	r3, #0
    330c:	ba000006 	blt	332c <_vfprintf_r+0x1790>
    3310:	e3a02030 	mov	r2, #48	; 0x30
    3314:	e59d3028 	ldr	r3, [sp, #40]	; 0x28
    3318:	e2833001 	add	r3, r3, #1
    331c:	e0863003 	add	r3, r6, r3
    3320:	e4c62001 	strb	r2, [r6], #1
    3324:	e1530006 	cmp	r3, r6
    3328:	1afffffc 	bne	3320 <_vfprintf_r+0x1784>
    332c:	e59d3038 	ldr	r3, [sp, #56]	; 0x38
    3330:	e0463003 	sub	r3, r6, r3
    3334:	e58d304c 	str	r3, [sp, #76]	; 0x4c
    3338:	e38aa002 	orr	sl, sl, #2
    333c:	e59d3088 	ldr	r3, [sp, #136]	; 0x88
    3340:	e58d3044 	str	r3, [sp, #68]	; 0x44
    3344:	ea00015d 	b	38c0 <_vfprintf_r+0x1d24>
    3348:	e58d3040 	str	r3, [sp, #64]	; 0x40
    334c:	e51f3258 	ldr	r3, [pc, #-600]	; 30fc <_vfprintf_r+0x1560>
    3350:	e58d3068 	str	r3, [sp, #104]	; 0x68
    3354:	e21a6020 	ands	r6, sl, #32
    3358:	0a000033 	beq	342c <_vfprintf_r+0x1890>
    335c:	e59d3034 	ldr	r3, [sp, #52]	; 0x34
    3360:	e2833007 	add	r3, r3, #7
    3364:	e3c33007 	bic	r3, r3, #7
    3368:	e5936004 	ldr	r6, [r3, #4]
    336c:	e4934008 	ldr	r4, [r3], #8
    3370:	e58d3034 	str	r3, [sp, #52]	; 0x34
    3374:	e1943006 	orrs	r3, r4, r6
    3378:	03a03000 	moveq	r3, #0
    337c:	120a3001 	andne	r3, sl, #1
    3380:	e3530000 	cmp	r3, #0
    3384:	159d3040 	ldrne	r3, [sp, #64]	; 0x40
    3388:	15cd3085 	strbne	r3, [sp, #133]	; 0x85
    338c:	13a03030 	movne	r3, #48	; 0x30
    3390:	138aa002 	orrne	sl, sl, #2
    3394:	15cd3084 	strbne	r3, [sp, #132]	; 0x84
    3398:	e3ca3b01 	bic	r3, sl, #1024	; 0x400
    339c:	e3a02002 	mov	r2, #2
    33a0:	e58d301c 	str	r3, [sp, #28]
    33a4:	eafffbf3 	b	2378 <_vfprintf_r+0x7dc>
    33a8:	e58d3040 	str	r3, [sp, #64]	; 0x40
    33ac:	e58da01c 	str	sl, [sp, #28]
    33b0:	eafffbe6 	b	2350 <_vfprintf_r+0x7b4>
    33b4:	e58d3040 	str	r3, [sp, #64]	; 0x40
    33b8:	eafffc2f 	b	247c <_vfprintf_r+0x8e0>
    33bc:	e58d3040 	str	r3, [sp, #64]	; 0x40
    33c0:	e51f32c8 	ldr	r3, [pc, #-712]	; 3100 <_vfprintf_r+0x1564>
    33c4:	e58d3068 	str	r3, [sp, #104]	; 0x68
    33c8:	eaffffe1 	b	3354 <_vfprintf_r+0x17b8>
    33cc:	e1a01007 	mov	r1, r7
    33d0:	e1a0000b 	mov	r0, fp
    33d4:	e28d20a0 	add	r2, sp, #160	; 0xa0
    33d8:	eb001412 	bl	8428 <__sprint_r>
    33dc:	e3500000 	cmp	r0, #0
    33e0:	1afffd5d 	bne	295c <_vfprintf_r+0xdc0>
    33e4:	e59d40a8 	ldr	r4, [sp, #168]	; 0xa8
    33e8:	e28d90ac 	add	r9, sp, #172	; 0xac
    33ec:	eafffcb2 	b	26bc <_vfprintf_r+0xb20>
    33f0:	e3550006 	cmp	r5, #6
    33f4:	31a03005 	movcc	r3, r5
    33f8:	23a03006 	movcs	r3, #6
    33fc:	e59d2038 	ldr	r2, [sp, #56]	; 0x38
    3400:	e51f1304 	ldr	r1, [pc, #-772]	; 3104 <_vfprintf_r+0x1568>
    3404:	e1a05002 	mov	r5, r2
    3408:	e58d301c 	str	r3, [sp, #28]
    340c:	e58d4034 	str	r4, [sp, #52]	; 0x34
    3410:	e58d2030 	str	r2, [sp, #48]	; 0x30
    3414:	e58d1038 	str	r1, [sp, #56]	; 0x38
    3418:	e58d3028 	str	r3, [sp, #40]	; 0x28
    341c:	e58d2058 	str	r2, [sp, #88]	; 0x58
    3420:	e58d2048 	str	r2, [sp, #72]	; 0x48
    3424:	e58d2044 	str	r2, [sp, #68]	; 0x44
    3428:	eafffbf4 	b	2400 <_vfprintf_r+0x864>
    342c:	e21a3010 	ands	r3, sl, #16
    3430:	0a000027 	beq	34d4 <_vfprintf_r+0x1938>
    3434:	e59d3034 	ldr	r3, [sp, #52]	; 0x34
    3438:	e4934004 	ldr	r4, [r3], #4
    343c:	e58d3034 	str	r3, [sp, #52]	; 0x34
    3440:	eaffffcb 	b	3374 <_vfprintf_r+0x17d8>
    3444:	e1a01007 	mov	r1, r7
    3448:	e1a0000b 	mov	r0, fp
    344c:	e28d20a0 	add	r2, sp, #160	; 0xa0
    3450:	eb0013f4 	bl	8428 <__sprint_r>
    3454:	e3500000 	cmp	r0, #0
    3458:	1afffd3f 	bne	295c <_vfprintf_r+0xdc0>
    345c:	e59d40a8 	ldr	r4, [sp, #168]	; 0xa8
    3460:	e59d50a4 	ldr	r5, [sp, #164]	; 0xa4
    3464:	e28d90ac 	add	r9, sp, #172	; 0xac
    3468:	eafffd67 	b	2a0c <_vfprintf_r+0xe70>
    346c:	e1a01007 	mov	r1, r7
    3470:	e1a0000b 	mov	r0, fp
    3474:	e28d20a0 	add	r2, sp, #160	; 0xa0
    3478:	eb0013ea 	bl	8428 <__sprint_r>
    347c:	e3500000 	cmp	r0, #0
    3480:	1afffd35 	bne	295c <_vfprintf_r+0xdc0>
    3484:	e59d40a8 	ldr	r4, [sp, #168]	; 0xa8
    3488:	e59d50a4 	ldr	r5, [sp, #164]	; 0xa4
    348c:	e28d90ac 	add	r9, sp, #172	; 0xac
    3490:	eafffd53 	b	29e4 <_vfprintf_r+0xe48>
    3494:	e59b0058 	ldr	r0, [fp, #88]	; 0x58
    3498:	eb000d8a 	bl	6ac8 <__retarget_lock_release_recursive>
    349c:	e1db30bc 	ldrh	r3, [fp, #12]
    34a0:	eafffd3a 	b	2990 <_vfprintf_r+0xdf4>
    34a4:	e1a01007 	mov	r1, r7
    34a8:	e1a0000b 	mov	r0, fp
    34ac:	e28d20a0 	add	r2, sp, #160	; 0xa0
    34b0:	e58d3064 	str	r3, [sp, #100]	; 0x64
    34b4:	eb0013db 	bl	8428 <__sprint_r>
    34b8:	e3500000 	cmp	r0, #0
    34bc:	1afffd26 	bne	295c <_vfprintf_r+0xdc0>
    34c0:	e5dd2083 	ldrb	r2, [sp, #131]	; 0x83
    34c4:	e59d40a8 	ldr	r4, [sp, #168]	; 0xa8
    34c8:	e59d3064 	ldr	r3, [sp, #100]	; 0x64
    34cc:	e28d90ac 	add	r9, sp, #172	; 0xac
    34d0:	eafffacb 	b	2004 <_vfprintf_r+0x468>
    34d4:	e21a2040 	ands	r2, sl, #64	; 0x40
    34d8:	0a0000b3 	beq	37ac <_vfprintf_r+0x1c10>
    34dc:	e59d2034 	ldr	r2, [sp, #52]	; 0x34
    34e0:	e4924004 	ldr	r4, [r2], #4
    34e4:	e1a04804 	lsl	r4, r4, #16
    34e8:	e1a06003 	mov	r6, r3
    34ec:	e58d2034 	str	r2, [sp, #52]	; 0x34
    34f0:	e1a04824 	lsr	r4, r4, #16
    34f4:	eaffff9e 	b	3374 <_vfprintf_r+0x17d8>
    34f8:	e3a03030 	mov	r3, #48	; 0x30
    34fc:	e59d1038 	ldr	r1, [sp, #56]	; 0x38
    3500:	e2422002 	sub	r2, r2, #2
    3504:	e5413001 	strb	r3, [r1, #-1]
    3508:	e28d3e15 	add	r3, sp, #336	; 0x150
    350c:	e0433002 	sub	r3, r3, r2
    3510:	e59da01c 	ldr	sl, [sp, #28]
    3514:	e58d3028 	str	r3, [sp, #40]	; 0x28
    3518:	e58d2038 	str	r2, [sp, #56]	; 0x38
    351c:	eafffbad 	b	23d8 <_vfprintf_r+0x83c>
    3520:	e1a01007 	mov	r1, r7
    3524:	e1a0000b 	mov	r0, fp
    3528:	e28d20a0 	add	r2, sp, #160	; 0xa0
    352c:	eb0013bd 	bl	8428 <__sprint_r>
    3530:	e3500000 	cmp	r0, #0
    3534:	1afffd08 	bne	295c <_vfprintf_r+0xdc0>
    3538:	e59d40a8 	ldr	r4, [sp, #168]	; 0xa8
    353c:	e28d90ac 	add	r9, sp, #172	; 0xac
    3540:	eafffc4e 	b	2680 <_vfprintf_r+0xae4>
    3544:	e59d30a4 	ldr	r3, [sp, #164]	; 0xa4
    3548:	e2833001 	add	r3, r3, #1
    354c:	e5895004 	str	r5, [r9, #4]
    3550:	e3530007 	cmp	r3, #7
    3554:	e58d30a4 	str	r3, [sp, #164]	; 0xa4
    3558:	e51f3454 	ldr	r3, [pc, #-1108]	; 310c <_vfprintf_r+0x1570>
    355c:	e0844005 	add	r4, r4, r5
    3560:	e5893000 	str	r3, [r9]
    3564:	e58d40a8 	str	r4, [sp, #168]	; 0xa8
    3568:	dafffad5 	ble	20c4 <_vfprintf_r+0x528>
    356c:	eafffd44 	b	2a84 <_vfprintf_r+0xee8>
    3570:	e3a03000 	mov	r3, #0
    3574:	e59d201c 	ldr	r2, [sp, #28]
    3578:	e2022b01 	and	r2, r2, #1024	; 0x400
    357c:	e58d5028 	str	r5, [sp, #40]	; 0x28
    3580:	e58db03c 	str	fp, [sp, #60]	; 0x3c
    3584:	e58d7044 	str	r7, [sp, #68]	; 0x44
    3588:	e1a05003 	mov	r5, r3
    358c:	e1a0b002 	mov	fp, r2
    3590:	e58d9030 	str	r9, [sp, #48]	; 0x30
    3594:	e59d7074 	ldr	r7, [sp, #116]	; 0x74
    3598:	e28dae15 	add	sl, sp, #336	; 0x150
    359c:	ea00000a 	b	35cc <_vfprintf_r+0x1a30>
    35a0:	e1a00004 	mov	r0, r4
    35a4:	e1a01006 	mov	r1, r6
    35a8:	e3a03000 	mov	r3, #0
    35ac:	e3a0200a 	mov	r2, #10
    35b0:	eb0020de 	bl	b930 <__aeabi_uldivmod>
    35b4:	e354000a 	cmp	r4, #10
    35b8:	e2d63000 	sbcs	r3, r6, #0
    35bc:	e1a04000 	mov	r4, r0
    35c0:	e1a06001 	mov	r6, r1
    35c4:	3a000015 	bcc	3620 <_vfprintf_r+0x1a84>
    35c8:	e1a0a009 	mov	sl, r9
    35cc:	e1a00004 	mov	r0, r4
    35d0:	e1a01006 	mov	r1, r6
    35d4:	e3a0200a 	mov	r2, #10
    35d8:	e3a03000 	mov	r3, #0
    35dc:	eb0020d3 	bl	b930 <__aeabi_uldivmod>
    35e0:	e35b0000 	cmp	fp, #0
    35e4:	e2822030 	add	r2, r2, #48	; 0x30
    35e8:	e54a2001 	strb	r2, [sl, #-1]
    35ec:	e24a9001 	sub	r9, sl, #1
    35f0:	e2855001 	add	r5, r5, #1
    35f4:	0affffe9 	beq	35a0 <_vfprintf_r+0x1a04>
    35f8:	e5d73000 	ldrb	r3, [r7]
    35fc:	e25320ff 	subs	r2, r3, #255	; 0xff
    3600:	13a02001 	movne	r2, #1
    3604:	e1530005 	cmp	r3, r5
    3608:	13a02000 	movne	r2, #0
    360c:	e3520000 	cmp	r2, #0
    3610:	0affffe2 	beq	35a0 <_vfprintf_r+0x1a04>
    3614:	e354000a 	cmp	r4, #10
    3618:	e2d63000 	sbcs	r3, r6, #0
    361c:	2a00027e 	bcs	401c <_vfprintf_r+0x2480>
    3620:	e1a03009 	mov	r3, r9
    3624:	e28d2e15 	add	r2, sp, #336	; 0x150
    3628:	e0423003 	sub	r3, r2, r3
    362c:	e58d9038 	str	r9, [sp, #56]	; 0x38
    3630:	e58d7074 	str	r7, [sp, #116]	; 0x74
    3634:	e58d504c 	str	r5, [sp, #76]	; 0x4c
    3638:	e59d9030 	ldr	r9, [sp, #48]	; 0x30
    363c:	e59d5028 	ldr	r5, [sp, #40]	; 0x28
    3640:	e59db03c 	ldr	fp, [sp, #60]	; 0x3c
    3644:	e59d7044 	ldr	r7, [sp, #68]	; 0x44
    3648:	e59da01c 	ldr	sl, [sp, #28]
    364c:	e58d3028 	str	r3, [sp, #40]	; 0x28
    3650:	eafffb60 	b	23d8 <_vfprintf_r+0x83c>
    3654:	e59d3034 	ldr	r3, [sp, #52]	; 0x34
    3658:	e59d1024 	ldr	r1, [sp, #36]	; 0x24
    365c:	e4932004 	ldr	r2, [r3], #4
    3660:	e5821000 	str	r1, [r2]
    3664:	e58d3034 	str	r3, [sp, #52]	; 0x34
    3668:	eafff98b 	b	1c9c <_vfprintf_r+0x100>
    366c:	e1a03007 	mov	r3, r7
    3670:	e1a0700b 	mov	r7, fp
    3674:	e1a0b003 	mov	fp, r3
    3678:	e59d30a8 	ldr	r3, [sp, #168]	; 0xa8
    367c:	e3530000 	cmp	r3, #0
    3680:	1a0002d5 	bne	41dc <_vfprintf_r+0x2640>
    3684:	e3a03000 	mov	r3, #0
    3688:	e58d30a4 	str	r3, [sp, #164]	; 0xa4
    368c:	eafffcb9 	b	2978 <_vfprintf_r+0xddc>
    3690:	e2855001 	add	r5, r5, #1
    3694:	e51f3590 	ldr	r3, [pc, #-1424]	; 310c <_vfprintf_r+0x1570>
    3698:	e0844006 	add	r4, r4, r6
    369c:	e3550007 	cmp	r5, #7
    36a0:	e5896004 	str	r6, [r9, #4]
    36a4:	e5893000 	str	r3, [r9]
    36a8:	e58d40a8 	str	r4, [sp, #168]	; 0xa8
    36ac:	e58d50a4 	str	r5, [sp, #164]	; 0xa4
    36b0:	dafffce8 	ble	2a58 <_vfprintf_r+0xebc>
    36b4:	eafffe01 	b	2ec0 <_vfprintf_r+0x1324>
    36b8:	e3550010 	cmp	r5, #16
    36bc:	da0000cb 	ble	39f0 <_vfprintf_r+0x1e54>
    36c0:	e3a06010 	mov	r6, #16
    36c4:	e59d30a4 	ldr	r3, [sp, #164]	; 0xa4
    36c8:	ea000002 	b	36d8 <_vfprintf_r+0x1b3c>
    36cc:	e2455010 	sub	r5, r5, #16
    36d0:	e3550010 	cmp	r5, #16
    36d4:	da0000c6 	ble	39f4 <_vfprintf_r+0x1e58>
    36d8:	e2833001 	add	r3, r3, #1
    36dc:	e51f25d8 	ldr	r2, [pc, #-1496]	; 310c <_vfprintf_r+0x1570>
    36e0:	e3530007 	cmp	r3, #7
    36e4:	e2844010 	add	r4, r4, #16
    36e8:	e8890044 	stm	r9, {r2, r6}
    36ec:	e58d40a8 	str	r4, [sp, #168]	; 0xa8
    36f0:	e58d30a4 	str	r3, [sp, #164]	; 0xa4
    36f4:	d2899008 	addle	r9, r9, #8
    36f8:	dafffff3 	ble	36cc <_vfprintf_r+0x1b30>
    36fc:	e1a01007 	mov	r1, r7
    3700:	e1a0000b 	mov	r0, fp
    3704:	e28d20a0 	add	r2, sp, #160	; 0xa0
    3708:	eb001346 	bl	8428 <__sprint_r>
    370c:	e3500000 	cmp	r0, #0
    3710:	1afffc91 	bne	295c <_vfprintf_r+0xdc0>
    3714:	e28d30a4 	add	r3, sp, #164	; 0xa4
    3718:	e8930018 	ldm	r3, {r3, r4}
    371c:	e28d90ac 	add	r9, sp, #172	; 0xac
    3720:	eaffffe9 	b	36cc <_vfprintf_r+0x1b30>
    3724:	e59d0038 	ldr	r0, [sp, #56]	; 0x38
    3728:	e58d4034 	str	r4, [sp, #52]	; 0x34
    372c:	eb0012c7 	bl	8250 <strlen>
    3730:	e1c03fc0 	bic	r3, r0, r0, asr #31
    3734:	e1a05006 	mov	r5, r6
    3738:	e5dd2083 	ldrb	r2, [sp, #131]	; 0x83
    373c:	e58d0028 	str	r0, [sp, #40]	; 0x28
    3740:	e58d6030 	str	r6, [sp, #48]	; 0x30
    3744:	e58d6058 	str	r6, [sp, #88]	; 0x58
    3748:	e58d6048 	str	r6, [sp, #72]	; 0x48
    374c:	e58d6044 	str	r6, [sp, #68]	; 0x44
    3750:	e58d301c 	str	r3, [sp, #28]
    3754:	eafffb29 	b	2400 <_vfprintf_r+0x864>
    3758:	e59d301c 	ldr	r3, [sp, #28]
    375c:	e2136c02 	ands	r6, r3, #512	; 0x200
    3760:	e59d3034 	ldr	r3, [sp, #52]	; 0x34
    3764:	14934004 	ldrne	r4, [r3], #4
    3768:	04934004 	ldreq	r4, [r3], #4
    376c:	11a06002 	movne	r6, r2
    3770:	03a02001 	moveq	r2, #1
    3774:	13a02001 	movne	r2, #1
    3778:	158d3034 	strne	r3, [sp, #52]	; 0x34
    377c:	058d3034 	streq	r3, [sp, #52]	; 0x34
    3780:	120440ff 	andne	r4, r4, #255	; 0xff
    3784:	eafffafb 	b	2378 <_vfprintf_r+0x7dc>
    3788:	e59d3034 	ldr	r3, [sp, #52]	; 0x34
    378c:	e21a6c02 	ands	r6, sl, #512	; 0x200
    3790:	14934004 	ldrne	r4, [r3], #4
    3794:	04934004 	ldreq	r4, [r3], #4
    3798:	11a06002 	movne	r6, r2
    379c:	158d3034 	strne	r3, [sp, #52]	; 0x34
    37a0:	058d3034 	streq	r3, [sp, #52]	; 0x34
    37a4:	120440ff 	andne	r4, r4, #255	; 0xff
    37a8:	eafffb3b 	b	249c <_vfprintf_r+0x900>
    37ac:	e59d3034 	ldr	r3, [sp, #52]	; 0x34
    37b0:	e21a6c02 	ands	r6, sl, #512	; 0x200
    37b4:	14934004 	ldrne	r4, [r3], #4
    37b8:	04934004 	ldreq	r4, [r3], #4
    37bc:	11a06002 	movne	r6, r2
    37c0:	158d3034 	strne	r3, [sp, #52]	; 0x34
    37c4:	058d3034 	streq	r3, [sp, #52]	; 0x34
    37c8:	120440ff 	andne	r4, r4, #255	; 0xff
    37cc:	eafffee8 	b	3374 <_vfprintf_r+0x17d8>
    37d0:	e59d30a4 	ldr	r3, [sp, #164]	; 0xa4
    37d4:	eafffc2a 	b	2884 <_vfprintf_r+0xce8>
    37d8:	e3750001 	cmn	r5, #1
    37dc:	0a0000b3 	beq	3ab0 <_vfprintf_r+0x1f14>
    37e0:	e59d301c 	ldr	r3, [sp, #28]
    37e4:	e3530047 	cmp	r3, #71	; 0x47
    37e8:	03550000 	cmpeq	r5, #0
    37ec:	1a0000b0 	bne	3ab4 <_vfprintf_r+0x1f18>
    37f0:	e28d4050 	add	r4, sp, #80	; 0x50
    37f4:	e8940018 	ldm	r4, {r3, r4}
    37f8:	e38a2c01 	orr	r2, sl, #256	; 0x100
    37fc:	e2546000 	subs	r6, r4, #0
    3800:	e58d2030 	str	r2, [sp, #48]	; 0x30
    3804:	ba000298 	blt	426c <_vfprintf_r+0x26d0>
    3808:	e3a05001 	mov	r5, #1
    380c:	e1a04005 	mov	r4, r5
    3810:	e58d003c 	str	r0, [sp, #60]	; 0x3c
    3814:	e58d3028 	str	r3, [sp, #40]	; 0x28
    3818:	e3a01002 	mov	r1, #2
    381c:	e58d1000 	str	r1, [sp]
    3820:	e28d1098 	add	r1, sp, #152	; 0x98
    3824:	e58d1010 	str	r1, [sp, #16]
    3828:	e28d108c 	add	r1, sp, #140	; 0x8c
    382c:	e58d100c 	str	r1, [sp, #12]
    3830:	e28d1088 	add	r1, sp, #136	; 0x88
    3834:	e1a03006 	mov	r3, r6
    3838:	e1a0000b 	mov	r0, fp
    383c:	e59d2028 	ldr	r2, [sp, #40]	; 0x28
    3840:	e58d4004 	str	r4, [sp, #4]
    3844:	e58d1008 	str	r1, [sp, #8]
    3848:	eb000476 	bl	4a28 <_dtoa_r>
    384c:	e59d301c 	ldr	r3, [sp, #28]
    3850:	e3530047 	cmp	r3, #71	; 0x47
    3854:	e58d0038 	str	r0, [sp, #56]	; 0x38
    3858:	1a000212 	bne	40a8 <_vfprintf_r+0x250c>
    385c:	e31a0001 	tst	sl, #1
    3860:	1a000210 	bne	40a8 <_vfprintf_r+0x250c>
    3864:	e59d3098 	ldr	r3, [sp, #152]	; 0x98
    3868:	e59d201c 	ldr	r2, [sp, #28]
    386c:	e3520047 	cmp	r2, #71	; 0x47
    3870:	e59d2038 	ldr	r2, [sp, #56]	; 0x38
    3874:	e0433002 	sub	r3, r3, r2
    3878:	e58d304c 	str	r3, [sp, #76]	; 0x4c
    387c:	1a0000d6 	bne	3bdc <_vfprintf_r+0x2040>
    3880:	e59d2088 	ldr	r2, [sp, #136]	; 0x88
    3884:	e3720003 	cmn	r2, #3
    3888:	a3a03000 	movge	r3, #0
    388c:	b3a03001 	movlt	r3, #1
    3890:	e1520005 	cmp	r2, r5
    3894:	c3833001 	orrgt	r3, r3, #1
    3898:	e3530000 	cmp	r3, #0
    389c:	e58d2044 	str	r2, [sp, #68]	; 0x44
    38a0:	0a0000e6 	beq	3c40 <_vfprintf_r+0x20a4>
    38a4:	e3a02000 	mov	r2, #0
    38a8:	e59d3040 	ldr	r3, [sp, #64]	; 0x40
    38ac:	e2433002 	sub	r3, r3, #2
    38b0:	e58d3040 	str	r3, [sp, #64]	; 0x40
    38b4:	e3c33020 	bic	r3, r3, #32
    38b8:	e58d2030 	str	r2, [sp, #48]	; 0x30
    38bc:	e58d301c 	str	r3, [sp, #28]
    38c0:	e59d301c 	ldr	r3, [sp, #28]
    38c4:	e59d2040 	ldr	r2, [sp, #64]	; 0x40
    38c8:	e3530041 	cmp	r3, #65	; 0x41
    38cc:	e59d3044 	ldr	r3, [sp, #68]	; 0x44
    38d0:	0282200f 	addeq	r2, r2, #15
    38d4:	e2433001 	sub	r3, r3, #1
    38d8:	e3530000 	cmp	r3, #0
    38dc:	e20220ff 	and	r2, r2, #255	; 0xff
    38e0:	e5cd2090 	strb	r2, [sp, #144]	; 0x90
    38e4:	b3a0202d 	movlt	r2, #45	; 0x2d
    38e8:	a3a0202b 	movge	r2, #43	; 0x2b
    38ec:	e58d3088 	str	r3, [sp, #136]	; 0x88
    38f0:	b59d3044 	ldrlt	r3, [sp, #68]	; 0x44
    38f4:	b2633001 	rsblt	r3, r3, #1
    38f8:	e3530009 	cmp	r3, #9
    38fc:	e5cd2091 	strb	r2, [sp, #145]	; 0x91
    3900:	da00028d 	ble	433c <_vfprintf_r+0x27a0>
    3904:	e28d009f 	add	r0, sp, #159	; 0x9f
    3908:	e1a02000 	mov	r2, r0
    390c:	e1a01002 	mov	r1, r2
    3910:	e51fc810 	ldr	ip, [pc, #-2064]	; 3108 <_vfprintf_r+0x156c>
    3914:	e0cc2c93 	smull	r2, ip, r3, ip
    3918:	e1a02fc3 	asr	r2, r3, #31
    391c:	e062214c 	rsb	r2, r2, ip, asr #2
    3920:	e082c102 	add	ip, r2, r2, lsl #2
    3924:	e3530063 	cmp	r3, #99	; 0x63
    3928:	e043308c 	sub	r3, r3, ip, lsl #1
    392c:	e2833030 	add	r3, r3, #48	; 0x30
    3930:	e5413001 	strb	r3, [r1, #-1]
    3934:	e1a03002 	mov	r3, r2
    3938:	e2412001 	sub	r2, r1, #1
    393c:	cafffff2 	bgt	390c <_vfprintf_r+0x1d70>
    3940:	e2833030 	add	r3, r3, #48	; 0x30
    3944:	e241c002 	sub	ip, r1, #2
    3948:	e20330ff 	and	r3, r3, #255	; 0xff
    394c:	e150000c 	cmp	r0, ip
    3950:	e5423001 	strb	r3, [r2, #-1]
    3954:	9a0002c3 	bls	4468 <_vfprintf_r+0x28cc>
    3958:	e28dc092 	add	ip, sp, #146	; 0x92
    395c:	ea000000 	b	3964 <_vfprintf_r+0x1dc8>
    3960:	e4d23001 	ldrb	r3, [r2], #1
    3964:	e1500002 	cmp	r0, r2
    3968:	e4cc3001 	strb	r3, [ip], #1
    396c:	1afffffb 	bne	3960 <_vfprintf_r+0x1dc4>
    3970:	e28d30a1 	add	r3, sp, #161	; 0xa1
    3974:	e28d2092 	add	r2, sp, #146	; 0x92
    3978:	e0433001 	sub	r3, r3, r1
    397c:	e0823003 	add	r3, r2, r3
    3980:	e28d2090 	add	r2, sp, #144	; 0x90
    3984:	e0433002 	sub	r3, r3, r2
    3988:	e58d306c 	str	r3, [sp, #108]	; 0x6c
    398c:	e59d304c 	ldr	r3, [sp, #76]	; 0x4c
    3990:	e59d206c 	ldr	r2, [sp, #108]	; 0x6c
    3994:	e3530001 	cmp	r3, #1
    3998:	e0823003 	add	r3, r2, r3
    399c:	e58d3028 	str	r3, [sp, #40]	; 0x28
    39a0:	da000278 	ble	4388 <_vfprintf_r+0x27ec>
    39a4:	e59d3028 	ldr	r3, [sp, #40]	; 0x28
    39a8:	e59d205c 	ldr	r2, [sp, #92]	; 0x5c
    39ac:	e0833002 	add	r3, r3, r2
    39b0:	e58d3028 	str	r3, [sp, #40]	; 0x28
    39b4:	e3ca3b01 	bic	r3, sl, #1024	; 0x400
    39b8:	e383ac01 	orr	sl, r3, #256	; 0x100
    39bc:	e3a03000 	mov	r3, #0
    39c0:	e59d2028 	ldr	r2, [sp, #40]	; 0x28
    39c4:	e1c22fc2 	bic	r2, r2, r2, asr #31
    39c8:	e58d3058 	str	r3, [sp, #88]	; 0x58
    39cc:	e58d201c 	str	r2, [sp, #28]
    39d0:	e58d3048 	str	r3, [sp, #72]	; 0x48
    39d4:	e58d3044 	str	r3, [sp, #68]	; 0x44
    39d8:	e59d303c 	ldr	r3, [sp, #60]	; 0x3c
    39dc:	e3530000 	cmp	r3, #0
    39e0:	1a0000ca 	bne	3d10 <_vfprintf_r+0x2174>
    39e4:	e1a05003 	mov	r5, r3
    39e8:	e5dd2083 	ldrb	r2, [sp, #131]	; 0x83
    39ec:	eafffa83 	b	2400 <_vfprintf_r+0x864>
    39f0:	e59d30a4 	ldr	r3, [sp, #164]	; 0xa4
    39f4:	e2833001 	add	r3, r3, #1
    39f8:	e3530007 	cmp	r3, #7
    39fc:	e58d30a4 	str	r3, [sp, #164]	; 0xa4
    3a00:	e51f38fc 	ldr	r3, [pc, #-2300]	; 310c <_vfprintf_r+0x1570>
    3a04:	e0844005 	add	r4, r4, r5
    3a08:	e5895004 	str	r5, [r9, #4]
    3a0c:	e5893000 	str	r3, [r9]
    3a10:	e58d40a8 	str	r4, [sp, #168]	; 0xa8
    3a14:	d2899008 	addle	r9, r9, #8
    3a18:	dafffcd1 	ble	2d64 <_vfprintf_r+0x11c8>
    3a1c:	e1a01007 	mov	r1, r7
    3a20:	e1a0000b 	mov	r0, fp
    3a24:	e28d20a0 	add	r2, sp, #160	; 0xa0
    3a28:	eb00127e 	bl	8428 <__sprint_r>
    3a2c:	e3500000 	cmp	r0, #0
    3a30:	1afffbc9 	bne	295c <_vfprintf_r+0xdc0>
    3a34:	e59d40a8 	ldr	r4, [sp, #168]	; 0xa8
    3a38:	e28d90ac 	add	r9, sp, #172	; 0xac
    3a3c:	eafffcc8 	b	2d64 <_vfprintf_r+0x11c8>
    3a40:	e59d2038 	ldr	r2, [sp, #56]	; 0x38
    3a44:	e59d304c 	ldr	r3, [sp, #76]	; 0x4c
    3a48:	e0826003 	add	r6, r2, r3
    3a4c:	e59d203c 	ldr	r2, [sp, #60]	; 0x3c
    3a50:	e0435005 	sub	r5, r3, r5
    3a54:	e0466002 	sub	r6, r6, r2
    3a58:	e1560005 	cmp	r6, r5
    3a5c:	a1a06005 	movge	r6, r5
    3a60:	eafffcea 	b	2e10 <_vfprintf_r+0x1274>
    3a64:	e59d3034 	ldr	r3, [sp, #52]	; 0x34
    3a68:	e59d1024 	ldr	r1, [sp, #36]	; 0x24
    3a6c:	e4932004 	ldr	r2, [r3], #4
    3a70:	e1c210b0 	strh	r1, [r2]
    3a74:	e58d3034 	str	r3, [sp, #52]	; 0x34
    3a78:	eafff887 	b	1c9c <_vfprintf_r+0x100>
    3a7c:	e1a04c04 	lsl	r4, r4, #24
    3a80:	e1a06fc4 	asr	r6, r4, #31
    3a84:	e58d3034 	str	r3, [sp, #52]	; 0x34
    3a88:	e1a04c44 	asr	r4, r4, #24
    3a8c:	e1a03006 	mov	r3, r6
    3a90:	eafffa15 	b	22ec <_vfprintf_r+0x750>
    3a94:	e59b0058 	ldr	r0, [fp, #88]	; 0x58
    3a98:	eb000c0a 	bl	6ac8 <__retarget_lock_release_recursive>
    3a9c:	eafff926 	b	1f3c <_vfprintf_r+0x3a0>
    3aa0:	e1a02001 	mov	r2, r1
    3aa4:	e3a01000 	mov	r1, #0
    3aa8:	e58d103c 	str	r1, [sp, #60]	; 0x3c
    3aac:	eafffdba 	b	319c <_vfprintf_r+0x1600>
    3ab0:	e3a05006 	mov	r5, #6
    3ab4:	e28d4050 	add	r4, sp, #80	; 0x50
    3ab8:	e8940018 	ldm	r4, {r3, r4}
    3abc:	e38a2c01 	orr	r2, sl, #256	; 0x100
    3ac0:	e2546000 	subs	r6, r4, #0
    3ac4:	e58d2030 	str	r2, [sp, #48]	; 0x30
    3ac8:	ba0001e8 	blt	4270 <_vfprintf_r+0x26d4>
    3acc:	e58d3028 	str	r3, [sp, #40]	; 0x28
    3ad0:	e3a03000 	mov	r3, #0
    3ad4:	e58d303c 	str	r3, [sp, #60]	; 0x3c
    3ad8:	e59d301c 	ldr	r3, [sp, #28]
    3adc:	e3530046 	cmp	r3, #70	; 0x46
    3ae0:	1a00015f 	bne	4064 <_vfprintf_r+0x24c8>
    3ae4:	e3a01003 	mov	r1, #3
    3ae8:	e58d1000 	str	r1, [sp]
    3aec:	e28d1098 	add	r1, sp, #152	; 0x98
    3af0:	e59d4028 	ldr	r4, [sp, #40]	; 0x28
    3af4:	e58d1010 	str	r1, [sp, #16]
    3af8:	e28d108c 	add	r1, sp, #140	; 0x8c
    3afc:	e58d100c 	str	r1, [sp, #12]
    3b00:	e28d1088 	add	r1, sp, #136	; 0x88
    3b04:	e1a02004 	mov	r2, r4
    3b08:	e1a03006 	mov	r3, r6
    3b0c:	e58d1008 	str	r1, [sp, #8]
    3b10:	e1a0000b 	mov	r0, fp
    3b14:	e58d5004 	str	r5, [sp, #4]
    3b18:	eb0003c2 	bl	4a28 <_dtoa_r>
    3b1c:	e1a0c000 	mov	ip, r0
    3b20:	e58d0038 	str	r0, [sp, #56]	; 0x38
    3b24:	e1a00004 	mov	r0, r4
    3b28:	e5dc4000 	ldrb	r4, [ip]
    3b2c:	e2443030 	sub	r3, r4, #48	; 0x30
    3b30:	e2734000 	rsbs	r4, r3, #0
    3b34:	e0a44003 	adc	r4, r4, r3
    3b38:	e1a01006 	mov	r1, r6
    3b3c:	e3a03000 	mov	r3, #0
    3b40:	e3a02000 	mov	r2, #0
    3b44:	eb001f36 	bl	b824 <__aeabi_dcmpeq>
    3b48:	e3500000 	cmp	r0, #0
    3b4c:	13a04000 	movne	r4, #0
    3b50:	02044001 	andeq	r4, r4, #1
    3b54:	e3540000 	cmp	r4, #0
    3b58:	059d3088 	ldreq	r3, [sp, #136]	; 0x88
    3b5c:	1a000232 	bne	442c <_vfprintf_r+0x2890>
    3b60:	e59d2038 	ldr	r2, [sp, #56]	; 0x38
    3b64:	e0833005 	add	r3, r3, r5
    3b68:	e0824003 	add	r4, r2, r3
    3b6c:	e3a03000 	mov	r3, #0
    3b70:	e1a01006 	mov	r1, r6
    3b74:	e3a02000 	mov	r2, #0
    3b78:	e59d0028 	ldr	r0, [sp, #40]	; 0x28
    3b7c:	eb001f28 	bl	b824 <__aeabi_dcmpeq>
    3b80:	e3500000 	cmp	r0, #0
    3b84:	11a03004 	movne	r3, r4
    3b88:	1affff36 	bne	3868 <_vfprintf_r+0x1ccc>
    3b8c:	e59d3098 	ldr	r3, [sp, #152]	; 0x98
    3b90:	e1530004 	cmp	r3, r4
    3b94:	2affff33 	bcs	3868 <_vfprintf_r+0x1ccc>
    3b98:	e3a01030 	mov	r1, #48	; 0x30
    3b9c:	e2832001 	add	r2, r3, #1
    3ba0:	e58d2098 	str	r2, [sp, #152]	; 0x98
    3ba4:	e5c31000 	strb	r1, [r3]
    3ba8:	e59d3098 	ldr	r3, [sp, #152]	; 0x98
    3bac:	e1540003 	cmp	r4, r3
    3bb0:	8afffff9 	bhi	3b9c <_vfprintf_r+0x2000>
    3bb4:	eaffff2b 	b	3868 <_vfprintf_r+0x1ccc>
    3bb8:	e1a0000b 	mov	r0, fp
    3bbc:	e2851001 	add	r1, r5, #1
    3bc0:	eb000c12 	bl	6c10 <_malloc_r>
    3bc4:	e2503000 	subs	r3, r0, #0
    3bc8:	e58d3038 	str	r3, [sp, #56]	; 0x38
    3bcc:	0a00021d 	beq	4448 <_vfprintf_r+0x28ac>
    3bd0:	e59d3038 	ldr	r3, [sp, #56]	; 0x38
    3bd4:	e58d3030 	str	r3, [sp, #48]	; 0x30
    3bd8:	eafffd64 	b	3170 <_vfprintf_r+0x15d4>
    3bdc:	e59d301c 	ldr	r3, [sp, #28]
    3be0:	e3530046 	cmp	r3, #70	; 0x46
    3be4:	1a00021c 	bne	445c <_vfprintf_r+0x28c0>
    3be8:	e59d2088 	ldr	r2, [sp, #136]	; 0x88
    3bec:	e3520000 	cmp	r2, #0
    3bf0:	e58d2044 	str	r2, [sp, #68]	; 0x44
    3bf4:	e20a3001 	and	r3, sl, #1
    3bf8:	da0001f2 	ble	43c8 <_vfprintf_r+0x282c>
    3bfc:	e1933005 	orrs	r3, r3, r5
    3c00:	1a0001d9 	bne	436c <_vfprintf_r+0x27d0>
    3c04:	e59d3044 	ldr	r3, [sp, #68]	; 0x44
    3c08:	e58d3028 	str	r3, [sp, #40]	; 0x28
    3c0c:	e3a03066 	mov	r3, #102	; 0x66
    3c10:	e58d3040 	str	r3, [sp, #64]	; 0x40
    3c14:	e31a0b01 	tst	sl, #1024	; 0x400
    3c18:	1a000018 	bne	3c80 <_vfprintf_r+0x20e4>
    3c1c:	e59d3028 	ldr	r3, [sp, #40]	; 0x28
    3c20:	e1c33fc3 	bic	r3, r3, r3, asr #31
    3c24:	e58d301c 	str	r3, [sp, #28]
    3c28:	e3a03000 	mov	r3, #0
    3c2c:	e59da030 	ldr	sl, [sp, #48]	; 0x30
    3c30:	e58d3058 	str	r3, [sp, #88]	; 0x58
    3c34:	e58d3030 	str	r3, [sp, #48]	; 0x30
    3c38:	e58d3048 	str	r3, [sp, #72]	; 0x48
    3c3c:	eaffff65 	b	39d8 <_vfprintf_r+0x1e3c>
    3c40:	e59d3044 	ldr	r3, [sp, #68]	; 0x44
    3c44:	e59d204c 	ldr	r2, [sp, #76]	; 0x4c
    3c48:	e1530002 	cmp	r3, r2
    3c4c:	ba000132 	blt	411c <_vfprintf_r+0x2580>
    3c50:	e31a0001 	tst	sl, #1
    3c54:	0a0001b2 	beq	4324 <_vfprintf_r+0x2788>
    3c58:	e59d205c 	ldr	r2, [sp, #92]	; 0x5c
    3c5c:	e0833002 	add	r3, r3, r2
    3c60:	e58d3028 	str	r3, [sp, #40]	; 0x28
    3c64:	e31a0b01 	tst	sl, #1024	; 0x400
    3c68:	0a0001b0 	beq	4330 <_vfprintf_r+0x2794>
    3c6c:	e59d3044 	ldr	r3, [sp, #68]	; 0x44
    3c70:	e3530000 	cmp	r3, #0
    3c74:	e3a03067 	mov	r3, #103	; 0x67
    3c78:	e58d3040 	str	r3, [sp, #64]	; 0x40
    3c7c:	daffffe6 	ble	3c1c <_vfprintf_r+0x2080>
    3c80:	e59d1074 	ldr	r1, [sp, #116]	; 0x74
    3c84:	e5d13000 	ldrb	r3, [r1]
    3c88:	e35300ff 	cmp	r3, #255	; 0xff
    3c8c:	0a0001fd 	beq	4488 <_vfprintf_r+0x28ec>
    3c90:	e3a0c000 	mov	ip, #0
    3c94:	e59d2044 	ldr	r2, [sp, #68]	; 0x44
    3c98:	e1a0000c 	mov	r0, ip
    3c9c:	ea000008 	b	3cc4 <_vfprintf_r+0x2128>
    3ca0:	e0422003 	sub	r2, r2, r3
    3ca4:	e5d13001 	ldrb	r3, [r1, #1]
    3ca8:	e3530000 	cmp	r3, #0
    3cac:	05d13000 	ldrbeq	r3, [r1]
    3cb0:	12800001 	addne	r0, r0, #1
    3cb4:	12811001 	addne	r1, r1, #1
    3cb8:	028cc001 	addeq	ip, ip, #1
    3cbc:	e35300ff 	cmp	r3, #255	; 0xff
    3cc0:	0a000001 	beq	3ccc <_vfprintf_r+0x2130>
    3cc4:	e1530002 	cmp	r3, r2
    3cc8:	bafffff4 	blt	3ca0 <_vfprintf_r+0x2104>
    3ccc:	e58d2044 	str	r2, [sp, #68]	; 0x44
    3cd0:	e58d1074 	str	r1, [sp, #116]	; 0x74
    3cd4:	e58d0048 	str	r0, [sp, #72]	; 0x48
    3cd8:	e58dc058 	str	ip, [sp, #88]	; 0x58
    3cdc:	e59d2058 	ldr	r2, [sp, #88]	; 0x58
    3ce0:	e59d3048 	ldr	r3, [sp, #72]	; 0x48
    3ce4:	e59d1028 	ldr	r1, [sp, #40]	; 0x28
    3ce8:	e0833002 	add	r3, r3, r2
    3cec:	e59d2078 	ldr	r2, [sp, #120]	; 0x78
    3cf0:	e0221293 	mla	r2, r3, r2, r1
    3cf4:	e3a03000 	mov	r3, #0
    3cf8:	e59da030 	ldr	sl, [sp, #48]	; 0x30
    3cfc:	e58d3030 	str	r3, [sp, #48]	; 0x30
    3d00:	e1c23fc2 	bic	r3, r2, r2, asr #31
    3d04:	e58d2028 	str	r2, [sp, #40]	; 0x28
    3d08:	e58d301c 	str	r3, [sp, #28]
    3d0c:	eaffff31 	b	39d8 <_vfprintf_r+0x1e3c>
    3d10:	e3a0202d 	mov	r2, #45	; 0x2d
    3d14:	e3a05000 	mov	r5, #0
    3d18:	e5cd2083 	strb	r2, [sp, #131]	; 0x83
    3d1c:	eafff9b9 	b	2408 <_vfprintf_r+0x86c>
    3d20:	e59d3058 	ldr	r3, [sp, #88]	; 0x58
    3d24:	e59d2048 	ldr	r2, [sp, #72]	; 0x48
    3d28:	e3520000 	cmp	r2, #0
    3d2c:	d3530000 	cmple	r3, #0
    3d30:	da0001cf 	ble	4474 <_vfprintf_r+0x28d8>
    3d34:	e59d2038 	ldr	r2, [sp, #56]	; 0x38
    3d38:	e59d104c 	ldr	r1, [sp, #76]	; 0x4c
    3d3c:	e0822001 	add	r2, r2, r1
    3d40:	e1a00004 	mov	r0, r4
    3d44:	e58d2040 	str	r2, [sp, #64]	; 0x40
    3d48:	e58da044 	str	sl, [sp, #68]	; 0x44
    3d4c:	e1a02009 	mov	r2, r9
    3d50:	e58d8058 	str	r8, [sp, #88]	; 0x58
    3d54:	e1a09007 	mov	r9, r7
    3d58:	e1a08003 	mov	r8, r3
    3d5c:	e59da074 	ldr	sl, [sp, #116]	; 0x74
    3d60:	e59d603c 	ldr	r6, [sp, #60]	; 0x3c
    3d64:	e59d4078 	ldr	r4, [sp, #120]	; 0x78
    3d68:	ea000004 	b	3d80 <_vfprintf_r+0x21e4>
    3d6c:	e59d3048 	ldr	r3, [sp, #72]	; 0x48
    3d70:	e3580000 	cmp	r8, #0
    3d74:	d3530000 	cmple	r3, #0
    3d78:	e086600c 	add	r6, r6, ip
    3d7c:	da000184 	ble	4394 <_vfprintf_r+0x27f8>
    3d80:	e3580000 	cmp	r8, #0
    3d84:	059d3048 	ldreq	r3, [sp, #72]	; 0x48
    3d88:	02433001 	subeq	r3, r3, #1
    3d8c:	058d3048 	streq	r3, [sp, #72]	; 0x48
    3d90:	e59d3070 	ldr	r3, [sp, #112]	; 0x70
    3d94:	e8820018 	stm	r2, {r3, r4}
    3d98:	e59d30a4 	ldr	r3, [sp, #164]	; 0xa4
    3d9c:	e2833001 	add	r3, r3, #1
    3da0:	12488001 	subne	r8, r8, #1
    3da4:	024aa001 	subeq	sl, sl, #1
    3da8:	e0800004 	add	r0, r0, r4
    3dac:	e3530007 	cmp	r3, #7
    3db0:	e58d00a8 	str	r0, [sp, #168]	; 0xa8
    3db4:	e58d30a4 	str	r3, [sp, #164]	; 0xa4
    3db8:	d2822008 	addle	r2, r2, #8
    3dbc:	ca000040 	bgt	3ec4 <_vfprintf_r+0x2328>
    3dc0:	e59d1040 	ldr	r1, [sp, #64]	; 0x40
    3dc4:	e5dac000 	ldrb	ip, [sl]
    3dc8:	e0413006 	sub	r3, r1, r6
    3dcc:	e15c0003 	cmp	ip, r3
    3dd0:	b1a0700c 	movlt	r7, ip
    3dd4:	a1a07003 	movge	r7, r3
    3dd8:	e3570000 	cmp	r7, #0
    3ddc:	e58d1028 	str	r1, [sp, #40]	; 0x28
    3de0:	da000009 	ble	3e0c <_vfprintf_r+0x2270>
    3de4:	e59dc0a4 	ldr	ip, [sp, #164]	; 0xa4
    3de8:	e28cc001 	add	ip, ip, #1
    3dec:	e0800007 	add	r0, r0, r7
    3df0:	e35c0007 	cmp	ip, #7
    3df4:	e88200c0 	stm	r2, {r6, r7}
    3df8:	e58d00a8 	str	r0, [sp, #168]	; 0xa8
    3dfc:	e58dc0a4 	str	ip, [sp, #164]	; 0xa4
    3e00:	ca000038 	bgt	3ee8 <_vfprintf_r+0x234c>
    3e04:	e5dac000 	ldrb	ip, [sl]
    3e08:	e2822008 	add	r2, r2, #8
    3e0c:	e3570000 	cmp	r7, #0
    3e10:	b1a0500c 	movlt	r5, ip
    3e14:	a04c5007 	subge	r5, ip, r7
    3e18:	e3550000 	cmp	r5, #0
    3e1c:	daffffd2 	ble	3d6c <_vfprintf_r+0x21d0>
    3e20:	e3550010 	cmp	r5, #16
    3e24:	da000183 	ble	4438 <_vfprintf_r+0x289c>
    3e28:	e3a07010 	mov	r7, #16
    3e2c:	e59dc0a4 	ldr	ip, [sp, #164]	; 0xa4
    3e30:	ea000002 	b	3e40 <_vfprintf_r+0x22a4>
    3e34:	e2455010 	sub	r5, r5, #16
    3e38:	e3550010 	cmp	r5, #16
    3e3c:	da000014 	ble	3e94 <_vfprintf_r+0x22f8>
    3e40:	e28cc001 	add	ip, ip, #1
    3e44:	e51f3d40 	ldr	r3, [pc, #-3392]	; 310c <_vfprintf_r+0x1570>
    3e48:	e35c0007 	cmp	ip, #7
    3e4c:	e2800010 	add	r0, r0, #16
    3e50:	e8820088 	stm	r2, {r3, r7}
    3e54:	e58d00a8 	str	r0, [sp, #168]	; 0xa8
    3e58:	e58dc0a4 	str	ip, [sp, #164]	; 0xa4
    3e5c:	d2822008 	addle	r2, r2, #8
    3e60:	dafffff3 	ble	3e34 <_vfprintf_r+0x2298>
    3e64:	e1a01009 	mov	r1, r9
    3e68:	e1a0000b 	mov	r0, fp
    3e6c:	e28d20a0 	add	r2, sp, #160	; 0xa0
    3e70:	eb00116c 	bl	8428 <__sprint_r>
    3e74:	e3500000 	cmp	r0, #0
    3e78:	1a00002e 	bne	3f38 <_vfprintf_r+0x239c>
    3e7c:	e2455010 	sub	r5, r5, #16
    3e80:	e3550010 	cmp	r5, #16
    3e84:	e59d00a8 	ldr	r0, [sp, #168]	; 0xa8
    3e88:	e59dc0a4 	ldr	ip, [sp, #164]	; 0xa4
    3e8c:	e28d20ac 	add	r2, sp, #172	; 0xac
    3e90:	caffffea 	bgt	3e40 <_vfprintf_r+0x22a4>
    3e94:	e28cc001 	add	ip, ip, #1
    3e98:	e51f3d94 	ldr	r3, [pc, #-3476]	; 310c <_vfprintf_r+0x1570>
    3e9c:	e0800005 	add	r0, r0, r5
    3ea0:	e35c0007 	cmp	ip, #7
    3ea4:	e5825004 	str	r5, [r2, #4]
    3ea8:	e58dc0a4 	str	ip, [sp, #164]	; 0xa4
    3eac:	e5823000 	str	r3, [r2]
    3eb0:	e58d00a8 	str	r0, [sp, #168]	; 0xa8
    3eb4:	ca000044 	bgt	3fcc <_vfprintf_r+0x2430>
    3eb8:	e5dac000 	ldrb	ip, [sl]
    3ebc:	e2822008 	add	r2, r2, #8
    3ec0:	eaffffa9 	b	3d6c <_vfprintf_r+0x21d0>
    3ec4:	e1a01009 	mov	r1, r9
    3ec8:	e1a0000b 	mov	r0, fp
    3ecc:	e28d20a0 	add	r2, sp, #160	; 0xa0
    3ed0:	eb001154 	bl	8428 <__sprint_r>
    3ed4:	e3500000 	cmp	r0, #0
    3ed8:	1a000016 	bne	3f38 <_vfprintf_r+0x239c>
    3edc:	e59d00a8 	ldr	r0, [sp, #168]	; 0xa8
    3ee0:	e28d20ac 	add	r2, sp, #172	; 0xac
    3ee4:	eaffffb5 	b	3dc0 <_vfprintf_r+0x2224>
    3ee8:	e1a01009 	mov	r1, r9
    3eec:	e1a0000b 	mov	r0, fp
    3ef0:	e28d20a0 	add	r2, sp, #160	; 0xa0
    3ef4:	eb00114b 	bl	8428 <__sprint_r>
    3ef8:	e3500000 	cmp	r0, #0
    3efc:	1a00000d 	bne	3f38 <_vfprintf_r+0x239c>
    3f00:	e5dac000 	ldrb	ip, [sl]
    3f04:	e59d00a8 	ldr	r0, [sp, #168]	; 0xa8
    3f08:	e28d20ac 	add	r2, sp, #172	; 0xac
    3f0c:	eaffffbe 	b	3e0c <_vfprintf_r+0x2270>
    3f10:	e1a01007 	mov	r1, r7
    3f14:	e1a0000b 	mov	r0, fp
    3f18:	e28d20a0 	add	r2, sp, #160	; 0xa0
    3f1c:	eb001141 	bl	8428 <__sprint_r>
    3f20:	e3500000 	cmp	r0, #0
    3f24:	1afffa8c 	bne	295c <_vfprintf_r+0xdc0>
    3f28:	e59d5088 	ldr	r5, [sp, #136]	; 0x88
    3f2c:	e59d40a8 	ldr	r4, [sp, #168]	; 0xa8
    3f30:	e28d90ac 	add	r9, sp, #172	; 0xac
    3f34:	eafffc39 	b	3020 <_vfprintf_r+0x1484>
    3f38:	e1a0700b 	mov	r7, fp
    3f3c:	e1a0b009 	mov	fp, r9
    3f40:	eafffa88 	b	2968 <_vfprintf_r+0xdcc>
    3f44:	e1a01007 	mov	r1, r7
    3f48:	e1a0000b 	mov	r0, fp
    3f4c:	e28d20a0 	add	r2, sp, #160	; 0xa0
    3f50:	eb001134 	bl	8428 <__sprint_r>
    3f54:	e3500000 	cmp	r0, #0
    3f58:	1afffa7f 	bne	295c <_vfprintf_r+0xdc0>
    3f5c:	e59d40a8 	ldr	r4, [sp, #168]	; 0xa8
    3f60:	e28d90ac 	add	r9, sp, #172	; 0xac
    3f64:	eafffb79 	b	2d50 <_vfprintf_r+0x11b4>
    3f68:	e1a01007 	mov	r1, r7
    3f6c:	e1a0000b 	mov	r0, fp
    3f70:	e28d20a0 	add	r2, sp, #160	; 0xa0
    3f74:	eb00112b 	bl	8428 <__sprint_r>
    3f78:	e3500000 	cmp	r0, #0
    3f7c:	1afffa76 	bne	295c <_vfprintf_r+0xdc0>
    3f80:	e28d30a4 	add	r3, sp, #164	; 0xa4
    3f84:	e59d5088 	ldr	r5, [sp, #136]	; 0x88
    3f88:	e8930018 	ldm	r3, {r3, r4}
    3f8c:	e28d90ac 	add	r9, sp, #172	; 0xac
    3f90:	eafffc30 	b	3058 <_vfprintf_r+0x14bc>
    3f94:	e31a0001 	tst	sl, #1
    3f98:	0afff84a 	beq	20c8 <_vfprintf_r+0x52c>
    3f9c:	e59d305c 	ldr	r3, [sp, #92]	; 0x5c
    3fa0:	e59d2060 	ldr	r2, [sp, #96]	; 0x60
    3fa4:	e0834004 	add	r4, r3, r4
    3fa8:	e889000c 	stm	r9, {r2, r3}
    3fac:	e59d30a4 	ldr	r3, [sp, #164]	; 0xa4
    3fb0:	e2833001 	add	r3, r3, #1
    3fb4:	e3530007 	cmp	r3, #7
    3fb8:	e58d40a8 	str	r4, [sp, #168]	; 0xa8
    3fbc:	e58d30a4 	str	r3, [sp, #164]	; 0xa4
    3fc0:	caffffe8 	bgt	3f68 <_vfprintf_r+0x23cc>
    3fc4:	e2899008 	add	r9, r9, #8
    3fc8:	eafffc24 	b	3060 <_vfprintf_r+0x14c4>
    3fcc:	e1a01009 	mov	r1, r9
    3fd0:	e1a0000b 	mov	r0, fp
    3fd4:	e28d20a0 	add	r2, sp, #160	; 0xa0
    3fd8:	eb001112 	bl	8428 <__sprint_r>
    3fdc:	e3500000 	cmp	r0, #0
    3fe0:	1affffd4 	bne	3f38 <_vfprintf_r+0x239c>
    3fe4:	e5dac000 	ldrb	ip, [sl]
    3fe8:	e59d00a8 	ldr	r0, [sp, #168]	; 0xa8
    3fec:	e28d20ac 	add	r2, sp, #172	; 0xac
    3ff0:	eaffff5d 	b	3d6c <_vfprintf_r+0x21d0>
    3ff4:	e1a01007 	mov	r1, r7
    3ff8:	e1a0000b 	mov	r0, fp
    3ffc:	e28d20a0 	add	r2, sp, #160	; 0xa0
    4000:	eb001108 	bl	8428 <__sprint_r>
    4004:	e3500000 	cmp	r0, #0
    4008:	1afffa53 	bne	295c <_vfprintf_r+0xdc0>
    400c:	e59d5088 	ldr	r5, [sp, #136]	; 0x88
    4010:	e59d40a8 	ldr	r4, [sp, #168]	; 0xa8
    4014:	e28d90ac 	add	r9, sp, #172	; 0xac
    4018:	eafffb68 	b	2dc0 <_vfprintf_r+0x1224>
    401c:	e59d3078 	ldr	r3, [sp, #120]	; 0x78
    4020:	e0499003 	sub	r9, r9, r3
    4024:	e1a02003 	mov	r2, r3
    4028:	e59d1070 	ldr	r1, [sp, #112]	; 0x70
    402c:	e1a00009 	mov	r0, r9
    4030:	eb00109e 	bl	82b0 <strncpy>
    4034:	e5d73001 	ldrb	r3, [r7, #1]
    4038:	e1a00004 	mov	r0, r4
    403c:	e3530000 	cmp	r3, #0
    4040:	e1a01006 	mov	r1, r6
    4044:	e3a0200a 	mov	r2, #10
    4048:	e3a03000 	mov	r3, #0
    404c:	12877001 	addne	r7, r7, #1
    4050:	eb001e36 	bl	b930 <__aeabi_uldivmod>
    4054:	e3a05000 	mov	r5, #0
    4058:	e1a04000 	mov	r4, r0
    405c:	e1a06001 	mov	r6, r1
    4060:	eafffd58 	b	35c8 <_vfprintf_r+0x1a2c>
    4064:	e3530045 	cmp	r3, #69	; 0x45
    4068:	1a0000f4 	bne	4440 <_vfprintf_r+0x28a4>
    406c:	e3a01002 	mov	r1, #2
    4070:	e58d1000 	str	r1, [sp]
    4074:	e28d1098 	add	r1, sp, #152	; 0x98
    4078:	e58d1010 	str	r1, [sp, #16]
    407c:	e28d108c 	add	r1, sp, #140	; 0x8c
    4080:	e58d100c 	str	r1, [sp, #12]
    4084:	e2854001 	add	r4, r5, #1
    4088:	e28d1088 	add	r1, sp, #136	; 0x88
    408c:	e1a03006 	mov	r3, r6
    4090:	e1a0000b 	mov	r0, fp
    4094:	e59d2028 	ldr	r2, [sp, #40]	; 0x28
    4098:	e58d4004 	str	r4, [sp, #4]
    409c:	e58d1008 	str	r1, [sp, #8]
    40a0:	eb000260 	bl	4a28 <_dtoa_r>
    40a4:	e58d0038 	str	r0, [sp, #56]	; 0x38
    40a8:	e59d3038 	ldr	r3, [sp, #56]	; 0x38
    40ac:	e0834004 	add	r4, r3, r4
    40b0:	eafffead 	b	3b6c <_vfprintf_r+0x1fd0>
    40b4:	e58d501c 	str	r5, [sp, #28]
    40b8:	e58d5028 	str	r5, [sp, #40]	; 0x28
    40bc:	e58d4034 	str	r4, [sp, #52]	; 0x34
    40c0:	e1a05000 	mov	r5, r0
    40c4:	e5dd2083 	ldrb	r2, [sp, #131]	; 0x83
    40c8:	e58d0058 	str	r0, [sp, #88]	; 0x58
    40cc:	e58d0048 	str	r0, [sp, #72]	; 0x48
    40d0:	e58d0044 	str	r0, [sp, #68]	; 0x44
    40d4:	eafff8c9 	b	2400 <_vfprintf_r+0x864>
    40d8:	e51f0fd0 	ldr	r0, [pc, #-4048]	; 3110 <_vfprintf_r+0x1574>
    40dc:	e59d10a8 	ldr	r1, [sp, #168]	; 0xa8
    40e0:	e59d20a4 	ldr	r2, [sp, #164]	; 0xa4
    40e4:	e58d0064 	str	r0, [sp, #100]	; 0x64
    40e8:	eafffa99 	b	2b54 <_vfprintf_r+0xfb8>
    40ec:	e1a01007 	mov	r1, r7
    40f0:	e1a0000b 	mov	r0, fp
    40f4:	e28d20a0 	add	r2, sp, #160	; 0xa0
    40f8:	eb0010ca 	bl	8428 <__sprint_r>
    40fc:	e3500000 	cmp	r0, #0
    4100:	1afffa15 	bne	295c <_vfprintf_r+0xdc0>
    4104:	e59d5088 	ldr	r5, [sp, #136]	; 0x88
    4108:	e59d304c 	ldr	r3, [sp, #76]	; 0x4c
    410c:	e59d40a8 	ldr	r4, [sp, #168]	; 0xa8
    4110:	e28d90ac 	add	r9, sp, #172	; 0xac
    4114:	e0435005 	sub	r5, r3, r5
    4118:	eafffb3c 	b	2e10 <_vfprintf_r+0x1274>
    411c:	e59d3044 	ldr	r3, [sp, #68]	; 0x44
    4120:	e3530000 	cmp	r3, #0
    4124:	c3a03067 	movgt	r3, #103	; 0x67
    4128:	e59d204c 	ldr	r2, [sp, #76]	; 0x4c
    412c:	e59d105c 	ldr	r1, [sp, #92]	; 0x5c
    4130:	e0822001 	add	r2, r2, r1
    4134:	e58d2028 	str	r2, [sp, #40]	; 0x28
    4138:	c58d3040 	strgt	r3, [sp, #64]	; 0x40
    413c:	cafffeb4 	bgt	3c14 <_vfprintf_r+0x2078>
    4140:	e2633001 	rsb	r3, r3, #1
    4144:	e0823003 	add	r3, r2, r3
    4148:	e3a02067 	mov	r2, #103	; 0x67
    414c:	e58d3028 	str	r3, [sp, #40]	; 0x28
    4150:	e1c33fc3 	bic	r3, r3, r3, asr #31
    4154:	e58d2040 	str	r2, [sp, #64]	; 0x40
    4158:	e58d301c 	str	r3, [sp, #28]
    415c:	eafffeb1 	b	3c28 <_vfprintf_r+0x208c>
    4160:	e3750010 	cmn	r5, #16
    4164:	e2655000 	rsb	r5, r5, #0
    4168:	aa00002c 	bge	4220 <_vfprintf_r+0x2684>
    416c:	e3a06010 	mov	r6, #16
    4170:	ea000002 	b	4180 <_vfprintf_r+0x25e4>
    4174:	e2455010 	sub	r5, r5, #16
    4178:	e3550010 	cmp	r5, #16
    417c:	da000027 	ble	4220 <_vfprintf_r+0x2684>
    4180:	e2833001 	add	r3, r3, #1
    4184:	e59f230c 	ldr	r2, [pc, #780]	; 4498 <_vfprintf_r+0x28fc>
    4188:	e2844010 	add	r4, r4, #16
    418c:	e3530007 	cmp	r3, #7
    4190:	e8890044 	stm	r9, {r2, r6}
    4194:	e58d40a8 	str	r4, [sp, #168]	; 0xa8
    4198:	e58d30a4 	str	r3, [sp, #164]	; 0xa4
    419c:	d2899008 	addle	r9, r9, #8
    41a0:	dafffff3 	ble	4174 <_vfprintf_r+0x25d8>
    41a4:	e1a01007 	mov	r1, r7
    41a8:	e1a0000b 	mov	r0, fp
    41ac:	e28d20a0 	add	r2, sp, #160	; 0xa0
    41b0:	eb00109c 	bl	8428 <__sprint_r>
    41b4:	e3500000 	cmp	r0, #0
    41b8:	1afff9e7 	bne	295c <_vfprintf_r+0xdc0>
    41bc:	e28d30a4 	add	r3, sp, #164	; 0xa4
    41c0:	e8930018 	ldm	r3, {r3, r4}
    41c4:	e28d90ac 	add	r9, sp, #172	; 0xac
    41c8:	eaffffe9 	b	4174 <_vfprintf_r+0x25d8>
    41cc:	e59f22c8 	ldr	r2, [pc, #712]	; 449c <_vfprintf_r+0x2900>
    41d0:	e59d30a4 	ldr	r3, [sp, #164]	; 0xa4
    41d4:	e58d2064 	str	r2, [sp, #100]	; 0x64
    41d8:	eafffaab 	b	2c8c <_vfprintf_r+0x10f0>
    41dc:	e1a0100b 	mov	r1, fp
    41e0:	e1a00007 	mov	r0, r7
    41e4:	e28d20a0 	add	r2, sp, #160	; 0xa0
    41e8:	eb00108e 	bl	8428 <__sprint_r>
    41ec:	e3500000 	cmp	r0, #0
    41f0:	0afffd23 	beq	3684 <_vfprintf_r+0x1ae8>
    41f4:	eafff9df 	b	2978 <_vfprintf_r+0xddc>
    41f8:	e59b3064 	ldr	r3, [fp, #100]	; 0x64
    41fc:	e3130001 	tst	r3, #1
    4200:	1a000003 	bne	4214 <_vfprintf_r+0x2678>
    4204:	e1db30bc 	ldrh	r3, [fp, #12]
    4208:	e3130c02 	tst	r3, #512	; 0x200
    420c:	059b0058 	ldreq	r0, [fp, #88]	; 0x58
    4210:	0b000a2c 	bleq	6ac8 <__retarget_lock_release_recursive>
    4214:	e3e03000 	mvn	r3, #0
    4218:	e58d3024 	str	r3, [sp, #36]	; 0x24
    421c:	eafff9dd 	b	2998 <_vfprintf_r+0xdfc>
    4220:	e2833001 	add	r3, r3, #1
    4224:	e59f226c 	ldr	r2, [pc, #620]	; 4498 <_vfprintf_r+0x28fc>
    4228:	e0844005 	add	r4, r4, r5
    422c:	e3530007 	cmp	r3, #7
    4230:	e5895004 	str	r5, [r9, #4]
    4234:	e5892000 	str	r2, [r9]
    4238:	e58d40a8 	str	r4, [sp, #168]	; 0xa8
    423c:	e58d30a4 	str	r3, [sp, #164]	; 0xa4
    4240:	daffff5f 	ble	3fc4 <_vfprintf_r+0x2428>
    4244:	e1a01007 	mov	r1, r7
    4248:	e1a0000b 	mov	r0, fp
    424c:	e28d20a0 	add	r2, sp, #160	; 0xa0
    4250:	eb001074 	bl	8428 <__sprint_r>
    4254:	e3500000 	cmp	r0, #0
    4258:	1afff9bf 	bne	295c <_vfprintf_r+0xdc0>
    425c:	e28d30a4 	add	r3, sp, #164	; 0xa4
    4260:	e8930018 	ldm	r3, {r3, r4}
    4264:	e28d90ac 	add	r9, sp, #172	; 0xac
    4268:	eafffb7c 	b	3060 <_vfprintf_r+0x14c4>
    426c:	e3a05001 	mov	r5, #1
    4270:	e3a0202d 	mov	r2, #45	; 0x2d
    4274:	e28d4050 	add	r4, sp, #80	; 0x50
    4278:	e8940018 	ldm	r4, {r3, r4}
    427c:	e58d203c 	str	r2, [sp, #60]	; 0x3c
    4280:	e58d3028 	str	r3, [sp, #40]	; 0x28
    4284:	e2846102 	add	r6, r4, #-2147483648	; 0x80000000
    4288:	eafffe12 	b	3ad8 <_vfprintf_r+0x1f3c>
    428c:	e59d3054 	ldr	r3, [sp, #84]	; 0x54
    4290:	e3530000 	cmp	r3, #0
    4294:	b3a0202d 	movlt	r2, #45	; 0x2d
    4298:	e3a00000 	mov	r0, #0
    429c:	e3a0c003 	mov	ip, #3
    42a0:	a5dd2083 	ldrbge	r2, [sp, #131]	; 0x83
    42a4:	b5cd2083 	strblt	r2, [sp, #131]	; 0x83
    42a8:	e58d0030 	str	r0, [sp, #48]	; 0x30
    42ac:	e58dc01c 	str	ip, [sp, #28]
    42b0:	e59f11e8 	ldr	r1, [pc, #488]	; 44a0 <_vfprintf_r+0x2904>
    42b4:	e59f31e8 	ldr	r3, [pc, #488]	; 44a4 <_vfprintf_r+0x2908>
    42b8:	e3caa080 	bic	sl, sl, #128	; 0x80
    42bc:	eafff7c3 	b	21d0 <_vfprintf_r+0x634>
    42c0:	e1a0b007 	mov	fp, r7
    42c4:	eafff9ab 	b	2978 <_vfprintf_r+0xddc>
    42c8:	e59d3048 	ldr	r3, [sp, #72]	; 0x48
    42cc:	e58d3098 	str	r3, [sp, #152]	; 0x98
    42d0:	e59d3044 	ldr	r3, [sp, #68]	; 0x44
    42d4:	e5562001 	ldrb	r2, [r6, #-1]
    42d8:	e5d3100f 	ldrb	r1, [r3, #15]
    42dc:	e1520001 	cmp	r2, r1
    42e0:	e1a03006 	mov	r3, r6
    42e4:	1a000007 	bne	4308 <_vfprintf_r+0x276c>
    42e8:	e3a00030 	mov	r0, #48	; 0x30
    42ec:	e5430001 	strb	r0, [r3, #-1]
    42f0:	e59d3098 	ldr	r3, [sp, #152]	; 0x98
    42f4:	e2432001 	sub	r2, r3, #1
    42f8:	e58d2098 	str	r2, [sp, #152]	; 0x98
    42fc:	e5532001 	ldrb	r2, [r3, #-1]
    4300:	e1510002 	cmp	r1, r2
    4304:	0afffff8 	beq	42ec <_vfprintf_r+0x2750>
    4308:	e3520039 	cmp	r2, #57	; 0x39
    430c:	059d2044 	ldreq	r2, [sp, #68]	; 0x44
    4310:	12822001 	addne	r2, r2, #1
    4314:	05d2200a 	ldrbeq	r2, [r2, #10]
    4318:	120220ff 	andne	r2, r2, #255	; 0xff
    431c:	e5432001 	strb	r2, [r3, #-1]
    4320:	eafffc01 	b	332c <_vfprintf_r+0x1790>
    4324:	e59d3044 	ldr	r3, [sp, #68]	; 0x44
    4328:	e58d3028 	str	r3, [sp, #40]	; 0x28
    432c:	eafffe4c 	b	3c64 <_vfprintf_r+0x20c8>
    4330:	e3a03067 	mov	r3, #103	; 0x67
    4334:	e58d3040 	str	r3, [sp, #64]	; 0x40
    4338:	eafffe37 	b	3c1c <_vfprintf_r+0x2080>
    433c:	e59d201c 	ldr	r2, [sp, #28]
    4340:	e3520041 	cmp	r2, #65	; 0x41
    4344:	13a02030 	movne	r2, #48	; 0x30
    4348:	028d2092 	addeq	r2, sp, #146	; 0x92
    434c:	15cd2092 	strbne	r2, [sp, #146]	; 0x92
    4350:	e2833030 	add	r3, r3, #48	; 0x30
    4354:	128d2093 	addne	r2, sp, #147	; 0x93
    4358:	e4c23001 	strb	r3, [r2], #1
    435c:	e28d3090 	add	r3, sp, #144	; 0x90
    4360:	e0423003 	sub	r3, r2, r3
    4364:	e58d306c 	str	r3, [sp, #108]	; 0x6c
    4368:	eafffd87 	b	398c <_vfprintf_r+0x1df0>
    436c:	e59d305c 	ldr	r3, [sp, #92]	; 0x5c
    4370:	e0823003 	add	r3, r2, r3
    4374:	e0833005 	add	r3, r3, r5
    4378:	e58d3028 	str	r3, [sp, #40]	; 0x28
    437c:	e3a03066 	mov	r3, #102	; 0x66
    4380:	e58d3040 	str	r3, [sp, #64]	; 0x40
    4384:	eafffe22 	b	3c14 <_vfprintf_r+0x2078>
    4388:	e31a0001 	tst	sl, #1
    438c:	0afffd88 	beq	39b4 <_vfprintf_r+0x1e18>
    4390:	eafffd83 	b	39a4 <_vfprintf_r+0x1e08>
    4394:	e1a07009 	mov	r7, r9
    4398:	e1a04000 	mov	r4, r0
    439c:	e1a09002 	mov	r9, r2
    43a0:	e58da074 	str	sl, [sp, #116]	; 0x74
    43a4:	e58d603c 	str	r6, [sp, #60]	; 0x3c
    43a8:	e59da044 	ldr	sl, [sp, #68]	; 0x44
    43ac:	e59d8058 	ldr	r8, [sp, #88]	; 0x58
    43b0:	e59d303c 	ldr	r3, [sp, #60]	; 0x3c
    43b4:	e59d2028 	ldr	r2, [sp, #40]	; 0x28
    43b8:	e1530002 	cmp	r3, r2
    43bc:	21a03002 	movcs	r3, r2
    43c0:	e58d303c 	str	r3, [sp, #60]	; 0x3c
    43c4:	eafffa6c 	b	2d7c <_vfprintf_r+0x11e0>
    43c8:	e1933005 	orrs	r3, r3, r5
    43cc:	1a000005 	bne	43e8 <_vfprintf_r+0x284c>
    43d0:	e3a03001 	mov	r3, #1
    43d4:	e3a02066 	mov	r2, #102	; 0x66
    43d8:	e58d301c 	str	r3, [sp, #28]
    43dc:	e58d2040 	str	r2, [sp, #64]	; 0x40
    43e0:	e58d3028 	str	r3, [sp, #40]	; 0x28
    43e4:	eafffe0f 	b	3c28 <_vfprintf_r+0x208c>
    43e8:	e3a02066 	mov	r2, #102	; 0x66
    43ec:	e59d305c 	ldr	r3, [sp, #92]	; 0x5c
    43f0:	e2833001 	add	r3, r3, #1
    43f4:	e0833005 	add	r3, r3, r5
    43f8:	e58d3028 	str	r3, [sp, #40]	; 0x28
    43fc:	e1c33fc3 	bic	r3, r3, r3, asr #31
    4400:	e58d2040 	str	r2, [sp, #64]	; 0x40
    4404:	e58d301c 	str	r3, [sp, #28]
    4408:	eafffe06 	b	3c28 <_vfprintf_r+0x208c>
    440c:	e59d2034 	ldr	r2, [sp, #52]	; 0x34
    4410:	e4925004 	ldr	r5, [r2], #4
    4414:	e1550004 	cmp	r5, r4
    4418:	e5d83001 	ldrb	r3, [r8, #1]
    441c:	b1a05004 	movlt	r5, r4
    4420:	e1a08001 	mov	r8, r1
    4424:	e58d2034 	str	r2, [sp, #52]	; 0x34
    4428:	eafff640 	b	1d30 <_vfprintf_r+0x194>
    442c:	e2653001 	rsb	r3, r5, #1
    4430:	e58d3088 	str	r3, [sp, #136]	; 0x88
    4434:	eafffdc9 	b	3b60 <_vfprintf_r+0x1fc4>
    4438:	e59dc0a4 	ldr	ip, [sp, #164]	; 0xa4
    443c:	eafffe94 	b	3e94 <_vfprintf_r+0x22f8>
    4440:	e1a04005 	mov	r4, r5
    4444:	eafffcf3 	b	3818 <_vfprintf_r+0x1c7c>
    4448:	e1d730bc 	ldrh	r3, [r7, #12]
    444c:	e3833040 	orr	r3, r3, #64	; 0x40
    4450:	e1a0b007 	mov	fp, r7
    4454:	e1c730bc 	strh	r3, [r7, #12]
    4458:	eafff946 	b	2978 <_vfprintf_r+0xddc>
    445c:	e3a03000 	mov	r3, #0
    4460:	e58d3030 	str	r3, [sp, #48]	; 0x30
    4464:	eafffbb4 	b	333c <_vfprintf_r+0x17a0>
    4468:	e3a03002 	mov	r3, #2
    446c:	e58d306c 	str	r3, [sp, #108]	; 0x6c
    4470:	eafffd45 	b	398c <_vfprintf_r+0x1df0>
    4474:	e59d3038 	ldr	r3, [sp, #56]	; 0x38
    4478:	e59d204c 	ldr	r2, [sp, #76]	; 0x4c
    447c:	e0833002 	add	r3, r3, r2
    4480:	e58d3028 	str	r3, [sp, #40]	; 0x28
    4484:	eaffffc9 	b	43b0 <_vfprintf_r+0x2814>
    4488:	e3a03000 	mov	r3, #0
    448c:	e58d3058 	str	r3, [sp, #88]	; 0x58
    4490:	e58d3048 	str	r3, [sp, #72]	; 0x48
    4494:	eafffe10 	b	3cdc <_vfprintf_r+0x2140>
    4498:	0000bfac 	.word	0x0000bfac
    449c:	0000bf9c 	.word	0x0000bf9c
    44a0:	0000bf60 	.word	0x0000bf60
    44a4:	0000bf64 	.word	0x0000bf64

000044a8 <__sbprintf>:
    44a8:	e92d41f0 	push	{r4, r5, r6, r7, r8, lr}
    44ac:	e24dde46 	sub	sp, sp, #1120	; 0x460
    44b0:	e24dd008 	sub	sp, sp, #8
    44b4:	e1a0700d 	mov	r7, sp
    44b8:	e3a0cb01 	mov	ip, #1024	; 0x400
    44bc:	e3a0e000 	mov	lr, #0
    44c0:	e1a05002 	mov	r5, r2
    44c4:	e1a06000 	mov	r6, r0
    44c8:	e1a08003 	mov	r8, r3
    44cc:	e28d3068 	add	r3, sp, #104	; 0x68
    44d0:	e58d3000 	str	r3, [sp]
    44d4:	e58d3010 	str	r3, [sp, #16]
    44d8:	e1d130bc 	ldrh	r3, [r1, #12]
    44dc:	e3c33002 	bic	r3, r3, #2
    44e0:	e1c730bc 	strh	r3, [r7, #12]
    44e4:	e5913064 	ldr	r3, [r1, #100]	; 0x64
    44e8:	e58d3064 	str	r3, [sp, #100]	; 0x64
    44ec:	e1d130be 	ldrh	r3, [r1, #14]
    44f0:	e1c730be 	strh	r3, [r7, #14]
    44f4:	e591301c 	ldr	r3, [r1, #28]
    44f8:	e58d301c 	str	r3, [sp, #28]
    44fc:	e5913024 	ldr	r3, [r1, #36]	; 0x24
    4500:	e28d0058 	add	r0, sp, #88	; 0x58
    4504:	e1a04001 	mov	r4, r1
    4508:	e58de018 	str	lr, [sp, #24]
    450c:	e58dc008 	str	ip, [sp, #8]
    4510:	e58dc014 	str	ip, [sp, #20]
    4514:	e58d3024 	str	r3, [sp, #36]	; 0x24
    4518:	eb000967 	bl	6abc <__retarget_lock_init_recursive>
    451c:	e1a02005 	mov	r2, r5
    4520:	e1a03008 	mov	r3, r8
    4524:	e1a01007 	mov	r1, r7
    4528:	e1a00006 	mov	r0, r6
    452c:	ebfff59a 	bl	1b9c <_vfprintf_r>
    4530:	e2505000 	subs	r5, r0, #0
    4534:	ba000004 	blt	454c <__sbprintf+0xa4>
    4538:	e1a01007 	mov	r1, r7
    453c:	e1a00006 	mov	r0, r6
    4540:	eb000794 	bl	6398 <_fflush_r>
    4544:	e3500000 	cmp	r0, #0
    4548:	13e05000 	mvnne	r5, #0
    454c:	e1dd30bc 	ldrh	r3, [sp, #12]
    4550:	e3130040 	tst	r3, #64	; 0x40
    4554:	11d430bc 	ldrhne	r3, [r4, #12]
    4558:	13833040 	orrne	r3, r3, #64	; 0x40
    455c:	e59d0058 	ldr	r0, [sp, #88]	; 0x58
    4560:	11c430bc 	strhne	r3, [r4, #12]
    4564:	eb000955 	bl	6ac0 <__retarget_lock_close_recursive>
    4568:	e1a00005 	mov	r0, r5
    456c:	e28dde46 	add	sp, sp, #1120	; 0x460
    4570:	e28dd008 	add	sp, sp, #8
    4574:	e8bd41f0 	pop	{r4, r5, r6, r7, r8, lr}
    4578:	e12fff1e 	bx	lr

0000457c <__swsetup_r>:
    457c:	e59f3160 	ldr	r3, [pc, #352]	; 46e4 <__swsetup_r+0x168>
    4580:	e5933000 	ldr	r3, [r3]
    4584:	e3530000 	cmp	r3, #0
    4588:	e92d4070 	push	{r4, r5, r6, lr}
    458c:	e1a05000 	mov	r5, r0
    4590:	e1a04001 	mov	r4, r1
    4594:	0a000002 	beq	45a4 <__swsetup_r+0x28>
    4598:	e5932038 	ldr	r2, [r3, #56]	; 0x38
    459c:	e3520000 	cmp	r2, #0
    45a0:	0a000020 	beq	4628 <__swsetup_r+0xac>
    45a4:	e1d420fc 	ldrsh	r2, [r4, #12]
    45a8:	e1a03802 	lsl	r3, r2, #16
    45ac:	e3120008 	tst	r2, #8
    45b0:	e1a03823 	lsr	r3, r3, #16
    45b4:	0a00001e 	beq	4634 <__swsetup_r+0xb8>
    45b8:	e5941010 	ldr	r1, [r4, #16]
    45bc:	e3510000 	cmp	r1, #0
    45c0:	0a000026 	beq	4660 <__swsetup_r+0xe4>
    45c4:	e2130001 	ands	r0, r3, #1
    45c8:	1a000007 	bne	45ec <__swsetup_r+0x70>
    45cc:	e3130002 	tst	r3, #2
    45d0:	05940014 	ldreq	r0, [r4, #20]
    45d4:	e3510000 	cmp	r1, #0
    45d8:	e5840008 	str	r0, [r4, #8]
    45dc:	13a00000 	movne	r0, #0
    45e0:	0a000009 	beq	460c <__swsetup_r+0x90>
    45e4:	e8bd4070 	pop	{r4, r5, r6, lr}
    45e8:	e12fff1e 	bx	lr
    45ec:	e3a0c000 	mov	ip, #0
    45f0:	e5940014 	ldr	r0, [r4, #20]
    45f4:	e3510000 	cmp	r1, #0
    45f8:	e2600000 	rsb	r0, r0, #0
    45fc:	e5840018 	str	r0, [r4, #24]
    4600:	e584c008 	str	ip, [r4, #8]
    4604:	13a00000 	movne	r0, #0
    4608:	1afffff5 	bne	45e4 <__swsetup_r+0x68>
    460c:	e3130080 	tst	r3, #128	; 0x80
    4610:	13822040 	orrne	r2, r2, #64	; 0x40
    4614:	13e00000 	mvnne	r0, #0
    4618:	01a00001 	moveq	r0, r1
    461c:	11c420bc 	strhne	r2, [r4, #12]
    4620:	e8bd4070 	pop	{r4, r5, r6, lr}
    4624:	e12fff1e 	bx	lr
    4628:	e1a00003 	mov	r0, r3
    462c:	eb000786 	bl	644c <__sinit>
    4630:	eaffffdb 	b	45a4 <__swsetup_r+0x28>
    4634:	e3130010 	tst	r3, #16
    4638:	0a000023 	beq	46cc <__swsetup_r+0x150>
    463c:	e3130004 	tst	r3, #4
    4640:	1a000011 	bne	468c <__swsetup_r+0x110>
    4644:	e5941010 	ldr	r1, [r4, #16]
    4648:	e3822008 	orr	r2, r2, #8
    464c:	e1a03802 	lsl	r3, r2, #16
    4650:	e3510000 	cmp	r1, #0
    4654:	e1c420bc 	strh	r2, [r4, #12]
    4658:	e1a03823 	lsr	r3, r3, #16
    465c:	1affffd8 	bne	45c4 <__swsetup_r+0x48>
    4660:	e2030d0a 	and	r0, r3, #640	; 0x280
    4664:	e3500c02 	cmp	r0, #512	; 0x200
    4668:	0affffd5 	beq	45c4 <__swsetup_r+0x48>
    466c:	e1a01004 	mov	r1, r4
    4670:	e1a00005 	mov	r0, r5
    4674:	eb000914 	bl	6acc <__smakebuf_r>
    4678:	e1d420fc 	ldrsh	r2, [r4, #12]
    467c:	e1a03802 	lsl	r3, r2, #16
    4680:	e5941010 	ldr	r1, [r4, #16]
    4684:	e1a03823 	lsr	r3, r3, #16
    4688:	eaffffcd 	b	45c4 <__swsetup_r+0x48>
    468c:	e5941030 	ldr	r1, [r4, #48]	; 0x30
    4690:	e3510000 	cmp	r1, #0
    4694:	0a000007 	beq	46b8 <__swsetup_r+0x13c>
    4698:	e2843040 	add	r3, r4, #64	; 0x40
    469c:	e1510003 	cmp	r1, r3
    46a0:	0a000002 	beq	46b0 <__swsetup_r+0x134>
    46a4:	e1a00005 	mov	r0, r5
    46a8:	eb000827 	bl	674c <_free_r>
    46ac:	e1d420fc 	ldrsh	r2, [r4, #12]
    46b0:	e3a03000 	mov	r3, #0
    46b4:	e5843030 	str	r3, [r4, #48]	; 0x30
    46b8:	e3a03000 	mov	r3, #0
    46bc:	e5941010 	ldr	r1, [r4, #16]
    46c0:	e3c22024 	bic	r2, r2, #36	; 0x24
    46c4:	e884000a 	stm	r4, {r1, r3}
    46c8:	eaffffde 	b	4648 <__swsetup_r+0xcc>
    46cc:	e3a03009 	mov	r3, #9
    46d0:	e3822040 	orr	r2, r2, #64	; 0x40
    46d4:	e5853000 	str	r3, [r5]
    46d8:	e3e00000 	mvn	r0, #0
    46dc:	e1c420bc 	strh	r2, [r4, #12]
    46e0:	eaffffbf 	b	45e4 <__swsetup_r+0x68>
    46e4:	200000c0 	.word	0x200000c0

000046e8 <register_fini>:
    46e8:	e59f3018 	ldr	r3, [pc, #24]	; 4708 <register_fini+0x20>
    46ec:	e3530000 	cmp	r3, #0
    46f0:	012fff1e 	bxeq	lr
    46f4:	e92d4010 	push	{r4, lr}
    46f8:	e59f000c 	ldr	r0, [pc, #12]	; 470c <register_fini+0x24>
    46fc:	eb000051 	bl	4848 <atexit>
    4700:	e8bd4010 	pop	{r4, lr}
    4704:	e12fff1e 	bx	lr
    4708:	00000000 	.word	0x00000000
    470c:	00006608 	.word	0x00006608

00004710 <__call_exitprocs>:
    4710:	e92d4ff0 	push	{r4, r5, r6, r7, r8, r9, sl, fp, lr}
    4714:	e1a0b000 	mov	fp, r0
    4718:	e59f3120 	ldr	r3, [pc, #288]	; 4840 <__call_exitprocs+0x130>
    471c:	e24dd00c 	sub	sp, sp, #12
    4720:	e5930000 	ldr	r0, [r3]
    4724:	e1a07001 	mov	r7, r1
    4728:	e58db004 	str	fp, [sp, #4]
    472c:	eb0008e4 	bl	6ac4 <__retarget_lock_acquire_recursive>
    4730:	e59f310c 	ldr	r3, [pc, #268]	; 4844 <__call_exitprocs+0x134>
    4734:	e5938000 	ldr	r8, [r3]
    4738:	e5986148 	ldr	r6, [r8, #328]	; 0x148
    473c:	e3560000 	cmp	r6, #0
    4740:	0a000028 	beq	47e8 <__call_exitprocs+0xd8>
    4744:	e3a09001 	mov	r9, #1
    4748:	e3a0a000 	mov	sl, #0
    474c:	e5964004 	ldr	r4, [r6, #4]
    4750:	e2545001 	subs	r5, r4, #1
    4754:	4a000023 	bmi	47e8 <__call_exitprocs+0xd8>
    4758:	e2844001 	add	r4, r4, #1
    475c:	e0864104 	add	r4, r6, r4, lsl #2
    4760:	ea000003 	b	4774 <__call_exitprocs+0x64>
    4764:	e2455001 	sub	r5, r5, #1
    4768:	e3750001 	cmn	r5, #1
    476c:	e2444004 	sub	r4, r4, #4
    4770:	0a00001c 	beq	47e8 <__call_exitprocs+0xd8>
    4774:	e3570000 	cmp	r7, #0
    4778:	0a000002 	beq	4788 <__call_exitprocs+0x78>
    477c:	e5943100 	ldr	r3, [r4, #256]	; 0x100
    4780:	e1530007 	cmp	r3, r7
    4784:	1afffff6 	bne	4764 <__call_exitprocs+0x54>
    4788:	e5963004 	ldr	r3, [r6, #4]
    478c:	e5942000 	ldr	r2, [r4]
    4790:	e2433001 	sub	r3, r3, #1
    4794:	e1530005 	cmp	r3, r5
    4798:	05865004 	streq	r5, [r6, #4]
    479c:	1584a000 	strne	sl, [r4]
    47a0:	e3520000 	cmp	r2, #0
    47a4:	0affffee 	beq	4764 <__call_exitprocs+0x54>
    47a8:	e5963188 	ldr	r3, [r6, #392]	; 0x188
    47ac:	e1a01519 	lsl	r1, r9, r5
    47b0:	e1110003 	tst	r1, r3
    47b4:	e596b004 	ldr	fp, [r6, #4]
    47b8:	1a000010 	bne	4800 <__call_exitprocs+0xf0>
    47bc:	e1a0e00f 	mov	lr, pc
    47c0:	e12fff12 	bx	r2
    47c4:	e5962004 	ldr	r2, [r6, #4]
    47c8:	e152000b 	cmp	r2, fp
    47cc:	1a000015 	bne	4828 <__call_exitprocs+0x118>
    47d0:	e5983148 	ldr	r3, [r8, #328]	; 0x148
    47d4:	e1530006 	cmp	r3, r6
    47d8:	0affffe1 	beq	4764 <__call_exitprocs+0x54>
    47dc:	e1a06003 	mov	r6, r3
    47e0:	e3560000 	cmp	r6, #0
    47e4:	1affffd8 	bne	474c <__call_exitprocs+0x3c>
    47e8:	e59f3050 	ldr	r3, [pc, #80]	; 4840 <__call_exitprocs+0x130>
    47ec:	e5930000 	ldr	r0, [r3]
    47f0:	eb0008b4 	bl	6ac8 <__retarget_lock_release_recursive>
    47f4:	e28dd00c 	add	sp, sp, #12
    47f8:	e8bd4ff0 	pop	{r4, r5, r6, r7, r8, r9, sl, fp, lr}
    47fc:	e12fff1e 	bx	lr
    4800:	e596018c 	ldr	r0, [r6, #396]	; 0x18c
    4804:	e1110000 	tst	r1, r0
    4808:	1a000008 	bne	4830 <__call_exitprocs+0x120>
    480c:	e59d0004 	ldr	r0, [sp, #4]
    4810:	e5941080 	ldr	r1, [r4, #128]	; 0x80
    4814:	e1a0e00f 	mov	lr, pc
    4818:	e12fff12 	bx	r2
    481c:	e5962004 	ldr	r2, [r6, #4]
    4820:	e152000b 	cmp	r2, fp
    4824:	0affffe9 	beq	47d0 <__call_exitprocs+0xc0>
    4828:	e5986148 	ldr	r6, [r8, #328]	; 0x148
    482c:	eaffffeb 	b	47e0 <__call_exitprocs+0xd0>
    4830:	e5940080 	ldr	r0, [r4, #128]	; 0x80
    4834:	e1a0e00f 	mov	lr, pc
    4838:	e12fff12 	bx	r2
    483c:	eaffffe0 	b	47c4 <__call_exitprocs+0xb4>
    4840:	200004f0 	.word	0x200004f0
    4844:	0000bf54 	.word	0x0000bf54

00004848 <atexit>:
    4848:	e3a03000 	mov	r3, #0
    484c:	e92d4010 	push	{r4, lr}
    4850:	e1a01000 	mov	r1, r0
    4854:	e1a02003 	mov	r2, r3
    4858:	e1a00003 	mov	r0, r3
    485c:	eb001440 	bl	9964 <__register_exitproc>
    4860:	e8bd4010 	pop	{r4, lr}
    4864:	e12fff1e 	bx	lr

00004868 <quorem>:
    4868:	e92d4ff0 	push	{r4, r5, r6, r7, r8, r9, sl, fp, lr}
    486c:	e5903010 	ldr	r3, [r0, #16]
    4870:	e5914010 	ldr	r4, [r1, #16]
    4874:	e24dd014 	sub	sp, sp, #20
    4878:	e1530004 	cmp	r3, r4
    487c:	e88d0003 	stm	sp, {r0, r1}
    4880:	b3a00000 	movlt	r0, #0
    4884:	ba000063 	blt	4a18 <quorem+0x1b0>
    4888:	e2444001 	sub	r4, r4, #1
    488c:	e2815014 	add	r5, r1, #20
    4890:	e2808014 	add	r8, r0, #20
    4894:	e7957104 	ldr	r7, [r5, r4, lsl #2]
    4898:	e7989104 	ldr	r9, [r8, r4, lsl #2]
    489c:	e2877001 	add	r7, r7, #1
    48a0:	e1a03104 	lsl	r3, r4, #2
    48a4:	e1a01007 	mov	r1, r7
    48a8:	e1a00009 	mov	r0, r9
    48ac:	e58d3008 	str	r3, [sp, #8]
    48b0:	ebfff354 	bl	1608 <__udivsi3>
    48b4:	e1590007 	cmp	r9, r7
    48b8:	e0883104 	add	r3, r8, r4, lsl #2
    48bc:	e1a06000 	mov	r6, r0
    48c0:	e58d300c 	str	r3, [sp, #12]
    48c4:	e0857104 	add	r7, r5, r4, lsl #2
    48c8:	3a00002a 	bcc	4978 <quorem+0x110>
    48cc:	e3a01000 	mov	r1, #0
    48d0:	e1a09005 	mov	r9, r5
    48d4:	e1a00008 	mov	r0, r8
    48d8:	e1a02001 	mov	r2, r1
    48dc:	e59fc140 	ldr	ip, [pc, #320]	; 4a24 <quorem+0x1bc>
    48e0:	e499e004 	ldr	lr, [r9], #4
    48e4:	e00e300c 	and	r3, lr, ip
    48e8:	e0211396 	mla	r1, r6, r3, r1
    48ec:	e1a0e82e 	lsr	lr, lr, #16
    48f0:	e1a03821 	lsr	r3, r1, #16
    48f4:	e02e3e96 	mla	lr, r6, lr, r3
    48f8:	e590a000 	ldr	sl, [r0]
    48fc:	e001300c 	and	r3, r1, ip
    4900:	e0423003 	sub	r3, r2, r3
    4904:	e00ab00c 	and	fp, sl, ip
    4908:	e00e200c 	and	r2, lr, ip
    490c:	e083300b 	add	r3, r3, fp
    4910:	e062282a 	rsb	r2, r2, sl, lsr #16
    4914:	e003100c 	and	r1, r3, ip
    4918:	e0823843 	add	r3, r2, r3, asr #16
    491c:	e1811803 	orr	r1, r1, r3, lsl #16
    4920:	e1570009 	cmp	r7, r9
    4924:	e4801004 	str	r1, [r0], #4
    4928:	e1a02843 	asr	r2, r3, #16
    492c:	e1a0182e 	lsr	r1, lr, #16
    4930:	2affffea 	bcs	48e0 <quorem+0x78>
    4934:	e59d3008 	ldr	r3, [sp, #8]
    4938:	e7983003 	ldr	r3, [r8, r3]
    493c:	e3530000 	cmp	r3, #0
    4940:	1a00000c 	bne	4978 <quorem+0x110>
    4944:	e59d300c 	ldr	r3, [sp, #12]
    4948:	e2433004 	sub	r3, r3, #4
    494c:	e1580003 	cmp	r8, r3
    4950:	3a000003 	bcc	4964 <quorem+0xfc>
    4954:	ea000005 	b	4970 <quorem+0x108>
    4958:	e1580003 	cmp	r8, r3
    495c:	e2444001 	sub	r4, r4, #1
    4960:	2a000002 	bcs	4970 <quorem+0x108>
    4964:	e4132004 	ldr	r2, [r3], #-4
    4968:	e3520000 	cmp	r2, #0
    496c:	0afffff9 	beq	4958 <quorem+0xf0>
    4970:	e59d3000 	ldr	r3, [sp]
    4974:	e5834010 	str	r4, [r3, #16]
    4978:	e89d0003 	ldm	sp, {r0, r1}
    497c:	eb000cde 	bl	7cfc <__mcmp>
    4980:	e3500000 	cmp	r0, #0
    4984:	ba000022 	blt	4a14 <quorem+0x1ac>
    4988:	e1a00008 	mov	r0, r8
    498c:	e3a02000 	mov	r2, #0
    4990:	e59f108c 	ldr	r1, [pc, #140]	; 4a24 <quorem+0x1bc>
    4994:	e2866001 	add	r6, r6, #1
    4998:	e495c004 	ldr	ip, [r5], #4
    499c:	e590e000 	ldr	lr, [r0]
    49a0:	e00c3001 	and	r3, ip, r1
    49a4:	e0422003 	sub	r2, r2, r3
    49a8:	e1a0c82c 	lsr	ip, ip, #16
    49ac:	e00e3001 	and	r3, lr, r1
    49b0:	e0823003 	add	r3, r2, r3
    49b4:	e06cc82e 	rsb	ip, ip, lr, lsr #16
    49b8:	e08c2843 	add	r2, ip, r3, asr #16
    49bc:	e0033001 	and	r3, r3, r1
    49c0:	e1833802 	orr	r3, r3, r2, lsl #16
    49c4:	e1570005 	cmp	r7, r5
    49c8:	e4803004 	str	r3, [r0], #4
    49cc:	e1a02842 	asr	r2, r2, #16
    49d0:	2afffff0 	bcs	4998 <quorem+0x130>
    49d4:	e7982104 	ldr	r2, [r8, r4, lsl #2]
    49d8:	e3520000 	cmp	r2, #0
    49dc:	e0883104 	add	r3, r8, r4, lsl #2
    49e0:	1a00000b 	bne	4a14 <quorem+0x1ac>
    49e4:	e2433004 	sub	r3, r3, #4
    49e8:	e1580003 	cmp	r8, r3
    49ec:	3a000003 	bcc	4a00 <quorem+0x198>
    49f0:	ea000005 	b	4a0c <quorem+0x1a4>
    49f4:	e1580003 	cmp	r8, r3
    49f8:	e2444001 	sub	r4, r4, #1
    49fc:	2a000002 	bcs	4a0c <quorem+0x1a4>
    4a00:	e4132004 	ldr	r2, [r3], #-4
    4a04:	e3520000 	cmp	r2, #0
    4a08:	0afffff9 	beq	49f4 <quorem+0x18c>
    4a0c:	e59d3000 	ldr	r3, [sp]
    4a10:	e5834010 	str	r4, [r3, #16]
    4a14:	e1a00006 	mov	r0, r6
    4a18:	e28dd014 	add	sp, sp, #20
    4a1c:	e8bd4ff0 	pop	{r4, r5, r6, r7, r8, r9, sl, fp, lr}
    4a20:	e12fff1e 	bx	lr
    4a24:	0000ffff 	.word	0x0000ffff

00004a28 <_dtoa_r>:
    4a28:	e92d4ff0 	push	{r4, r5, r6, r7, r8, r9, sl, fp, lr}
    4a2c:	e1a06002 	mov	r6, r2
    4a30:	e1a07003 	mov	r7, r3
    4a34:	e5901040 	ldr	r1, [r0, #64]	; 0x40
    4a38:	e24dd06c 	sub	sp, sp, #108	; 0x6c
    4a3c:	e3510000 	cmp	r1, #0
    4a40:	e1a04000 	mov	r4, r0
    4a44:	e58d6008 	str	r6, [sp, #8]
    4a48:	e58d700c 	str	r7, [sp, #12]
    4a4c:	e59d509c 	ldr	r5, [sp, #156]	; 0x9c
    4a50:	0a000007 	beq	4a74 <_dtoa_r+0x4c>
    4a54:	e3a03001 	mov	r3, #1
    4a58:	e5902044 	ldr	r2, [r0, #68]	; 0x44
    4a5c:	e1a03213 	lsl	r3, r3, r2
    4a60:	e5813008 	str	r3, [r1, #8]
    4a64:	e5812004 	str	r2, [r1, #4]
    4a68:	eb000ad7 	bl	75cc <_Bfree>
    4a6c:	e3a03000 	mov	r3, #0
    4a70:	e5843040 	str	r3, [r4, #64]	; 0x40
    4a74:	e2579000 	subs	r9, r7, #0
    4a78:	b3a03001 	movlt	r3, #1
    4a7c:	a3a03000 	movge	r3, #0
    4a80:	e5853000 	str	r3, [r5]
    4a84:	e59f3304 	ldr	r3, [pc, #772]	; 4d90 <_dtoa_r+0x368>
    4a88:	b3c99102 	biclt	r9, r9, #-2147483648	; 0x80000000
    4a8c:	b58d900c 	strlt	r9, [sp, #12]
    4a90:	e1d33009 	bics	r3, r3, r9
    4a94:	0a000089 	beq	4cc0 <_dtoa_r+0x298>
    4a98:	e28d3008 	add	r3, sp, #8
    4a9c:	e893000c 	ldm	r3, {r2, r3}
    4aa0:	e1a00002 	mov	r0, r2
    4aa4:	e1a01003 	mov	r1, r3
    4aa8:	e3a02000 	mov	r2, #0
    4aac:	e3a03000 	mov	r3, #0
    4ab0:	e58d0020 	str	r0, [sp, #32]
    4ab4:	e58d1024 	str	r1, [sp, #36]	; 0x24
    4ab8:	eb001b59 	bl	b824 <__aeabi_dcmpeq>
    4abc:	e2508000 	subs	r8, r0, #0
    4ac0:	0a00000d 	beq	4afc <_dtoa_r+0xd4>
    4ac4:	e3a03001 	mov	r3, #1
    4ac8:	e59d20a0 	ldr	r2, [sp, #160]	; 0xa0
    4acc:	e3520000 	cmp	r2, #0
    4ad0:	e59d2098 	ldr	r2, [sp, #152]	; 0x98
    4ad4:	e5823000 	str	r3, [r2]
    4ad8:	0a00024d 	beq	5414 <_dtoa_r+0x9ec>
    4adc:	e59f8284 	ldr	r8, [pc, #644]	; 4d68 <_dtoa_r+0x340>
    4ae0:	e59d30a0 	ldr	r3, [sp, #160]	; 0xa0
    4ae4:	e5838000 	str	r8, [r3]
    4ae8:	e2488001 	sub	r8, r8, #1
    4aec:	e1a00008 	mov	r0, r8
    4af0:	e28dd06c 	add	sp, sp, #108	; 0x6c
    4af4:	e8bd4ff0 	pop	{r4, r5, r6, r7, r8, r9, sl, fp, lr}
    4af8:	e12fff1e 	bx	lr
    4afc:	e28d3060 	add	r3, sp, #96	; 0x60
    4b00:	e58d3004 	str	r3, [sp, #4]
    4b04:	e28d3064 	add	r3, sp, #100	; 0x64
    4b08:	e58d3000 	str	r3, [sp]
    4b0c:	e1a00004 	mov	r0, r4
    4b10:	e28d3020 	add	r3, sp, #32
    4b14:	e893000c 	ldm	r3, {r2, r3}
    4b18:	eb000d0c 	bl	7f50 <__d2b>
    4b1c:	e1b05a29 	lsrs	r5, r9, #20
    4b20:	e1a0b000 	mov	fp, r0
    4b24:	1a000077 	bne	4d08 <_dtoa_r+0x2e0>
    4b28:	e59d8060 	ldr	r8, [sp, #96]	; 0x60
    4b2c:	e59d5064 	ldr	r5, [sp, #100]	; 0x64
    4b30:	e0885005 	add	r5, r8, r5
    4b34:	e2850e43 	add	r0, r5, #1072	; 0x430
    4b38:	e2800002 	add	r0, r0, #2
    4b3c:	e3500020 	cmp	r0, #32
    4b40:	c2603040 	rsbgt	r3, r0, #64	; 0x40
    4b44:	c2850e41 	addgt	r0, r5, #1040	; 0x410
    4b48:	c2800002 	addgt	r0, r0, #2
    4b4c:	c1a00036 	lsrgt	r0, r6, r0
    4b50:	d2600020 	rsble	r0, r0, #32
    4b54:	c1800319 	orrgt	r0, r0, r9, lsl r3
    4b58:	d1a00016 	lslle	r0, r6, r0
    4b5c:	eb001994 	bl	b1b4 <__aeabi_ui2d>
    4b60:	e3a03001 	mov	r3, #1
    4b64:	e58d3040 	str	r3, [sp, #64]	; 0x40
    4b68:	e2455001 	sub	r5, r5, #1
    4b6c:	e241161f 	sub	r1, r1, #32505856	; 0x1f00000
    4b70:	e3a02000 	mov	r2, #0
    4b74:	e59f31f0 	ldr	r3, [pc, #496]	; 4d6c <_dtoa_r+0x344>
    4b78:	eb0018c8 	bl	aea0 <__aeabi_dsub>
    4b7c:	e28f3f73 	add	r3, pc, #460	; 0x1cc
    4b80:	e893000c 	ldm	r3, {r2, r3}
    4b84:	eb0019cc 	bl	b2bc <__aeabi_dmul>
    4b88:	e28f3f72 	add	r3, pc, #456	; 0x1c8
    4b8c:	e893000c 	ldm	r3, {r2, r3}
    4b90:	eb0018c3 	bl	aea4 <__adddf3>
    4b94:	e1a06000 	mov	r6, r0
    4b98:	e1a00005 	mov	r0, r5
    4b9c:	e1a07001 	mov	r7, r1
    4ba0:	eb00198c 	bl	b1d8 <__aeabi_i2d>
    4ba4:	e28f3f6d 	add	r3, pc, #436	; 0x1b4
    4ba8:	e893000c 	ldm	r3, {r2, r3}
    4bac:	eb0019c2 	bl	b2bc <__aeabi_dmul>
    4bb0:	e1a02000 	mov	r2, r0
    4bb4:	e1a03001 	mov	r3, r1
    4bb8:	e1a00006 	mov	r0, r6
    4bbc:	e1a01007 	mov	r1, r7
    4bc0:	eb0018b7 	bl	aea4 <__adddf3>
    4bc4:	e1a06000 	mov	r6, r0
    4bc8:	e1a07001 	mov	r7, r1
    4bcc:	eb001b40 	bl	b8d4 <__aeabi_d2iz>
    4bd0:	e3a02000 	mov	r2, #0
    4bd4:	e1a0a000 	mov	sl, r0
    4bd8:	e3a03000 	mov	r3, #0
    4bdc:	e1a00006 	mov	r0, r6
    4be0:	e1a01007 	mov	r1, r7
    4be4:	eb001b14 	bl	b83c <__aeabi_dcmplt>
    4be8:	e3500000 	cmp	r0, #0
    4bec:	0a000006 	beq	4c0c <_dtoa_r+0x1e4>
    4bf0:	e1a0000a 	mov	r0, sl
    4bf4:	eb001977 	bl	b1d8 <__aeabi_i2d>
    4bf8:	e1a02006 	mov	r2, r6
    4bfc:	e1a03007 	mov	r3, r7
    4c00:	eb001b07 	bl	b824 <__aeabi_dcmpeq>
    4c04:	e3500000 	cmp	r0, #0
    4c08:	024aa001 	subeq	sl, sl, #1
    4c0c:	e35a0016 	cmp	sl, #22
    4c10:	8a0001f7 	bhi	53f4 <_dtoa_r+0x9cc>
    4c14:	e59f3180 	ldr	r3, [pc, #384]	; 4d9c <_dtoa_r+0x374>
    4c18:	e083318a 	add	r3, r3, sl, lsl #3
    4c1c:	e893000c 	ldm	r3, {r2, r3}
    4c20:	e28d1020 	add	r1, sp, #32
    4c24:	e8910003 	ldm	r1, {r0, r1}
    4c28:	eb001b03 	bl	b83c <__aeabi_dcmplt>
    4c2c:	e3500000 	cmp	r0, #0
    4c30:	0a00005a 	beq	4da0 <_dtoa_r+0x378>
    4c34:	e3a03000 	mov	r3, #0
    4c38:	e58d3034 	str	r3, [sp, #52]	; 0x34
    4c3c:	e24aa001 	sub	sl, sl, #1
    4c40:	e0485005 	sub	r5, r8, r5
    4c44:	e2553001 	subs	r3, r5, #1
    4c48:	e58d3018 	str	r3, [sp, #24]
    4c4c:	53a03000 	movpl	r3, #0
    4c50:	558d3028 	strpl	r3, [sp, #40]	; 0x28
    4c54:	4a0001e9 	bmi	5400 <_dtoa_r+0x9d8>
    4c58:	e35a0000 	cmp	sl, #0
    4c5c:	aa000056 	bge	4dbc <_dtoa_r+0x394>
    4c60:	e59d3028 	ldr	r3, [sp, #40]	; 0x28
    4c64:	e043300a 	sub	r3, r3, sl
    4c68:	e58d3028 	str	r3, [sp, #40]	; 0x28
    4c6c:	e26a3000 	rsb	r3, sl, #0
    4c70:	e58d3030 	str	r3, [sp, #48]	; 0x30
    4c74:	e59d3090 	ldr	r3, [sp, #144]	; 0x90
    4c78:	e3530009 	cmp	r3, #9
    4c7c:	e58da014 	str	sl, [sp, #20]
    4c80:	e3a0a000 	mov	sl, #0
    4c84:	8a000055 	bhi	4de0 <_dtoa_r+0x3b8>
    4c88:	e3530005 	cmp	r3, #5
    4c8c:	d3a05001 	movle	r5, #1
    4c90:	c3a05000 	movgt	r5, #0
    4c94:	c2433004 	subgt	r3, r3, #4
    4c98:	c58d3090 	strgt	r3, [sp, #144]	; 0x90
    4c9c:	e59d3090 	ldr	r3, [sp, #144]	; 0x90
    4ca0:	e2433002 	sub	r3, r3, #2
    4ca4:	e3530003 	cmp	r3, #3
    4ca8:	979ff103 	ldrls	pc, [pc, r3, lsl #2]
    4cac:	ea000407 	b	5cd0 <_dtoa_r+0x12a8>
    4cb0:	00005820 	.word	0x00005820
    4cb4:	00005814 	.word	0x00005814
    4cb8:	000057f0 	.word	0x000057f0
    4cbc:	0000578c 	.word	0x0000578c
    4cc0:	e59f30a8 	ldr	r3, [pc, #168]	; 4d70 <_dtoa_r+0x348>
    4cc4:	e59d2098 	ldr	r2, [sp, #152]	; 0x98
    4cc8:	e3c994ff 	bic	r9, r9, #-16777216	; 0xff000000
    4ccc:	e3c9960f 	bic	r9, r9, #15728640	; 0xf00000
    4cd0:	e5823000 	str	r3, [r2]
    4cd4:	e1993006 	orrs	r3, r9, r6
    4cd8:	0a000016 	beq	4d38 <_dtoa_r+0x310>
    4cdc:	e59d30a0 	ldr	r3, [sp, #160]	; 0xa0
    4ce0:	e3530000 	cmp	r3, #0
    4ce4:	e59f8088 	ldr	r8, [pc, #136]	; 4d74 <_dtoa_r+0x34c>
    4ce8:	0affff7f 	beq	4aec <_dtoa_r+0xc4>
    4cec:	e2883003 	add	r3, r8, #3
    4cf0:	e1a00008 	mov	r0, r8
    4cf4:	e59d20a0 	ldr	r2, [sp, #160]	; 0xa0
    4cf8:	e5823000 	str	r3, [r2]
    4cfc:	e28dd06c 	add	sp, sp, #108	; 0x6c
    4d00:	e8bd4ff0 	pop	{r4, r5, r6, r7, r8, r9, sl, fp, lr}
    4d04:	e12fff1e 	bx	lr
    4d08:	e28d2020 	add	r2, sp, #32
    4d0c:	e8920006 	ldm	r2, {r1, r2}
    4d10:	e3c234ff 	bic	r3, r2, #-16777216	; 0xff000000
    4d14:	e3c3360f 	bic	r3, r3, #15728640	; 0xf00000
    4d18:	e1a00001 	mov	r0, r1
    4d1c:	e2455fff 	sub	r5, r5, #1020	; 0x3fc
    4d20:	e38315ff 	orr	r1, r3, #1069547520	; 0x3fc00000
    4d24:	e58d8040 	str	r8, [sp, #64]	; 0x40
    4d28:	e2455003 	sub	r5, r5, #3
    4d2c:	e59d8060 	ldr	r8, [sp, #96]	; 0x60
    4d30:	e3811603 	orr	r1, r1, #3145728	; 0x300000
    4d34:	eaffff8d 	b	4b70 <_dtoa_r+0x148>
    4d38:	e59d30a0 	ldr	r3, [sp, #160]	; 0xa0
    4d3c:	e59f8034 	ldr	r8, [pc, #52]	; 4d78 <_dtoa_r+0x350>
    4d40:	e3530000 	cmp	r3, #0
    4d44:	12883008 	addne	r3, r8, #8
    4d48:	1affffe8 	bne	4cf0 <_dtoa_r+0x2c8>
    4d4c:	eaffff66 	b	4aec <_dtoa_r+0xc4>
    4d50:	636f4361 	.word	0x636f4361
    4d54:	3fd287a7 	.word	0x3fd287a7
    4d58:	8b60c8b3 	.word	0x8b60c8b3
    4d5c:	3fc68a28 	.word	0x3fc68a28
    4d60:	509f79fb 	.word	0x509f79fb
    4d64:	3fd34413 	.word	0x3fd34413
    4d68:	0000bf99 	.word	0x0000bf99
    4d6c:	3ff80000 	.word	0x3ff80000
    4d70:	0000270f 	.word	0x0000270f
    4d74:	0000bfbc 	.word	0x0000bfbc
    4d78:	0000bfc0 	.word	0x0000bfc0
    4d7c:	3ff00000 	.word	0x3ff00000
    4d80:	0000bf98 	.word	0x0000bf98
    4d84:	0000c0e0 	.word	0x0000c0e0
    4d88:	40140000 	.word	0x40140000
    4d8c:	3fe00000 	.word	0x3fe00000
    4d90:	7ff00000 	.word	0x7ff00000
    4d94:	40240000 	.word	0x40240000
    4d98:	401c0000 	.word	0x401c0000
    4d9c:	0000c108 	.word	0x0000c108
    4da0:	e0485005 	sub	r5, r8, r5
    4da4:	e2553001 	subs	r3, r5, #1
    4da8:	e58d3018 	str	r3, [sp, #24]
    4dac:	458d0034 	strmi	r0, [sp, #52]	; 0x34
    4db0:	4a000192 	bmi	5400 <_dtoa_r+0x9d8>
    4db4:	e58d0034 	str	r0, [sp, #52]	; 0x34
    4db8:	e58d0028 	str	r0, [sp, #40]	; 0x28
    4dbc:	e59d3018 	ldr	r3, [sp, #24]
    4dc0:	e083300a 	add	r3, r3, sl
    4dc4:	e58d3018 	str	r3, [sp, #24]
    4dc8:	e3a03000 	mov	r3, #0
    4dcc:	e58d3030 	str	r3, [sp, #48]	; 0x30
    4dd0:	e59d3090 	ldr	r3, [sp, #144]	; 0x90
    4dd4:	e3530009 	cmp	r3, #9
    4dd8:	e58da014 	str	sl, [sp, #20]
    4ddc:	9affffa9 	bls	4c88 <_dtoa_r+0x260>
    4de0:	e3a03000 	mov	r3, #0
    4de4:	e58d3090 	str	r3, [sp, #144]	; 0x90
    4de8:	e3e03000 	mvn	r3, #0
    4dec:	e3a05001 	mov	r5, #1
    4df0:	e58d301c 	str	r3, [sp, #28]
    4df4:	e3a03000 	mov	r3, #0
    4df8:	e58d502c 	str	r5, [sp, #44]	; 0x2c
    4dfc:	e58d3094 	str	r3, [sp, #148]	; 0x94
    4e00:	e3a01000 	mov	r1, #0
    4e04:	e59d301c 	ldr	r3, [sp, #28]
    4e08:	e5841044 	str	r1, [r4, #68]	; 0x44
    4e0c:	e58d3044 	str	r3, [sp, #68]	; 0x44
    4e10:	e1a00004 	mov	r0, r4
    4e14:	eb0009c9 	bl	7540 <_Balloc>
    4e18:	e2503000 	subs	r3, r0, #0
    4e1c:	e58d3010 	str	r3, [sp, #16]
    4e20:	0a0004b2 	beq	60f0 <_dtoa_r+0x16c8>
    4e24:	e59d301c 	ldr	r3, [sp, #28]
    4e28:	e353000e 	cmp	r3, #14
    4e2c:	83a05000 	movhi	r5, #0
    4e30:	92055001 	andls	r5, r5, #1
    4e34:	e59d3010 	ldr	r3, [sp, #16]
    4e38:	e3550000 	cmp	r5, #0
    4e3c:	e5843040 	str	r3, [r4, #64]	; 0x40
    4e40:	0a0000d2 	beq	5190 <_dtoa_r+0x768>
    4e44:	e59d1014 	ldr	r1, [sp, #20]
    4e48:	e3510000 	cmp	r1, #0
    4e4c:	da0001dc 	ble	55c4 <_dtoa_r+0xb9c>
    4e50:	e51f30bc 	ldr	r3, [pc, #-188]	; 4d9c <_dtoa_r+0x374>
    4e54:	e201200f 	and	r2, r1, #15
    4e58:	e0833182 	add	r3, r3, r2, lsl #3
    4e5c:	e3110c01 	tst	r1, #256	; 0x100
    4e60:	e89300c0 	ldm	r3, {r6, r7}
    4e64:	e1a05241 	asr	r5, r1, #4
    4e68:	0a000241 	beq	5774 <_dtoa_r+0xd4c>
    4e6c:	e51f30f0 	ldr	r3, [pc, #-240]	; 4d84 <_dtoa_r+0x35c>
    4e70:	e28d1020 	add	r1, sp, #32
    4e74:	e8910003 	ldm	r1, {r0, r1}
    4e78:	e2833020 	add	r3, r3, #32
    4e7c:	e893000c 	ldm	r3, {r2, r3}
    4e80:	eb0019b1 	bl	b54c <__aeabi_ddiv>
    4e84:	e3a08003 	mov	r8, #3
    4e88:	e58d0038 	str	r0, [sp, #56]	; 0x38
    4e8c:	e58d103c 	str	r1, [sp, #60]	; 0x3c
    4e90:	e205500f 	and	r5, r5, #15
    4e94:	e3550000 	cmp	r5, #0
    4e98:	0a00000c 	beq	4ed0 <_dtoa_r+0x4a8>
    4e9c:	e51f9120 	ldr	r9, [pc, #-288]	; 4d84 <_dtoa_r+0x35c>
    4ea0:	e3150001 	tst	r5, #1
    4ea4:	0a000006 	beq	4ec4 <_dtoa_r+0x49c>
    4ea8:	e1a00006 	mov	r0, r6
    4eac:	e1a01007 	mov	r1, r7
    4eb0:	e899000c 	ldm	r9, {r2, r3}
    4eb4:	eb001900 	bl	b2bc <__aeabi_dmul>
    4eb8:	e1a06000 	mov	r6, r0
    4ebc:	e1a07001 	mov	r7, r1
    4ec0:	e2888001 	add	r8, r8, #1
    4ec4:	e1b050c5 	asrs	r5, r5, #1
    4ec8:	e2899008 	add	r9, r9, #8
    4ecc:	1afffff3 	bne	4ea0 <_dtoa_r+0x478>
    4ed0:	e28d1038 	add	r1, sp, #56	; 0x38
    4ed4:	e8910003 	ldm	r1, {r0, r1}
    4ed8:	e1a02006 	mov	r2, r6
    4edc:	e1a03007 	mov	r3, r7
    4ee0:	eb001999 	bl	b54c <__aeabi_ddiv>
    4ee4:	e58d0038 	str	r0, [sp, #56]	; 0x38
    4ee8:	e58d103c 	str	r1, [sp, #60]	; 0x3c
    4eec:	e59d3034 	ldr	r3, [sp, #52]	; 0x34
    4ef0:	e3530000 	cmp	r3, #0
    4ef4:	0a000008 	beq	4f1c <_dtoa_r+0x4f4>
    4ef8:	e28d6038 	add	r6, sp, #56	; 0x38
    4efc:	e8960060 	ldm	r6, {r5, r6}
    4f00:	e3a02000 	mov	r2, #0
    4f04:	e1a00005 	mov	r0, r5
    4f08:	e1a01006 	mov	r1, r6
    4f0c:	e51f3198 	ldr	r3, [pc, #-408]	; 4d7c <_dtoa_r+0x354>
    4f10:	eb001a49 	bl	b83c <__aeabi_dcmplt>
    4f14:	e3500000 	cmp	r0, #0
    4f18:	1a000338 	bne	5c00 <_dtoa_r+0x11d8>
    4f1c:	e1a00008 	mov	r0, r8
    4f20:	eb0018ac 	bl	b1d8 <__aeabi_i2d>
    4f24:	e28d3038 	add	r3, sp, #56	; 0x38
    4f28:	e893000c 	ldm	r3, {r2, r3}
    4f2c:	eb0018e2 	bl	b2bc <__aeabi_dmul>
    4f30:	e51f31a0 	ldr	r3, [pc, #-416]	; 4d98 <_dtoa_r+0x370>
    4f34:	e3a02000 	mov	r2, #0
    4f38:	eb0017d9 	bl	aea4 <__adddf3>
    4f3c:	e59d301c 	ldr	r3, [sp, #28]
    4f40:	e3530000 	cmp	r3, #0
    4f44:	e1a08000 	mov	r8, r0
    4f48:	e241950d 	sub	r9, r1, #54525952	; 0x3400000
    4f4c:	0a00007c 	beq	5144 <_dtoa_r+0x71c>
    4f50:	e59d3014 	ldr	r3, [sp, #20]
    4f54:	e58d3058 	str	r3, [sp, #88]	; 0x58
    4f58:	e59d301c 	ldr	r3, [sp, #28]
    4f5c:	e58d3048 	str	r3, [sp, #72]	; 0x48
    4f60:	e59d302c 	ldr	r3, [sp, #44]	; 0x2c
    4f64:	e3530000 	cmp	r3, #0
    4f68:	0a00022f 	beq	582c <_dtoa_r+0xe04>
    4f6c:	e59d2048 	ldr	r2, [sp, #72]	; 0x48
    4f70:	e51f31dc 	ldr	r3, [pc, #-476]	; 4d9c <_dtoa_r+0x374>
    4f74:	e0833182 	add	r3, r3, r2, lsl #3
    4f78:	e913000c 	ldmdb	r3, {r2, r3}
    4f7c:	e3a00000 	mov	r0, #0
    4f80:	e51f11fc 	ldr	r1, [pc, #-508]	; 4d8c <_dtoa_r+0x364>
    4f84:	eb001970 	bl	b54c <__aeabi_ddiv>
    4f88:	e1a02008 	mov	r2, r8
    4f8c:	e1a03009 	mov	r3, r9
    4f90:	eb0017c2 	bl	aea0 <__aeabi_dsub>
    4f94:	e28d9038 	add	r9, sp, #56	; 0x38
    4f98:	e8990300 	ldm	r9, {r8, r9}
    4f9c:	e58d0050 	str	r0, [sp, #80]	; 0x50
    4fa0:	e58d1054 	str	r1, [sp, #84]	; 0x54
    4fa4:	e1a01009 	mov	r1, r9
    4fa8:	e1a00008 	mov	r0, r8
    4fac:	eb001a48 	bl	b8d4 <__aeabi_d2iz>
    4fb0:	e1a07000 	mov	r7, r0
    4fb4:	eb001887 	bl	b1d8 <__aeabi_i2d>
    4fb8:	e1a02000 	mov	r2, r0
    4fbc:	e1a03001 	mov	r3, r1
    4fc0:	e1a00008 	mov	r0, r8
    4fc4:	e1a01009 	mov	r1, r9
    4fc8:	eb0017b4 	bl	aea0 <__aeabi_dsub>
    4fcc:	e59d5010 	ldr	r5, [sp, #16]
    4fd0:	e2877030 	add	r7, r7, #48	; 0x30
    4fd4:	e1a06000 	mov	r6, r0
    4fd8:	e4c57001 	strb	r7, [r5], #1
    4fdc:	e1a07001 	mov	r7, r1
    4fe0:	e1a02006 	mov	r2, r6
    4fe4:	e1a03007 	mov	r3, r7
    4fe8:	e28d1050 	add	r1, sp, #80	; 0x50
    4fec:	e8910003 	ldm	r1, {r0, r1}
    4ff0:	eb001a23 	bl	b884 <__aeabi_dcmpgt>
    4ff4:	e3500000 	cmp	r0, #0
    4ff8:	1a0003ca 	bne	5f28 <_dtoa_r+0x1500>
    4ffc:	e58da05c 	str	sl, [sp, #92]	; 0x5c
    5000:	e58db038 	str	fp, [sp, #56]	; 0x38
    5004:	e59d9048 	ldr	r9, [sp, #72]	; 0x48
    5008:	e3a08000 	mov	r8, #0
    500c:	e28db050 	add	fp, sp, #80	; 0x50
    5010:	e89b0c00 	ldm	fp, {sl, fp}
    5014:	e58d4048 	str	r4, [sp, #72]	; 0x48
    5018:	ea000021 	b	50a4 <_dtoa_r+0x67c>
    501c:	e2888001 	add	r8, r8, #1
    5020:	e1580009 	cmp	r8, r9
    5024:	aa0003d8 	bge	5f8c <_dtoa_r+0x1564>
    5028:	e1a0000a 	mov	r0, sl
    502c:	e1a0100b 	mov	r1, fp
    5030:	e3a02000 	mov	r2, #0
    5034:	e51f32a8 	ldr	r3, [pc, #-680]	; 4d94 <_dtoa_r+0x36c>
    5038:	eb00189f 	bl	b2bc <__aeabi_dmul>
    503c:	e3a02000 	mov	r2, #0
    5040:	e51f32b4 	ldr	r3, [pc, #-692]	; 4d94 <_dtoa_r+0x36c>
    5044:	e1a0a000 	mov	sl, r0
    5048:	e1a0b001 	mov	fp, r1
    504c:	e1a00006 	mov	r0, r6
    5050:	e1a01007 	mov	r1, r7
    5054:	eb001898 	bl	b2bc <__aeabi_dmul>
    5058:	e1a07001 	mov	r7, r1
    505c:	e1a06000 	mov	r6, r0
    5060:	eb001a1b 	bl	b8d4 <__aeabi_d2iz>
    5064:	e1a04000 	mov	r4, r0
    5068:	eb00185a 	bl	b1d8 <__aeabi_i2d>
    506c:	e1a02000 	mov	r2, r0
    5070:	e1a03001 	mov	r3, r1
    5074:	e1a00006 	mov	r0, r6
    5078:	e1a01007 	mov	r1, r7
    507c:	eb001787 	bl	aea0 <__aeabi_dsub>
    5080:	e2844030 	add	r4, r4, #48	; 0x30
    5084:	e1a0200a 	mov	r2, sl
    5088:	e1a0300b 	mov	r3, fp
    508c:	e4c54001 	strb	r4, [r5], #1
    5090:	e1a06000 	mov	r6, r0
    5094:	e1a07001 	mov	r7, r1
    5098:	eb0019e7 	bl	b83c <__aeabi_dcmplt>
    509c:	e3500000 	cmp	r0, #0
    50a0:	1a00039e 	bne	5f20 <_dtoa_r+0x14f8>
    50a4:	e1a02006 	mov	r2, r6
    50a8:	e1a03007 	mov	r3, r7
    50ac:	e3a00000 	mov	r0, #0
    50b0:	e51f133c 	ldr	r1, [pc, #-828]	; 4d7c <_dtoa_r+0x354>
    50b4:	eb001779 	bl	aea0 <__aeabi_dsub>
    50b8:	e1a0200a 	mov	r2, sl
    50bc:	e1a0300b 	mov	r3, fp
    50c0:	eb0019dd 	bl	b83c <__aeabi_dcmplt>
    50c4:	e3500000 	cmp	r0, #0
    50c8:	0affffd3 	beq	501c <_dtoa_r+0x5f4>
    50cc:	e59db038 	ldr	fp, [sp, #56]	; 0x38
    50d0:	e59d1010 	ldr	r1, [sp, #16]
    50d4:	e59d4048 	ldr	r4, [sp, #72]	; 0x48
    50d8:	ea000001 	b	50e4 <_dtoa_r+0x6bc>
    50dc:	e1510005 	cmp	r1, r5
    50e0:	0a000371 	beq	5eac <_dtoa_r+0x1484>
    50e4:	e1a02005 	mov	r2, r5
    50e8:	e5753001 	ldrb	r3, [r5, #-1]!
    50ec:	e3530039 	cmp	r3, #57	; 0x39
    50f0:	0afffff9 	beq	50dc <_dtoa_r+0x6b4>
    50f4:	e2833001 	add	r3, r3, #1
    50f8:	e58d1010 	str	r1, [sp, #16]
    50fc:	e20330ff 	and	r3, r3, #255	; 0xff
    5100:	e5c53000 	strb	r3, [r5]
    5104:	e59d3058 	ldr	r3, [sp, #88]	; 0x58
    5108:	e2833001 	add	r3, r3, #1
    510c:	e59d8010 	ldr	r8, [sp, #16]
    5110:	e58d3014 	str	r3, [sp, #20]
    5114:	e58d2010 	str	r2, [sp, #16]
    5118:	ea0000a3 	b	53ac <_dtoa_r+0x984>
    511c:	e1a00008 	mov	r0, r8
    5120:	eb00182c 	bl	b1d8 <__aeabi_i2d>
    5124:	e28d3038 	add	r3, sp, #56	; 0x38
    5128:	e893000c 	ldm	r3, {r2, r3}
    512c:	eb001862 	bl	b2bc <__aeabi_dmul>
    5130:	e3a02000 	mov	r2, #0
    5134:	e51f33a4 	ldr	r3, [pc, #-932]	; 4d98 <_dtoa_r+0x370>
    5138:	eb001759 	bl	aea4 <__adddf3>
    513c:	e1a08000 	mov	r8, r0
    5140:	e241950d 	sub	r9, r1, #54525952	; 0x3400000
    5144:	e3a02000 	mov	r2, #0
    5148:	e51f33c8 	ldr	r3, [pc, #-968]	; 4d88 <_dtoa_r+0x360>
    514c:	e28d1038 	add	r1, sp, #56	; 0x38
    5150:	e8910003 	ldm	r1, {r0, r1}
    5154:	eb001751 	bl	aea0 <__aeabi_dsub>
    5158:	e1a02008 	mov	r2, r8
    515c:	e1a03009 	mov	r3, r9
    5160:	e1a05000 	mov	r5, r0
    5164:	e1a06001 	mov	r6, r1
    5168:	eb0019c5 	bl	b884 <__aeabi_dcmpgt>
    516c:	e2507000 	subs	r7, r0, #0
    5170:	1a000293 	bne	5bc4 <_dtoa_r+0x119c>
    5174:	e1a02008 	mov	r2, r8
    5178:	e1a00005 	mov	r0, r5
    517c:	e1a01006 	mov	r1, r6
    5180:	e2893102 	add	r3, r9, #-2147483648	; 0x80000000
    5184:	eb0019ac 	bl	b83c <__aeabi_dcmplt>
    5188:	e3500000 	cmp	r0, #0
    518c:	1a000148 	bne	56b4 <_dtoa_r+0xc8c>
    5190:	e59d3064 	ldr	r3, [sp, #100]	; 0x64
    5194:	e1e02003 	mvn	r2, r3
    5198:	e59d1014 	ldr	r1, [sp, #20]
    519c:	e351000e 	cmp	r1, #14
    51a0:	e1a02fa2 	lsr	r2, r2, #31
    51a4:	c3a02000 	movgt	r2, #0
    51a8:	e3520000 	cmp	r2, #0
    51ac:	1a000126 	bne	564c <_dtoa_r+0xc24>
    51b0:	e59d202c 	ldr	r2, [sp, #44]	; 0x2c
    51b4:	e3520000 	cmp	r2, #0
    51b8:	0a0000a3 	beq	544c <_dtoa_r+0xa24>
    51bc:	e59d2090 	ldr	r2, [sp, #144]	; 0x90
    51c0:	e3520001 	cmp	r2, #1
    51c4:	da0002ac 	ble	5c7c <_dtoa_r+0x1254>
    51c8:	e59d301c 	ldr	r3, [sp, #28]
    51cc:	e2432001 	sub	r2, r3, #1
    51d0:	e59d3030 	ldr	r3, [sp, #48]	; 0x30
    51d4:	e1530002 	cmp	r3, r2
    51d8:	b59d3030 	ldrlt	r3, [sp, #48]	; 0x30
    51dc:	b0423003 	sublt	r3, r2, r3
    51e0:	a0437002 	subge	r7, r3, r2
    51e4:	b08aa003 	addlt	sl, sl, r3
    51e8:	e59d301c 	ldr	r3, [sp, #28]
    51ec:	b58d2030 	strlt	r2, [sp, #48]	; 0x30
    51f0:	b3a07000 	movlt	r7, #0
    51f4:	e3530000 	cmp	r3, #0
    51f8:	a59d2018 	ldrge	r2, [sp, #24]
    51fc:	a0822003 	addge	r2, r2, r3
    5200:	a58d2018 	strge	r2, [sp, #24]
    5204:	a59d2028 	ldrge	r2, [sp, #40]	; 0x28
    5208:	a1a05002 	movge	r5, r2
    520c:	b59d3028 	ldrlt	r3, [sp, #40]	; 0x28
    5210:	b59d201c 	ldrlt	r2, [sp, #28]
    5214:	a0823003 	addge	r3, r2, r3
    5218:	a58d3028 	strge	r3, [sp, #40]	; 0x28
    521c:	b0435002 	sublt	r5, r3, r2
    5220:	e3a01001 	mov	r1, #1
    5224:	e1a00004 	mov	r0, r4
    5228:	eb00096b 	bl	77dc <__i2b>
    522c:	e1a06000 	mov	r6, r0
    5230:	e59d2018 	ldr	r2, [sp, #24]
    5234:	e3550000 	cmp	r5, #0
    5238:	c3520000 	cmpgt	r2, #0
    523c:	da000008 	ble	5264 <_dtoa_r+0x83c>
    5240:	e1550002 	cmp	r5, r2
    5244:	b1a03005 	movlt	r3, r5
    5248:	a1a03002 	movge	r3, r2
    524c:	e59d1028 	ldr	r1, [sp, #40]	; 0x28
    5250:	e0455003 	sub	r5, r5, r3
    5254:	e0411003 	sub	r1, r1, r3
    5258:	e0423003 	sub	r3, r2, r3
    525c:	e58d1028 	str	r1, [sp, #40]	; 0x28
    5260:	e58d3018 	str	r3, [sp, #24]
    5264:	e59d3030 	ldr	r3, [sp, #48]	; 0x30
    5268:	e3530000 	cmp	r3, #0
    526c:	0a000007 	beq	5290 <_dtoa_r+0x868>
    5270:	e59d302c 	ldr	r3, [sp, #44]	; 0x2c
    5274:	e3530000 	cmp	r3, #0
    5278:	0a00028e 	beq	5cb8 <_dtoa_r+0x1290>
    527c:	e3570000 	cmp	r7, #0
    5280:	ca00022a 	bgt	5b30 <_dtoa_r+0x1108>
    5284:	e59d3030 	ldr	r3, [sp, #48]	; 0x30
    5288:	e0532007 	subs	r2, r3, r7
    528c:	1a000236 	bne	5b6c <_dtoa_r+0x1144>
    5290:	e3a01001 	mov	r1, #1
    5294:	e1a00004 	mov	r0, r4
    5298:	eb00094f 	bl	77dc <__i2b>
    529c:	e35a0000 	cmp	sl, #0
    52a0:	e1a07000 	mov	r7, r0
    52a4:	ca000104 	bgt	56bc <_dtoa_r+0xc94>
    52a8:	e59d3090 	ldr	r3, [sp, #144]	; 0x90
    52ac:	e3530001 	cmp	r3, #1
    52b0:	da000246 	ble	5bd0 <_dtoa_r+0x11a8>
    52b4:	e3a09000 	mov	r9, #0
    52b8:	e35a0000 	cmp	sl, #0
    52bc:	03a03001 	moveq	r3, #1
    52c0:	1a000106 	bne	56e0 <_dtoa_r+0xcb8>
    52c4:	e59d1018 	ldr	r1, [sp, #24]
    52c8:	e0833001 	add	r3, r3, r1
    52cc:	e213301f 	ands	r3, r3, #31
    52d0:	0a000054 	beq	5428 <_dtoa_r+0xa00>
    52d4:	e2632020 	rsb	r2, r3, #32
    52d8:	e3520004 	cmp	r2, #4
    52dc:	da000380 	ble	60e4 <_dtoa_r+0x16bc>
    52e0:	e59d2028 	ldr	r2, [sp, #40]	; 0x28
    52e4:	e263301c 	rsb	r3, r3, #28
    52e8:	e0822003 	add	r2, r2, r3
    52ec:	e0855003 	add	r5, r5, r3
    52f0:	e0813003 	add	r3, r1, r3
    52f4:	e58d2028 	str	r2, [sp, #40]	; 0x28
    52f8:	e58d3018 	str	r3, [sp, #24]
    52fc:	e59d3028 	ldr	r3, [sp, #40]	; 0x28
    5300:	e3530000 	cmp	r3, #0
    5304:	da000004 	ble	531c <_dtoa_r+0x8f4>
    5308:	e1a0100b 	mov	r1, fp
    530c:	e1a02003 	mov	r2, r3
    5310:	e1a00004 	mov	r0, r4
    5314:	eb000a28 	bl	7bbc <__lshift>
    5318:	e1a0b000 	mov	fp, r0
    531c:	e59d3018 	ldr	r3, [sp, #24]
    5320:	e3530000 	cmp	r3, #0
    5324:	da000004 	ble	533c <_dtoa_r+0x914>
    5328:	e1a01007 	mov	r1, r7
    532c:	e1a02003 	mov	r2, r3
    5330:	e1a00004 	mov	r0, r4
    5334:	eb000a20 	bl	7bbc <__lshift>
    5338:	e1a07000 	mov	r7, r0
    533c:	e59d3034 	ldr	r3, [sp, #52]	; 0x34
    5340:	e3530000 	cmp	r3, #0
    5344:	1a0000eb 	bne	56f8 <_dtoa_r+0xcd0>
    5348:	e59d301c 	ldr	r3, [sp, #28]
    534c:	e59d2090 	ldr	r2, [sp, #144]	; 0x90
    5350:	e3530000 	cmp	r3, #0
    5354:	d3a03001 	movle	r3, #1
    5358:	c3a03000 	movgt	r3, #0
    535c:	e3520002 	cmp	r2, #2
    5360:	d3a03000 	movle	r3, #0
    5364:	e3530000 	cmp	r3, #0
    5368:	0a00003a 	beq	5458 <_dtoa_r+0xa30>
    536c:	e59d301c 	ldr	r3, [sp, #28]
    5370:	e3530000 	cmp	r3, #0
    5374:	0a00017f 	beq	5978 <_dtoa_r+0xf50>
    5378:	e59d3094 	ldr	r3, [sp, #148]	; 0x94
    537c:	e1e05003 	mvn	r5, r3
    5380:	e59d8010 	ldr	r8, [sp, #16]
    5384:	e1a01007 	mov	r1, r7
    5388:	e1a00004 	mov	r0, r4
    538c:	eb00088e 	bl	75cc <_Bfree>
    5390:	e2853001 	add	r3, r5, #1
    5394:	e3560000 	cmp	r6, #0
    5398:	e58d3014 	str	r3, [sp, #20]
    539c:	0a000002 	beq	53ac <_dtoa_r+0x984>
    53a0:	e1a01006 	mov	r1, r6
    53a4:	e1a00004 	mov	r0, r4
    53a8:	eb000887 	bl	75cc <_Bfree>
    53ac:	e1a0100b 	mov	r1, fp
    53b0:	e1a00004 	mov	r0, r4
    53b4:	eb000884 	bl	75cc <_Bfree>
    53b8:	e59d30a0 	ldr	r3, [sp, #160]	; 0xa0
    53bc:	e3530000 	cmp	r3, #0
    53c0:	e3a03000 	mov	r3, #0
    53c4:	e59d2010 	ldr	r2, [sp, #16]
    53c8:	e59d1014 	ldr	r1, [sp, #20]
    53cc:	e5c23000 	strb	r3, [r2]
    53d0:	e59d3098 	ldr	r3, [sp, #152]	; 0x98
    53d4:	e5831000 	str	r1, [r3]
    53d8:	0afffdc3 	beq	4aec <_dtoa_r+0xc4>
    53dc:	e1a00008 	mov	r0, r8
    53e0:	e59d30a0 	ldr	r3, [sp, #160]	; 0xa0
    53e4:	e5832000 	str	r2, [r3]
    53e8:	e28dd06c 	add	sp, sp, #108	; 0x6c
    53ec:	e8bd4ff0 	pop	{r4, r5, r6, r7, r8, r9, sl, fp, lr}
    53f0:	e12fff1e 	bx	lr
    53f4:	e3a03001 	mov	r3, #1
    53f8:	e58d3034 	str	r3, [sp, #52]	; 0x34
    53fc:	eafffe0f 	b	4c40 <_dtoa_r+0x218>
    5400:	e2653001 	rsb	r3, r5, #1
    5404:	e58d3028 	str	r3, [sp, #40]	; 0x28
    5408:	e3a03000 	mov	r3, #0
    540c:	e58d3018 	str	r3, [sp, #24]
    5410:	eafffe10 	b	4c58 <_dtoa_r+0x230>
    5414:	e51f869c 	ldr	r8, [pc, #-1692]	; 4d80 <_dtoa_r+0x358>
    5418:	e1a00008 	mov	r0, r8
    541c:	e28dd06c 	add	sp, sp, #108	; 0x6c
    5420:	e8bd4ff0 	pop	{r4, r5, r6, r7, r8, r9, sl, fp, lr}
    5424:	e12fff1e 	bx	lr
    5428:	e3a0301c 	mov	r3, #28
    542c:	e59d2028 	ldr	r2, [sp, #40]	; 0x28
    5430:	e0822003 	add	r2, r2, r3
    5434:	e58d2028 	str	r2, [sp, #40]	; 0x28
    5438:	e59d2018 	ldr	r2, [sp, #24]
    543c:	e0855003 	add	r5, r5, r3
    5440:	e0823003 	add	r3, r2, r3
    5444:	e58d3018 	str	r3, [sp, #24]
    5448:	eaffffab 	b	52fc <_dtoa_r+0x8d4>
    544c:	e28d5028 	add	r5, sp, #40	; 0x28
    5450:	e89500e0 	ldm	r5, {r5, r6, r7}
    5454:	eaffff75 	b	5230 <_dtoa_r+0x808>
    5458:	e59d302c 	ldr	r3, [sp, #44]	; 0x2c
    545c:	e3530000 	cmp	r3, #0
    5460:	0a000156 	beq	59c0 <_dtoa_r+0xf98>
    5464:	e3550000 	cmp	r5, #0
    5468:	da000004 	ble	5480 <_dtoa_r+0xa58>
    546c:	e1a01006 	mov	r1, r6
    5470:	e1a02005 	mov	r2, r5
    5474:	e1a00004 	mov	r0, r4
    5478:	eb0009cf 	bl	7bbc <__lshift>
    547c:	e1a06000 	mov	r6, r0
    5480:	e3590000 	cmp	r9, #0
    5484:	01a0a006 	moveq	sl, r6
    5488:	1a0002ae 	bne	5f48 <_dtoa_r+0x1520>
    548c:	e59d3008 	ldr	r3, [sp, #8]
    5490:	e2033001 	and	r3, r3, #1
    5494:	e58d3008 	str	r3, [sp, #8]
    5498:	e59d3010 	ldr	r3, [sp, #16]
    549c:	e59d201c 	ldr	r2, [sp, #28]
    54a0:	e1a05003 	mov	r5, r3
    54a4:	e2433001 	sub	r3, r3, #1
    54a8:	e0833002 	add	r3, r3, r2
    54ac:	e58d3020 	str	r3, [sp, #32]
    54b0:	e1a01007 	mov	r1, r7
    54b4:	e1a0000b 	mov	r0, fp
    54b8:	ebfffcea 	bl	4868 <quorem>
    54bc:	e1a01006 	mov	r1, r6
    54c0:	e1a09000 	mov	r9, r0
    54c4:	e1a0000b 	mov	r0, fp
    54c8:	eb000a0b 	bl	7cfc <__mcmp>
    54cc:	e1a0200a 	mov	r2, sl
    54d0:	e1a01007 	mov	r1, r7
    54d4:	e1a08000 	mov	r8, r0
    54d8:	e1a00004 	mov	r0, r4
    54dc:	eb000a1e 	bl	7d5c <__mdiff>
    54e0:	e590200c 	ldr	r2, [r0, #12]
    54e4:	e3520000 	cmp	r2, #0
    54e8:	e1a01000 	mov	r1, r0
    54ec:	e2893030 	add	r3, r9, #48	; 0x30
    54f0:	1a0001a5 	bne	5b8c <_dtoa_r+0x1164>
    54f4:	e58d0018 	str	r0, [sp, #24]
    54f8:	e1a0000b 	mov	r0, fp
    54fc:	e58d301c 	str	r3, [sp, #28]
    5500:	eb0009fd 	bl	7cfc <__mcmp>
    5504:	e1a02000 	mov	r2, r0
    5508:	e59d1018 	ldr	r1, [sp, #24]
    550c:	e1a00004 	mov	r0, r4
    5510:	e58d2018 	str	r2, [sp, #24]
    5514:	eb00082c 	bl	75cc <_Bfree>
    5518:	e59d3090 	ldr	r3, [sp, #144]	; 0x90
    551c:	e59d2018 	ldr	r2, [sp, #24]
    5520:	e1821003 	orr	r1, r2, r3
    5524:	e59d3008 	ldr	r3, [sp, #8]
    5528:	e1933001 	orrs	r3, r3, r1
    552c:	e59d301c 	ldr	r3, [sp, #28]
    5530:	0a0002c7 	beq	6054 <_dtoa_r+0x162c>
    5534:	e3580000 	cmp	r8, #0
    5538:	ba000261 	blt	5ec4 <_dtoa_r+0x149c>
    553c:	e59d1090 	ldr	r1, [sp, #144]	; 0x90
    5540:	e1888001 	orr	r8, r8, r1
    5544:	e59d1008 	ldr	r1, [sp, #8]
    5548:	e1911008 	orrs	r1, r1, r8
    554c:	0a00025c 	beq	5ec4 <_dtoa_r+0x149c>
    5550:	e3520000 	cmp	r2, #0
    5554:	ca0002ac 	bgt	600c <_dtoa_r+0x15e4>
    5558:	e59d2020 	ldr	r2, [sp, #32]
    555c:	e5c53000 	strb	r3, [r5]
    5560:	e1520005 	cmp	r2, r5
    5564:	e2855001 	add	r5, r5, #1
    5568:	e1a08005 	mov	r8, r5
    556c:	0a0002b2 	beq	603c <_dtoa_r+0x1614>
    5570:	e1a0100b 	mov	r1, fp
    5574:	e3a03000 	mov	r3, #0
    5578:	e3a0200a 	mov	r2, #10
    557c:	e1a00004 	mov	r0, r4
    5580:	eb000818 	bl	75e8 <__multadd>
    5584:	e156000a 	cmp	r6, sl
    5588:	e1a0b000 	mov	fp, r0
    558c:	e1a01006 	mov	r1, r6
    5590:	e3a03000 	mov	r3, #0
    5594:	e3a0200a 	mov	r2, #10
    5598:	e1a00004 	mov	r0, r4
    559c:	0a000180 	beq	5ba4 <_dtoa_r+0x117c>
    55a0:	eb000810 	bl	75e8 <__multadd>
    55a4:	e1a0100a 	mov	r1, sl
    55a8:	e1a06000 	mov	r6, r0
    55ac:	e3a03000 	mov	r3, #0
    55b0:	e3a0200a 	mov	r2, #10
    55b4:	e1a00004 	mov	r0, r4
    55b8:	eb00080a 	bl	75e8 <__multadd>
    55bc:	e1a0a000 	mov	sl, r0
    55c0:	eaffffba 	b	54b0 <_dtoa_r+0xa88>
    55c4:	0a00013d 	beq	5ac0 <_dtoa_r+0x1098>
    55c8:	e59d3014 	ldr	r3, [sp, #20]
    55cc:	e2636000 	rsb	r6, r3, #0
    55d0:	e51f383c 	ldr	r3, [pc, #-2108]	; 4d9c <_dtoa_r+0x374>
    55d4:	e206200f 	and	r2, r6, #15
    55d8:	e0833182 	add	r3, r3, r2, lsl #3
    55dc:	e893000c 	ldm	r3, {r2, r3}
    55e0:	e28d1020 	add	r1, sp, #32
    55e4:	e8910003 	ldm	r1, {r0, r1}
    55e8:	eb001733 	bl	b2bc <__aeabi_dmul>
    55ec:	e1b06246 	asrs	r6, r6, #4
    55f0:	e58d0048 	str	r0, [sp, #72]	; 0x48
    55f4:	e58d104c 	str	r1, [sp, #76]	; 0x4c
    55f8:	0a0002b3 	beq	60cc <_dtoa_r+0x16a4>
    55fc:	e3a03000 	mov	r3, #0
    5600:	e3a08002 	mov	r8, #2
    5604:	e51f7888 	ldr	r7, [pc, #-2184]	; 4d84 <_dtoa_r+0x35c>
    5608:	e3160001 	tst	r6, #1
    560c:	0a000003 	beq	5620 <_dtoa_r+0xbf8>
    5610:	e897000c 	ldm	r7, {r2, r3}
    5614:	eb001728 	bl	b2bc <__aeabi_dmul>
    5618:	e1a03005 	mov	r3, r5
    561c:	e2888001 	add	r8, r8, #1
    5620:	e1b060c6 	asrs	r6, r6, #1
    5624:	e2877008 	add	r7, r7, #8
    5628:	1afffff6 	bne	5608 <_dtoa_r+0xbe0>
    562c:	e3530000 	cmp	r3, #0
    5630:	e58d0038 	str	r0, [sp, #56]	; 0x38
    5634:	e58d103c 	str	r1, [sp, #60]	; 0x3c
    5638:	028d3048 	addeq	r3, sp, #72	; 0x48
    563c:	0893000c 	ldmeq	r3, {r2, r3}
    5640:	058d2038 	streq	r2, [sp, #56]	; 0x38
    5644:	058d303c 	streq	r3, [sp, #60]	; 0x3c
    5648:	eafffe27 	b	4eec <_dtoa_r+0x4c4>
    564c:	e59d701c 	ldr	r7, [sp, #28]
    5650:	e3570000 	cmp	r7, #0
    5654:	c3a03000 	movgt	r3, #0
    5658:	d3a03001 	movle	r3, #1
    565c:	e59d1094 	ldr	r1, [sp, #148]	; 0x94
    5660:	e0133fa1 	ands	r3, r3, r1, lsr #31
    5664:	e59d1014 	ldr	r1, [sp, #20]
    5668:	e51f38d4 	ldr	r3, [pc, #-2260]	; 4d9c <_dtoa_r+0x374>
    566c:	e0833181 	add	r3, r3, r1, lsl #3
    5670:	e8930003 	ldm	r3, {r0, r1}
    5674:	e58d0008 	str	r0, [sp, #8]
    5678:	e58d100c 	str	r1, [sp, #12]
    567c:	0a0001ad 	beq	5d38 <_dtoa_r+0x1310>
    5680:	e3570000 	cmp	r7, #0
    5684:	1a00013d 	bne	5b80 <_dtoa_r+0x1158>
    5688:	e3a02000 	mov	r2, #0
    568c:	e51f390c 	ldr	r3, [pc, #-2316]	; 4d88 <_dtoa_r+0x360>
    5690:	eb001709 	bl	b2bc <__aeabi_dmul>
    5694:	e1a02000 	mov	r2, r0
    5698:	e1a03001 	mov	r3, r1
    569c:	e28d1020 	add	r1, sp, #32
    56a0:	e8910003 	ldm	r1, {r0, r1}
    56a4:	eb00186a 	bl	b854 <__aeabi_dcmple>
    56a8:	e3500000 	cmp	r0, #0
    56ac:	0a000145 	beq	5bc8 <_dtoa_r+0x11a0>
    56b0:	e59d701c 	ldr	r7, [sp, #28]
    56b4:	e1a06007 	mov	r6, r7
    56b8:	eaffff2e 	b	5378 <_dtoa_r+0x950>
    56bc:	e1a01000 	mov	r1, r0
    56c0:	e1a0200a 	mov	r2, sl
    56c4:	e1a00004 	mov	r0, r4
    56c8:	eb0008f2 	bl	7a98 <__pow5mult>
    56cc:	e59d3090 	ldr	r3, [sp, #144]	; 0x90
    56d0:	e3530001 	cmp	r3, #1
    56d4:	e1a07000 	mov	r7, r0
    56d8:	da0000fe 	ble	5ad8 <_dtoa_r+0x10b0>
    56dc:	e3a09000 	mov	r9, #0
    56e0:	e5973010 	ldr	r3, [r7, #16]
    56e4:	e0873103 	add	r3, r7, r3, lsl #2
    56e8:	e5930010 	ldr	r0, [r3, #16]
    56ec:	eb0007fd 	bl	76e8 <__hi0bits>
    56f0:	e2603020 	rsb	r3, r0, #32
    56f4:	eafffef2 	b	52c4 <_dtoa_r+0x89c>
    56f8:	e1a01007 	mov	r1, r7
    56fc:	e1a0000b 	mov	r0, fp
    5700:	eb00097d 	bl	7cfc <__mcmp>
    5704:	e3500000 	cmp	r0, #0
    5708:	aaffff0e 	bge	5348 <_dtoa_r+0x920>
    570c:	e1a0100b 	mov	r1, fp
    5710:	e3a03000 	mov	r3, #0
    5714:	e3a0200a 	mov	r2, #10
    5718:	e1a00004 	mov	r0, r4
    571c:	eb0007b1 	bl	75e8 <__multadd>
    5720:	e59d302c 	ldr	r3, [sp, #44]	; 0x2c
    5724:	e3530000 	cmp	r3, #0
    5728:	e59d3014 	ldr	r3, [sp, #20]
    572c:	e1a0b000 	mov	fp, r0
    5730:	e2438001 	sub	r8, r3, #1
    5734:	1a00024d 	bne	6070 <_dtoa_r+0x1648>
    5738:	e59d2044 	ldr	r2, [sp, #68]	; 0x44
    573c:	e59d1090 	ldr	r1, [sp, #144]	; 0x90
    5740:	e3520000 	cmp	r2, #0
    5744:	e1a03002 	mov	r3, r2
    5748:	d3a03001 	movle	r3, #1
    574c:	c3a03000 	movgt	r3, #0
    5750:	e3510002 	cmp	r1, #2
    5754:	d3a03000 	movle	r3, #0
    5758:	e3530000 	cmp	r3, #0
    575c:	058d201c 	streq	r2, [sp, #28]
    5760:	0a000099 	beq	59cc <_dtoa_r+0xfa4>
    5764:	e58d8014 	str	r8, [sp, #20]
    5768:	e59d3044 	ldr	r3, [sp, #68]	; 0x44
    576c:	e58d301c 	str	r3, [sp, #28]
    5770:	eafffefd 	b	536c <_dtoa_r+0x944>
    5774:	e28d3020 	add	r3, sp, #32
    5778:	e893000c 	ldm	r3, {r2, r3}
    577c:	e3a08002 	mov	r8, #2
    5780:	e58d2038 	str	r2, [sp, #56]	; 0x38
    5784:	e58d303c 	str	r3, [sp, #60]	; 0x3c
    5788:	eafffdc1 	b	4e94 <_dtoa_r+0x46c>
    578c:	e3a03001 	mov	r3, #1
    5790:	e58d302c 	str	r3, [sp, #44]	; 0x2c
    5794:	e59d3094 	ldr	r3, [sp, #148]	; 0x94
    5798:	e59d2014 	ldr	r2, [sp, #20]
    579c:	e0833002 	add	r3, r3, r2
    57a0:	e58d3044 	str	r3, [sp, #68]	; 0x44
    57a4:	e2833001 	add	r3, r3, #1
    57a8:	e3530001 	cmp	r3, #1
    57ac:	a1a00003 	movge	r0, r3
    57b0:	b3a00001 	movlt	r0, #1
    57b4:	e58d301c 	str	r3, [sp, #28]
    57b8:	e3a01000 	mov	r1, #0
    57bc:	e3500017 	cmp	r0, #23
    57c0:	e5841044 	str	r1, [r4, #68]	; 0x44
    57c4:	dafffd91 	ble	4e10 <_dtoa_r+0x3e8>
    57c8:	e3a02001 	mov	r2, #1
    57cc:	e3a03004 	mov	r3, #4
    57d0:	e1a01002 	mov	r1, r2
    57d4:	e1a03083 	lsl	r3, r3, #1
    57d8:	e2832014 	add	r2, r3, #20
    57dc:	e1520000 	cmp	r2, r0
    57e0:	e2812001 	add	r2, r1, #1
    57e4:	9afffff9 	bls	57d0 <_dtoa_r+0xda8>
    57e8:	e5841044 	str	r1, [r4, #68]	; 0x44
    57ec:	eafffd87 	b	4e10 <_dtoa_r+0x3e8>
    57f0:	e3a03001 	mov	r3, #1
    57f4:	e58d302c 	str	r3, [sp, #44]	; 0x2c
    57f8:	e59d3094 	ldr	r3, [sp, #148]	; 0x94
    57fc:	e3530000 	cmp	r3, #0
    5800:	da0000eb 	ble	5bb4 <_dtoa_r+0x118c>
    5804:	e1a00003 	mov	r0, r3
    5808:	e58d3044 	str	r3, [sp, #68]	; 0x44
    580c:	e58d301c 	str	r3, [sp, #28]
    5810:	eaffffe8 	b	57b8 <_dtoa_r+0xd90>
    5814:	e3a03000 	mov	r3, #0
    5818:	e58d302c 	str	r3, [sp, #44]	; 0x2c
    581c:	eaffffdc 	b	5794 <_dtoa_r+0xd6c>
    5820:	e3a03000 	mov	r3, #0
    5824:	e58d302c 	str	r3, [sp, #44]	; 0x2c
    5828:	eafffff2 	b	57f8 <_dtoa_r+0xdd0>
    582c:	e1a03009 	mov	r3, r9
    5830:	e51f1a9c 	ldr	r1, [pc, #-2716]	; 4d9c <_dtoa_r+0x374>
    5834:	e59d9048 	ldr	r9, [sp, #72]	; 0x48
    5838:	e0811189 	add	r1, r1, r9, lsl #3
    583c:	e1a02008 	mov	r2, r8
    5840:	e9110003 	ldmdb	r1, {r0, r1}
    5844:	eb00169c 	bl	b2bc <__aeabi_dmul>
    5848:	e28d7038 	add	r7, sp, #56	; 0x38
    584c:	e89700c0 	ldm	r7, {r6, r7}
    5850:	e58d0050 	str	r0, [sp, #80]	; 0x50
    5854:	e58d1054 	str	r1, [sp, #84]	; 0x54
    5858:	e1a01007 	mov	r1, r7
    585c:	e1a00006 	mov	r0, r6
    5860:	eb00181b 	bl	b8d4 <__aeabi_d2iz>
    5864:	e1a05000 	mov	r5, r0
    5868:	eb00165a 	bl	b1d8 <__aeabi_i2d>
    586c:	e1a02000 	mov	r2, r0
    5870:	e1a03001 	mov	r3, r1
    5874:	e1a00006 	mov	r0, r6
    5878:	e1a01007 	mov	r1, r7
    587c:	eb001587 	bl	aea0 <__aeabi_dsub>
    5880:	e59d8010 	ldr	r8, [sp, #16]
    5884:	e2855030 	add	r5, r5, #48	; 0x30
    5888:	e3590001 	cmp	r9, #1
    588c:	e1a06000 	mov	r6, r0
    5890:	e1a07001 	mov	r7, r1
    5894:	e4c85001 	strb	r5, [r8], #1
    5898:	0a0001f2 	beq	6068 <_dtoa_r+0x1640>
    589c:	e59d3010 	ldr	r3, [sp, #16]
    58a0:	e59d2048 	ldr	r2, [sp, #72]	; 0x48
    58a4:	e0835002 	add	r5, r3, r2
    58a8:	e3a02000 	mov	r2, #0
    58ac:	e51f3b20 	ldr	r3, [pc, #-2848]	; 4d94 <_dtoa_r+0x36c>
    58b0:	e1a00006 	mov	r0, r6
    58b4:	e1a01007 	mov	r1, r7
    58b8:	eb00167f 	bl	b2bc <__aeabi_dmul>
    58bc:	e1a07001 	mov	r7, r1
    58c0:	e1a06000 	mov	r6, r0
    58c4:	eb001802 	bl	b8d4 <__aeabi_d2iz>
    58c8:	e1a09000 	mov	r9, r0
    58cc:	eb001641 	bl	b1d8 <__aeabi_i2d>
    58d0:	e1a02000 	mov	r2, r0
    58d4:	e1a03001 	mov	r3, r1
    58d8:	e1a00006 	mov	r0, r6
    58dc:	e1a01007 	mov	r1, r7
    58e0:	eb00156e 	bl	aea0 <__aeabi_dsub>
    58e4:	e2899030 	add	r9, r9, #48	; 0x30
    58e8:	e4c89001 	strb	r9, [r8], #1
    58ec:	e1580005 	cmp	r8, r5
    58f0:	e1a06000 	mov	r6, r0
    58f4:	e1a07001 	mov	r7, r1
    58f8:	1affffea 	bne	58a8 <_dtoa_r+0xe80>
    58fc:	e28d9050 	add	r9, sp, #80	; 0x50
    5900:	e8990300 	ldm	r9, {r8, r9}
    5904:	e3a02000 	mov	r2, #0
    5908:	e51f3b84 	ldr	r3, [pc, #-2948]	; 4d8c <_dtoa_r+0x364>
    590c:	e1a00008 	mov	r0, r8
    5910:	e1a01009 	mov	r1, r9
    5914:	eb001562 	bl	aea4 <__adddf3>
    5918:	e1a02000 	mov	r2, r0
    591c:	e1a03001 	mov	r3, r1
    5920:	e1a00006 	mov	r0, r6
    5924:	e1a01007 	mov	r1, r7
    5928:	eb0017d5 	bl	b884 <__aeabi_dcmpgt>
    592c:	e3500000 	cmp	r0, #0
    5930:	1a000182 	bne	5f40 <_dtoa_r+0x1518>
    5934:	e1a02008 	mov	r2, r8
    5938:	e1a03009 	mov	r3, r9
    593c:	e3a00000 	mov	r0, #0
    5940:	e51f1bbc 	ldr	r1, [pc, #-3004]	; 4d8c <_dtoa_r+0x364>
    5944:	eb001555 	bl	aea0 <__aeabi_dsub>
    5948:	e1a02000 	mov	r2, r0
    594c:	e1a03001 	mov	r3, r1
    5950:	e1a00006 	mov	r0, r6
    5954:	e1a01007 	mov	r1, r7
    5958:	eb0017b7 	bl	b83c <__aeabi_dcmplt>
    595c:	e3500000 	cmp	r0, #0
    5960:	0afffe0a 	beq	5190 <_dtoa_r+0x768>
    5964:	e1a02005 	mov	r2, r5
    5968:	e5753001 	ldrb	r3, [r5, #-1]!
    596c:	e3530030 	cmp	r3, #48	; 0x30
    5970:	0afffffb 	beq	5964 <_dtoa_r+0xf3c>
    5974:	eafffde2 	b	5104 <_dtoa_r+0x6dc>
    5978:	e1a01007 	mov	r1, r7
    597c:	e3a02005 	mov	r2, #5
    5980:	e1a00004 	mov	r0, r4
    5984:	eb000717 	bl	75e8 <__multadd>
    5988:	e1a07000 	mov	r7, r0
    598c:	e1a0000b 	mov	r0, fp
    5990:	e1a01007 	mov	r1, r7
    5994:	eb0008d8 	bl	7cfc <__mcmp>
    5998:	e3500000 	cmp	r0, #0
    599c:	dafffe75 	ble	5378 <_dtoa_r+0x950>
    59a0:	e59d3014 	ldr	r3, [sp, #20]
    59a4:	e2835001 	add	r5, r3, #1
    59a8:	e3a03031 	mov	r3, #49	; 0x31
    59ac:	e59d0010 	ldr	r0, [sp, #16]
    59b0:	e1a08000 	mov	r8, r0
    59b4:	e4c03001 	strb	r3, [r0], #1
    59b8:	e58d0010 	str	r0, [sp, #16]
    59bc:	eafffe70 	b	5384 <_dtoa_r+0x95c>
    59c0:	e59d3014 	ldr	r3, [sp, #20]
    59c4:	e2833001 	add	r3, r3, #1
    59c8:	e58d3014 	str	r3, [sp, #20]
    59cc:	e3a05001 	mov	r5, #1
    59d0:	e59d8010 	ldr	r8, [sp, #16]
    59d4:	e59d901c 	ldr	r9, [sp, #28]
    59d8:	ea000006 	b	59f8 <_dtoa_r+0xfd0>
    59dc:	e1a0100b 	mov	r1, fp
    59e0:	e3a03000 	mov	r3, #0
    59e4:	e3a0200a 	mov	r2, #10
    59e8:	e1a00004 	mov	r0, r4
    59ec:	eb0006fd 	bl	75e8 <__multadd>
    59f0:	e1a0b000 	mov	fp, r0
    59f4:	e2855001 	add	r5, r5, #1
    59f8:	e1a01007 	mov	r1, r7
    59fc:	e1a0000b 	mov	r0, fp
    5a00:	ebfffb98 	bl	4868 <quorem>
    5a04:	e1550009 	cmp	r5, r9
    5a08:	e2803030 	add	r3, r0, #48	; 0x30
    5a0c:	e4c83001 	strb	r3, [r8], #1
    5a10:	bafffff1 	blt	59dc <_dtoa_r+0xfb4>
    5a14:	e59d201c 	ldr	r2, [sp, #28]
    5a18:	e3520000 	cmp	r2, #0
    5a1c:	c1a05002 	movgt	r5, r2
    5a20:	d3a05001 	movle	r5, #1
    5a24:	e3a09000 	mov	r9, #0
    5a28:	e59d2010 	ldr	r2, [sp, #16]
    5a2c:	e0828005 	add	r8, r2, r5
    5a30:	e1a0100b 	mov	r1, fp
    5a34:	e3a02001 	mov	r2, #1
    5a38:	e1a00004 	mov	r0, r4
    5a3c:	e58d3008 	str	r3, [sp, #8]
    5a40:	eb00085d 	bl	7bbc <__lshift>
    5a44:	e1a01007 	mov	r1, r7
    5a48:	e1a0b000 	mov	fp, r0
    5a4c:	eb0008aa 	bl	7cfc <__mcmp>
    5a50:	e3500000 	cmp	r0, #0
    5a54:	da00010b 	ble	5e88 <_dtoa_r+0x1460>
    5a58:	e5583001 	ldrb	r3, [r8, #-1]
    5a5c:	e59d2010 	ldr	r2, [sp, #16]
    5a60:	e2488001 	sub	r8, r8, #1
    5a64:	ea000002 	b	5a74 <_dtoa_r+0x104c>
    5a68:	e1520008 	cmp	r2, r8
    5a6c:	0a0000fe 	beq	5e6c <_dtoa_r+0x1444>
    5a70:	e5783001 	ldrb	r3, [r8, #-1]!
    5a74:	e3530039 	cmp	r3, #57	; 0x39
    5a78:	e2885001 	add	r5, r8, #1
    5a7c:	0afffff9 	beq	5a68 <_dtoa_r+0x1040>
    5a80:	e2833001 	add	r3, r3, #1
    5a84:	e5c83000 	strb	r3, [r8]
    5a88:	e1a01007 	mov	r1, r7
    5a8c:	e1a00004 	mov	r0, r4
    5a90:	eb0006cd 	bl	75cc <_Bfree>
    5a94:	e3560000 	cmp	r6, #0
    5a98:	0a0000f0 	beq	5e60 <_dtoa_r+0x1438>
    5a9c:	e3590000 	cmp	r9, #0
    5aa0:	11590006 	cmpne	r9, r6
    5aa4:	0a00019b 	beq	6118 <_dtoa_r+0x16f0>
    5aa8:	e1a01009 	mov	r1, r9
    5aac:	e1a00004 	mov	r0, r4
    5ab0:	e59d8010 	ldr	r8, [sp, #16]
    5ab4:	e58d5010 	str	r5, [sp, #16]
    5ab8:	eb0006c3 	bl	75cc <_Bfree>
    5abc:	eafffe37 	b	53a0 <_dtoa_r+0x978>
    5ac0:	e28d3020 	add	r3, sp, #32
    5ac4:	e893000c 	ldm	r3, {r2, r3}
    5ac8:	e3a08002 	mov	r8, #2
    5acc:	e58d2038 	str	r2, [sp, #56]	; 0x38
    5ad0:	e58d303c 	str	r3, [sp, #60]	; 0x3c
    5ad4:	eafffd04 	b	4eec <_dtoa_r+0x4c4>
    5ad8:	e59d3008 	ldr	r3, [sp, #8]
    5adc:	e3530000 	cmp	r3, #0
    5ae0:	1afffefd 	bne	56dc <_dtoa_r+0xcb4>
    5ae4:	e28d2008 	add	r2, sp, #8
    5ae8:	e8920006 	ldm	r2, {r1, r2}
    5aec:	e3c234ff 	bic	r3, r2, #-16777216	; 0xff000000
    5af0:	e3c3360f 	bic	r3, r3, #15728640	; 0xf00000
    5af4:	e3530000 	cmp	r3, #0
    5af8:	e1a03002 	mov	r3, r2
    5afc:	1afffef6 	bne	56dc <_dtoa_r+0xcb4>
    5b00:	e51f9d78 	ldr	r9, [pc, #-3448]	; 4d90 <_dtoa_r+0x368>
    5b04:	e0099003 	and	r9, r9, r3
    5b08:	e3590000 	cmp	r9, #0
    5b0c:	0afffde9 	beq	52b8 <_dtoa_r+0x890>
    5b10:	e59d3028 	ldr	r3, [sp, #40]	; 0x28
    5b14:	e2833001 	add	r3, r3, #1
    5b18:	e58d3028 	str	r3, [sp, #40]	; 0x28
    5b1c:	e59d3018 	ldr	r3, [sp, #24]
    5b20:	e2833001 	add	r3, r3, #1
    5b24:	e3a09001 	mov	r9, #1
    5b28:	e58d3018 	str	r3, [sp, #24]
    5b2c:	eafffde1 	b	52b8 <_dtoa_r+0x890>
    5b30:	e1a01006 	mov	r1, r6
    5b34:	e1a02007 	mov	r2, r7
    5b38:	e1a00004 	mov	r0, r4
    5b3c:	eb0007d5 	bl	7a98 <__pow5mult>
    5b40:	e1a06000 	mov	r6, r0
    5b44:	e1a0200b 	mov	r2, fp
    5b48:	e1a01006 	mov	r1, r6
    5b4c:	e1a00004 	mov	r0, r4
    5b50:	eb00074b 	bl	7884 <__multiply>
    5b54:	e1a08000 	mov	r8, r0
    5b58:	e1a0100b 	mov	r1, fp
    5b5c:	e1a00004 	mov	r0, r4
    5b60:	eb000699 	bl	75cc <_Bfree>
    5b64:	e1a0b008 	mov	fp, r8
    5b68:	eafffdc5 	b	5284 <_dtoa_r+0x85c>
    5b6c:	e1a0100b 	mov	r1, fp
    5b70:	e1a00004 	mov	r0, r4
    5b74:	eb0007c7 	bl	7a98 <__pow5mult>
    5b78:	e1a0b000 	mov	fp, r0
    5b7c:	eafffdc3 	b	5290 <_dtoa_r+0x868>
    5b80:	e3a07000 	mov	r7, #0
    5b84:	e1a06007 	mov	r6, r7
    5b88:	eafffdfa 	b	5378 <_dtoa_r+0x950>
    5b8c:	e1a00004 	mov	r0, r4
    5b90:	e58d3018 	str	r3, [sp, #24]
    5b94:	eb00068c 	bl	75cc <_Bfree>
    5b98:	e3a02001 	mov	r2, #1
    5b9c:	e59d3018 	ldr	r3, [sp, #24]
    5ba0:	eafffe63 	b	5534 <_dtoa_r+0xb0c>
    5ba4:	eb00068f 	bl	75e8 <__multadd>
    5ba8:	e1a06000 	mov	r6, r0
    5bac:	e1a0a000 	mov	sl, r0
    5bb0:	eafffe3e 	b	54b0 <_dtoa_r+0xa88>
    5bb4:	e3a03001 	mov	r3, #1
    5bb8:	e58d3094 	str	r3, [sp, #148]	; 0x94
    5bbc:	e58d301c 	str	r3, [sp, #28]
    5bc0:	eafffc8e 	b	4e00 <_dtoa_r+0x3d8>
    5bc4:	e3a07000 	mov	r7, #0
    5bc8:	e1a06007 	mov	r6, r7
    5bcc:	eaffff73 	b	59a0 <_dtoa_r+0xf78>
    5bd0:	e28d2008 	add	r2, sp, #8
    5bd4:	e8920006 	ldm	r2, {r1, r2}
    5bd8:	e3510000 	cmp	r1, #0
    5bdc:	e1a03001 	mov	r3, r1
    5be0:	1afffdb3 	bne	52b4 <_dtoa_r+0x88c>
    5be4:	e3c234ff 	bic	r3, r2, #-16777216	; 0xff000000
    5be8:	e3c3360f 	bic	r3, r3, #15728640	; 0xf00000
    5bec:	e3530000 	cmp	r3, #0
    5bf0:	159d9008 	ldrne	r9, [sp, #8]
    5bf4:	e1a03002 	mov	r3, r2
    5bf8:	1afffdae 	bne	52b8 <_dtoa_r+0x890>
    5bfc:	eaffffbf 	b	5b00 <_dtoa_r+0x10d8>
    5c00:	e59d301c 	ldr	r3, [sp, #28]
    5c04:	e3530000 	cmp	r3, #0
    5c08:	0afffd43 	beq	511c <_dtoa_r+0x6f4>
    5c0c:	e59d3044 	ldr	r3, [sp, #68]	; 0x44
    5c10:	e3530000 	cmp	r3, #0
    5c14:	dafffd5d 	ble	5190 <_dtoa_r+0x768>
    5c18:	e58d3048 	str	r3, [sp, #72]	; 0x48
    5c1c:	e59d3014 	ldr	r3, [sp, #20]
    5c20:	e2433001 	sub	r3, r3, #1
    5c24:	e1a00005 	mov	r0, r5
    5c28:	e1a01006 	mov	r1, r6
    5c2c:	e3a02000 	mov	r2, #0
    5c30:	e58d3058 	str	r3, [sp, #88]	; 0x58
    5c34:	e51f3ea8 	ldr	r3, [pc, #-3752]	; 4d94 <_dtoa_r+0x36c>
    5c38:	eb00159f 	bl	b2bc <__aeabi_dmul>
    5c3c:	e1a02000 	mov	r2, r0
    5c40:	e1a06001 	mov	r6, r1
    5c44:	e1a05002 	mov	r5, r2
    5c48:	e2880001 	add	r0, r8, #1
    5c4c:	e58d5038 	str	r5, [sp, #56]	; 0x38
    5c50:	e58d603c 	str	r6, [sp, #60]	; 0x3c
    5c54:	eb00155f 	bl	b1d8 <__aeabi_i2d>
    5c58:	e1a02005 	mov	r2, r5
    5c5c:	e1a03006 	mov	r3, r6
    5c60:	eb001595 	bl	b2bc <__aeabi_dmul>
    5c64:	e3a02000 	mov	r2, #0
    5c68:	e51f3ed8 	ldr	r3, [pc, #-3800]	; 4d98 <_dtoa_r+0x370>
    5c6c:	eb00148c 	bl	aea4 <__adddf3>
    5c70:	e1a08000 	mov	r8, r0
    5c74:	e241950d 	sub	r9, r1, #54525952	; 0x3400000
    5c78:	eafffcb8 	b	4f60 <_dtoa_r+0x538>
    5c7c:	e59d2040 	ldr	r2, [sp, #64]	; 0x40
    5c80:	e3520000 	cmp	r2, #0
    5c84:	059d3060 	ldreq	r3, [sp, #96]	; 0x60
    5c88:	12833e43 	addne	r3, r3, #1072	; 0x430
    5c8c:	e59d2018 	ldr	r2, [sp, #24]
    5c90:	12833003 	addne	r3, r3, #3
    5c94:	02633036 	rsbeq	r3, r3, #54	; 0x36
    5c98:	e0822003 	add	r2, r2, r3
    5c9c:	e58d2018 	str	r2, [sp, #24]
    5ca0:	e59d2028 	ldr	r2, [sp, #40]	; 0x28
    5ca4:	e0823003 	add	r3, r2, r3
    5ca8:	e1a05002 	mov	r5, r2
    5cac:	e58d3028 	str	r3, [sp, #40]	; 0x28
    5cb0:	e59d7030 	ldr	r7, [sp, #48]	; 0x30
    5cb4:	eafffd59 	b	5220 <_dtoa_r+0x7f8>
    5cb8:	e1a0100b 	mov	r1, fp
    5cbc:	e1a00004 	mov	r0, r4
    5cc0:	e59d2030 	ldr	r2, [sp, #48]	; 0x30
    5cc4:	eb000773 	bl	7a98 <__pow5mult>
    5cc8:	e1a0b000 	mov	fp, r0
    5ccc:	eafffd6f 	b	5290 <_dtoa_r+0x868>
    5cd0:	e3a01000 	mov	r1, #0
    5cd4:	e1a00004 	mov	r0, r4
    5cd8:	e5841044 	str	r1, [r4, #68]	; 0x44
    5cdc:	eb000617 	bl	7540 <_Balloc>
    5ce0:	e2503000 	subs	r3, r0, #0
    5ce4:	e58d3010 	str	r3, [sp, #16]
    5ce8:	0a000100 	beq	60f0 <_dtoa_r+0x16c8>
    5cec:	e59d3010 	ldr	r3, [sp, #16]
    5cf0:	e59d2014 	ldr	r2, [sp, #20]
    5cf4:	e5843040 	str	r3, [r4, #64]	; 0x40
    5cf8:	e59d3064 	ldr	r3, [sp, #100]	; 0x64
    5cfc:	e352000e 	cmp	r2, #14
    5d00:	c3a02000 	movgt	r2, #0
    5d04:	d3a02001 	movle	r2, #1
    5d08:	e3530000 	cmp	r3, #0
    5d0c:	b3a02000 	movlt	r2, #0
    5d10:	e3520000 	cmp	r2, #0
    5d14:	0a000102 	beq	6124 <_dtoa_r+0x16fc>
    5d18:	e59d2014 	ldr	r2, [sp, #20]
    5d1c:	e51f3f88 	ldr	r3, [pc, #-3976]	; 4d9c <_dtoa_r+0x374>
    5d20:	e0833182 	add	r3, r3, r2, lsl #3
    5d24:	e3e02000 	mvn	r2, #0
    5d28:	e58d201c 	str	r2, [sp, #28]
    5d2c:	e893000c 	ldm	r3, {r2, r3}
    5d30:	e58d2008 	str	r2, [sp, #8]
    5d34:	e58d300c 	str	r3, [sp, #12]
    5d38:	e28da008 	add	sl, sp, #8
    5d3c:	e89a0600 	ldm	sl, {r9, sl}
    5d40:	e28d7020 	add	r7, sp, #32
    5d44:	e89700c0 	ldm	r7, {r6, r7}
    5d48:	e1a02009 	mov	r2, r9
    5d4c:	e1a0300a 	mov	r3, sl
    5d50:	e1a00006 	mov	r0, r6
    5d54:	e1a01007 	mov	r1, r7
    5d58:	eb0015fb 	bl	b54c <__aeabi_ddiv>
    5d5c:	eb0016dc 	bl	b8d4 <__aeabi_d2iz>
    5d60:	e1a08000 	mov	r8, r0
    5d64:	eb00151b 	bl	b1d8 <__aeabi_i2d>
    5d68:	e1a02009 	mov	r2, r9
    5d6c:	e1a0300a 	mov	r3, sl
    5d70:	eb001551 	bl	b2bc <__aeabi_dmul>
    5d74:	e1a03001 	mov	r3, r1
    5d78:	e1a02000 	mov	r2, r0
    5d7c:	e1a01007 	mov	r1, r7
    5d80:	e1a00006 	mov	r0, r6
    5d84:	eb001445 	bl	aea0 <__aeabi_dsub>
    5d88:	e59d301c 	ldr	r3, [sp, #28]
    5d8c:	e59d5010 	ldr	r5, [sp, #16]
    5d90:	e3530001 	cmp	r3, #1
    5d94:	e2883030 	add	r3, r8, #48	; 0x30
    5d98:	e4c53001 	strb	r3, [r5], #1
    5d9c:	0a000081 	beq	5fa8 <_dtoa_r+0x1580>
    5da0:	e58db018 	str	fp, [sp, #24]
    5da4:	e3a09001 	mov	r9, #1
    5da8:	e59db01c 	ldr	fp, [sp, #28]
    5dac:	e1a0a005 	mov	sl, r5
    5db0:	e28d7008 	add	r7, sp, #8
    5db4:	e89700c0 	ldm	r7, {r6, r7}
    5db8:	e58d401c 	str	r4, [sp, #28]
    5dbc:	ea000014 	b	5e14 <_dtoa_r+0x13ec>
    5dc0:	e1a02006 	mov	r2, r6
    5dc4:	e1a03007 	mov	r3, r7
    5dc8:	e1a00004 	mov	r0, r4
    5dcc:	e1a01005 	mov	r1, r5
    5dd0:	eb0015dd 	bl	b54c <__aeabi_ddiv>
    5dd4:	eb0016be 	bl	b8d4 <__aeabi_d2iz>
    5dd8:	e1a08000 	mov	r8, r0
    5ddc:	eb0014fd 	bl	b1d8 <__aeabi_i2d>
    5de0:	e1a02006 	mov	r2, r6
    5de4:	e1a03007 	mov	r3, r7
    5de8:	eb001533 	bl	b2bc <__aeabi_dmul>
    5dec:	e2899001 	add	r9, r9, #1
    5df0:	e1a03001 	mov	r3, r1
    5df4:	e1a02000 	mov	r2, r0
    5df8:	e1a01005 	mov	r1, r5
    5dfc:	e1a00004 	mov	r0, r4
    5e00:	eb001426 	bl	aea0 <__aeabi_dsub>
    5e04:	e2883030 	add	r3, r8, #48	; 0x30
    5e08:	e159000b 	cmp	r9, fp
    5e0c:	e4ca3001 	strb	r3, [sl], #1
    5e10:	0a000061 	beq	5f9c <_dtoa_r+0x1574>
    5e14:	e3a02000 	mov	r2, #0
    5e18:	e59f3320 	ldr	r3, [pc, #800]	; 6140 <_dtoa_r+0x1718>
    5e1c:	eb001526 	bl	b2bc <__aeabi_dmul>
    5e20:	e3a02000 	mov	r2, #0
    5e24:	e3a03000 	mov	r3, #0
    5e28:	e1a04000 	mov	r4, r0
    5e2c:	e1a05001 	mov	r5, r1
    5e30:	eb00167b 	bl	b824 <__aeabi_dcmpeq>
    5e34:	e3500000 	cmp	r0, #0
    5e38:	0affffe0 	beq	5dc0 <_dtoa_r+0x1398>
    5e3c:	e1a0500a 	mov	r5, sl
    5e40:	e59db018 	ldr	fp, [sp, #24]
    5e44:	e59d401c 	ldr	r4, [sp, #28]
    5e48:	e59d3014 	ldr	r3, [sp, #20]
    5e4c:	e2833001 	add	r3, r3, #1
    5e50:	e59d8010 	ldr	r8, [sp, #16]
    5e54:	e58d3014 	str	r3, [sp, #20]
    5e58:	e58d5010 	str	r5, [sp, #16]
    5e5c:	eafffd52 	b	53ac <_dtoa_r+0x984>
    5e60:	e59d8010 	ldr	r8, [sp, #16]
    5e64:	e58d5010 	str	r5, [sp, #16]
    5e68:	eafffd4f 	b	53ac <_dtoa_r+0x984>
    5e6c:	e59d3014 	ldr	r3, [sp, #20]
    5e70:	e2833001 	add	r3, r3, #1
    5e74:	e58d3014 	str	r3, [sp, #20]
    5e78:	e3a03031 	mov	r3, #49	; 0x31
    5e7c:	e59d2010 	ldr	r2, [sp, #16]
    5e80:	e5c23000 	strb	r3, [r2]
    5e84:	eafffeff 	b	5a88 <_dtoa_r+0x1060>
    5e88:	1a000002 	bne	5e98 <_dtoa_r+0x1470>
    5e8c:	e59d3008 	ldr	r3, [sp, #8]
    5e90:	e3130001 	tst	r3, #1
    5e94:	1afffeef 	bne	5a58 <_dtoa_r+0x1030>
    5e98:	e1a05008 	mov	r5, r8
    5e9c:	e5783001 	ldrb	r3, [r8, #-1]!
    5ea0:	e3530030 	cmp	r3, #48	; 0x30
    5ea4:	0afffffb 	beq	5e98 <_dtoa_r+0x1470>
    5ea8:	eafffef6 	b	5a88 <_dtoa_r+0x1060>
    5eac:	e59d3058 	ldr	r3, [sp, #88]	; 0x58
    5eb0:	e2833001 	add	r3, r3, #1
    5eb4:	e58d3058 	str	r3, [sp, #88]	; 0x58
    5eb8:	e58d1010 	str	r1, [sp, #16]
    5ebc:	e3a03031 	mov	r3, #49	; 0x31
    5ec0:	eafffc8e 	b	5100 <_dtoa_r+0x6d8>
    5ec4:	e3520000 	cmp	r2, #0
    5ec8:	da00000d 	ble	5f04 <_dtoa_r+0x14dc>
    5ecc:	e1a0100b 	mov	r1, fp
    5ed0:	e3a02001 	mov	r2, #1
    5ed4:	e1a00004 	mov	r0, r4
    5ed8:	e58d3008 	str	r3, [sp, #8]
    5edc:	eb000736 	bl	7bbc <__lshift>
    5ee0:	e1a01007 	mov	r1, r7
    5ee4:	e1a0b000 	mov	fp, r0
    5ee8:	eb000783 	bl	7cfc <__mcmp>
    5eec:	e3500000 	cmp	r0, #0
    5ef0:	e59d3008 	ldr	r3, [sp, #8]
    5ef4:	da000070 	ble	60bc <_dtoa_r+0x1694>
    5ef8:	e3530039 	cmp	r3, #57	; 0x39
    5efc:	0a000045 	beq	6018 <_dtoa_r+0x15f0>
    5f00:	e2893031 	add	r3, r9, #49	; 0x31
    5f04:	e59d2014 	ldr	r2, [sp, #20]
    5f08:	e2822001 	add	r2, r2, #1
    5f0c:	e1a09006 	mov	r9, r6
    5f10:	e58d2014 	str	r2, [sp, #20]
    5f14:	e1a0600a 	mov	r6, sl
    5f18:	e4c53001 	strb	r3, [r5], #1
    5f1c:	eafffed9 	b	5a88 <_dtoa_r+0x1060>
    5f20:	e59db038 	ldr	fp, [sp, #56]	; 0x38
    5f24:	e59d4048 	ldr	r4, [sp, #72]	; 0x48
    5f28:	e59d3058 	ldr	r3, [sp, #88]	; 0x58
    5f2c:	e2833001 	add	r3, r3, #1
    5f30:	e59d8010 	ldr	r8, [sp, #16]
    5f34:	e58d3014 	str	r3, [sp, #20]
    5f38:	e58d5010 	str	r5, [sp, #16]
    5f3c:	eafffd1a 	b	53ac <_dtoa_r+0x984>
    5f40:	e59d1010 	ldr	r1, [sp, #16]
    5f44:	eafffc66 	b	50e4 <_dtoa_r+0x6bc>
    5f48:	e1a00004 	mov	r0, r4
    5f4c:	e5961004 	ldr	r1, [r6, #4]
    5f50:	eb00057a 	bl	7540 <_Balloc>
    5f54:	e2505000 	subs	r5, r0, #0
    5f58:	0a000069 	beq	6104 <_dtoa_r+0x16dc>
    5f5c:	e5962010 	ldr	r2, [r6, #16]
    5f60:	e2822002 	add	r2, r2, #2
    5f64:	e1a02102 	lsl	r2, r2, #2
    5f68:	e286100c 	add	r1, r6, #12
    5f6c:	e285000c 	add	r0, r5, #12
    5f70:	ebffee6b 	bl	1924 <memcpy>
    5f74:	e1a01005 	mov	r1, r5
    5f78:	e3a02001 	mov	r2, #1
    5f7c:	e1a00004 	mov	r0, r4
    5f80:	eb00070d 	bl	7bbc <__lshift>
    5f84:	e1a0a000 	mov	sl, r0
    5f88:	eafffd3f 	b	548c <_dtoa_r+0xa64>
    5f8c:	e59da05c 	ldr	sl, [sp, #92]	; 0x5c
    5f90:	e59db038 	ldr	fp, [sp, #56]	; 0x38
    5f94:	e59d4048 	ldr	r4, [sp, #72]	; 0x48
    5f98:	eafffc7c 	b	5190 <_dtoa_r+0x768>
    5f9c:	e1a0500a 	mov	r5, sl
    5fa0:	e59db018 	ldr	fp, [sp, #24]
    5fa4:	e59d401c 	ldr	r4, [sp, #28]
    5fa8:	e1a02000 	mov	r2, r0
    5fac:	e1a03001 	mov	r3, r1
    5fb0:	eb0013bb 	bl	aea4 <__adddf3>
    5fb4:	e28da008 	add	sl, sp, #8
    5fb8:	e89a0600 	ldm	sl, {r9, sl}
    5fbc:	e1a02009 	mov	r2, r9
    5fc0:	e1a0300a 	mov	r3, sl
    5fc4:	e1a06000 	mov	r6, r0
    5fc8:	e1a07001 	mov	r7, r1
    5fcc:	eb00162c 	bl	b884 <__aeabi_dcmpgt>
    5fd0:	e3500000 	cmp	r0, #0
    5fd4:	1a000008 	bne	5ffc <_dtoa_r+0x15d4>
    5fd8:	e1a02009 	mov	r2, r9
    5fdc:	e1a0300a 	mov	r3, sl
    5fe0:	e1a00006 	mov	r0, r6
    5fe4:	e1a01007 	mov	r1, r7
    5fe8:	eb00160d 	bl	b824 <__aeabi_dcmpeq>
    5fec:	e3500000 	cmp	r0, #0
    5ff0:	0affff94 	beq	5e48 <_dtoa_r+0x1420>
    5ff4:	e3180001 	tst	r8, #1
    5ff8:	0affff92 	beq	5e48 <_dtoa_r+0x1420>
    5ffc:	e59d3014 	ldr	r3, [sp, #20]
    6000:	e59d1010 	ldr	r1, [sp, #16]
    6004:	e58d3058 	str	r3, [sp, #88]	; 0x58
    6008:	eafffc35 	b	50e4 <_dtoa_r+0x6bc>
    600c:	e3530039 	cmp	r3, #57	; 0x39
    6010:	12833001 	addne	r3, r3, #1
    6014:	1affffba 	bne	5f04 <_dtoa_r+0x14dc>
    6018:	e59d3014 	ldr	r3, [sp, #20]
    601c:	e2833001 	add	r3, r3, #1
    6020:	e1a08005 	mov	r8, r5
    6024:	e58d3014 	str	r3, [sp, #20]
    6028:	e3a03039 	mov	r3, #57	; 0x39
    602c:	e1a09006 	mov	r9, r6
    6030:	e4c83001 	strb	r3, [r8], #1
    6034:	e1a0600a 	mov	r6, sl
    6038:	eafffe87 	b	5a5c <_dtoa_r+0x1034>
    603c:	e59d2014 	ldr	r2, [sp, #20]
    6040:	e2822001 	add	r2, r2, #1
    6044:	e1a09006 	mov	r9, r6
    6048:	e58d2014 	str	r2, [sp, #20]
    604c:	e1a0600a 	mov	r6, sl
    6050:	eafffe76 	b	5a30 <_dtoa_r+0x1008>
    6054:	e3530039 	cmp	r3, #57	; 0x39
    6058:	0affffee 	beq	6018 <_dtoa_r+0x15f0>
    605c:	e3580000 	cmp	r8, #0
    6060:	caffffa6 	bgt	5f00 <_dtoa_r+0x14d8>
    6064:	eaffffa6 	b	5f04 <_dtoa_r+0x14dc>
    6068:	e1a05008 	mov	r5, r8
    606c:	eafffe22 	b	58fc <_dtoa_r+0xed4>
    6070:	e1a01006 	mov	r1, r6
    6074:	e3a03000 	mov	r3, #0
    6078:	e3a0200a 	mov	r2, #10
    607c:	e1a00004 	mov	r0, r4
    6080:	eb000558 	bl	75e8 <__multadd>
    6084:	e59d2044 	ldr	r2, [sp, #68]	; 0x44
    6088:	e59d1090 	ldr	r1, [sp, #144]	; 0x90
    608c:	e3520000 	cmp	r2, #0
    6090:	e1a03002 	mov	r3, r2
    6094:	d3a03001 	movle	r3, #1
    6098:	c3a03000 	movgt	r3, #0
    609c:	e3510002 	cmp	r1, #2
    60a0:	d3a03000 	movle	r3, #0
    60a4:	e3530000 	cmp	r3, #0
    60a8:	e1a06000 	mov	r6, r0
    60ac:	e58d8014 	str	r8, [sp, #20]
    60b0:	058d201c 	streq	r2, [sp, #28]
    60b4:	1afffdab 	bne	5768 <_dtoa_r+0xd40>
    60b8:	eafffce9 	b	5464 <_dtoa_r+0xa3c>
    60bc:	1affff90 	bne	5f04 <_dtoa_r+0x14dc>
    60c0:	e3130001 	tst	r3, #1
    60c4:	1affff8b 	bne	5ef8 <_dtoa_r+0x14d0>
    60c8:	eaffff8d 	b	5f04 <_dtoa_r+0x14dc>
    60cc:	e28d3048 	add	r3, sp, #72	; 0x48
    60d0:	e893000c 	ldm	r3, {r2, r3}
    60d4:	e3a08002 	mov	r8, #2
    60d8:	e58d2038 	str	r2, [sp, #56]	; 0x38
    60dc:	e58d303c 	str	r3, [sp, #60]	; 0x3c
    60e0:	eafffb81 	b	4eec <_dtoa_r+0x4c4>
    60e4:	1263303c 	rsbne	r3, r3, #60	; 0x3c
    60e8:	1afffccf 	bne	542c <_dtoa_r+0xa04>
    60ec:	eafffc82 	b	52fc <_dtoa_r+0x8d4>
    60f0:	e3a02000 	mov	r2, #0
    60f4:	e59f3048 	ldr	r3, [pc, #72]	; 6144 <_dtoa_r+0x171c>
    60f8:	e59f1048 	ldr	r1, [pc, #72]	; 6148 <_dtoa_r+0x1720>
    60fc:	e59f0048 	ldr	r0, [pc, #72]	; 614c <_dtoa_r+0x1724>
    6100:	eb000e46 	bl	9a20 <__assert_func>
    6104:	e1a02005 	mov	r2, r5
    6108:	e59f3034 	ldr	r3, [pc, #52]	; 6144 <_dtoa_r+0x171c>
    610c:	e59f103c 	ldr	r1, [pc, #60]	; 6150 <_dtoa_r+0x1728>
    6110:	e59f0034 	ldr	r0, [pc, #52]	; 614c <_dtoa_r+0x1724>
    6114:	eb000e41 	bl	9a20 <__assert_func>
    6118:	e59d8010 	ldr	r8, [sp, #16]
    611c:	e58d5010 	str	r5, [sp, #16]
    6120:	eafffc9e 	b	53a0 <_dtoa_r+0x978>
    6124:	e3a01001 	mov	r1, #1
    6128:	e58d2094 	str	r2, [sp, #148]	; 0x94
    612c:	e3e02000 	mvn	r2, #0
    6130:	e58d102c 	str	r1, [sp, #44]	; 0x2c
    6134:	e58d201c 	str	r2, [sp, #28]
    6138:	e58d2044 	str	r2, [sp, #68]	; 0x44
    613c:	eafffc1e 	b	51bc <_dtoa_r+0x794>
    6140:	40240000 	.word	0x40240000
    6144:	0000bfcc 	.word	0x0000bfcc
    6148:	000001aa 	.word	0x000001aa
    614c:	0000bfe0 	.word	0x0000bfe0
    6150:	000002ea 	.word	0x000002ea

00006154 <__sflush_r>:
    6154:	e1d120fc 	ldrsh	r2, [r1, #12]
    6158:	e3120008 	tst	r2, #8
    615c:	e92d41f0 	push	{r4, r5, r6, r7, r8, lr}
    6160:	e1a04001 	mov	r4, r1
    6164:	e1a07000 	mov	r7, r0
    6168:	1a000047 	bne	628c <__sflush_r+0x138>
    616c:	e5913004 	ldr	r3, [r1, #4]
    6170:	e3822b02 	orr	r2, r2, #2048	; 0x800
    6174:	e3530000 	cmp	r3, #0
    6178:	e1c120bc 	strh	r2, [r1, #12]
    617c:	da000064 	ble	6314 <__sflush_r+0x1c0>
    6180:	e5946028 	ldr	r6, [r4, #40]	; 0x28
    6184:	e3560000 	cmp	r6, #0
    6188:	0a000064 	beq	6320 <__sflush_r+0x1cc>
    618c:	e3a03000 	mov	r3, #0
    6190:	e5978000 	ldr	r8, [r7]
    6194:	e2125a01 	ands	r5, r2, #4096	; 0x1000
    6198:	e5873000 	str	r3, [r7]
    619c:	e1a03802 	lsl	r3, r2, #16
    61a0:	e1a03823 	lsr	r3, r3, #16
    61a4:	1a000060 	bne	632c <__sflush_r+0x1d8>
    61a8:	e3a03001 	mov	r3, #1
    61ac:	e1a02005 	mov	r2, r5
    61b0:	e1a00007 	mov	r0, r7
    61b4:	e594101c 	ldr	r1, [r4, #28]
    61b8:	e1a0e00f 	mov	lr, pc
    61bc:	e12fff16 	bx	r6
    61c0:	e3700001 	cmn	r0, #1
    61c4:	0a000064 	beq	635c <__sflush_r+0x208>
    61c8:	e1d430bc 	ldrh	r3, [r4, #12]
    61cc:	e5946028 	ldr	r6, [r4, #40]	; 0x28
    61d0:	e3130004 	tst	r3, #4
    61d4:	0a000005 	beq	61f0 <__sflush_r+0x9c>
    61d8:	e5943030 	ldr	r3, [r4, #48]	; 0x30
    61dc:	e3530000 	cmp	r3, #0
    61e0:	e5943004 	ldr	r3, [r4, #4]
    61e4:	e0400003 	sub	r0, r0, r3
    61e8:	1594303c 	ldrne	r3, [r4, #60]	; 0x3c
    61ec:	10400003 	subne	r0, r0, r3
    61f0:	e1a02000 	mov	r2, r0
    61f4:	e3a03000 	mov	r3, #0
    61f8:	e1a00007 	mov	r0, r7
    61fc:	e594101c 	ldr	r1, [r4, #28]
    6200:	e1a0e00f 	mov	lr, pc
    6204:	e12fff16 	bx	r6
    6208:	e3700001 	cmn	r0, #1
    620c:	1a000048 	bne	6334 <__sflush_r+0x1e0>
    6210:	e5972000 	ldr	r2, [r7]
    6214:	e352001d 	cmp	r2, #29
    6218:	13520000 	cmpne	r2, #0
    621c:	03a03001 	moveq	r3, #1
    6220:	13a03000 	movne	r3, #0
    6224:	e3520016 	cmp	r2, #22
    6228:	03833001 	orreq	r3, r3, #1
    622c:	e3530000 	cmp	r3, #0
    6230:	0a000051 	beq	637c <__sflush_r+0x228>
    6234:	e3a03000 	mov	r3, #0
    6238:	e5843004 	str	r3, [r4, #4]
    623c:	e1d430fc 	ldrsh	r3, [r4, #12]
    6240:	e3c33b02 	bic	r3, r3, #2048	; 0x800
    6244:	e1c430bc 	strh	r3, [r4, #12]
    6248:	e3130a01 	tst	r3, #4096	; 0x1000
    624c:	e5943010 	ldr	r3, [r4, #16]
    6250:	e5843000 	str	r3, [r4]
    6254:	1a00004c 	bne	638c <__sflush_r+0x238>
    6258:	e5941030 	ldr	r1, [r4, #48]	; 0x30
    625c:	e3510000 	cmp	r1, #0
    6260:	e5878000 	str	r8, [r7]
    6264:	0a00002d 	beq	6320 <__sflush_r+0x1cc>
    6268:	e2843040 	add	r3, r4, #64	; 0x40
    626c:	e1510003 	cmp	r1, r3
    6270:	11a00007 	movne	r0, r7
    6274:	1b000134 	blne	674c <_free_r>
    6278:	e3a03000 	mov	r3, #0
    627c:	e1a00003 	mov	r0, r3
    6280:	e5843030 	str	r3, [r4, #48]	; 0x30
    6284:	e8bd41f0 	pop	{r4, r5, r6, r7, r8, lr}
    6288:	e12fff1e 	bx	lr
    628c:	e5916010 	ldr	r6, [r1, #16]
    6290:	e3560000 	cmp	r6, #0
    6294:	0a000021 	beq	6320 <__sflush_r+0x1cc>
    6298:	e1a03802 	lsl	r3, r2, #16
    629c:	e1a03823 	lsr	r3, r3, #16
    62a0:	e3130003 	tst	r3, #3
    62a4:	13a03000 	movne	r3, #0
    62a8:	e5915000 	ldr	r5, [r1]
    62ac:	05913014 	ldreq	r3, [r1, #20]
    62b0:	e0455006 	sub	r5, r5, r6
    62b4:	e3550000 	cmp	r5, #0
    62b8:	e5816000 	str	r6, [r1]
    62bc:	e5813008 	str	r3, [r1, #8]
    62c0:	ca000003 	bgt	62d4 <__sflush_r+0x180>
    62c4:	ea000015 	b	6320 <__sflush_r+0x1cc>
    62c8:	e3550000 	cmp	r5, #0
    62cc:	e0866000 	add	r6, r6, r0
    62d0:	da000012 	ble	6320 <__sflush_r+0x1cc>
    62d4:	e1a03005 	mov	r3, r5
    62d8:	e1a02006 	mov	r2, r6
    62dc:	e1a00007 	mov	r0, r7
    62e0:	e594101c 	ldr	r1, [r4, #28]
    62e4:	e594c024 	ldr	ip, [r4, #36]	; 0x24
    62e8:	e1a0e00f 	mov	lr, pc
    62ec:	e12fff1c 	bx	ip
    62f0:	e3500000 	cmp	r0, #0
    62f4:	e0455000 	sub	r5, r5, r0
    62f8:	cafffff2 	bgt	62c8 <__sflush_r+0x174>
    62fc:	e1d430bc 	ldrh	r3, [r4, #12]
    6300:	e3833040 	orr	r3, r3, #64	; 0x40
    6304:	e3e00000 	mvn	r0, #0
    6308:	e1c430bc 	strh	r3, [r4, #12]
    630c:	e8bd41f0 	pop	{r4, r5, r6, r7, r8, lr}
    6310:	e12fff1e 	bx	lr
    6314:	e591303c 	ldr	r3, [r1, #60]	; 0x3c
    6318:	e3530000 	cmp	r3, #0
    631c:	caffff97 	bgt	6180 <__sflush_r+0x2c>
    6320:	e3a00000 	mov	r0, #0
    6324:	e8bd41f0 	pop	{r4, r5, r6, r7, r8, lr}
    6328:	e12fff1e 	bx	lr
    632c:	e5940050 	ldr	r0, [r4, #80]	; 0x50
    6330:	eaffffa6 	b	61d0 <__sflush_r+0x7c>
    6334:	e1d430fc 	ldrsh	r3, [r4, #12]
    6338:	e3c33b02 	bic	r3, r3, #2048	; 0x800
    633c:	e1c430bc 	strh	r3, [r4, #12]
    6340:	e3130a01 	tst	r3, #4096	; 0x1000
    6344:	e3a03000 	mov	r3, #0
    6348:	e5942010 	ldr	r2, [r4, #16]
    634c:	e884000c 	stm	r4, {r2, r3}
    6350:	0affffc0 	beq	6258 <__sflush_r+0x104>
    6354:	e5840050 	str	r0, [r4, #80]	; 0x50
    6358:	eaffffbe 	b	6258 <__sflush_r+0x104>
    635c:	e5973000 	ldr	r3, [r7]
    6360:	e3530000 	cmp	r3, #0
    6364:	0affff97 	beq	61c8 <__sflush_r+0x74>
    6368:	e3530016 	cmp	r3, #22
    636c:	1353001d 	cmpne	r3, #29
    6370:	01a00005 	moveq	r0, r5
    6374:	05878000 	streq	r8, [r7]
    6378:	0affffe9 	beq	6324 <__sflush_r+0x1d0>
    637c:	e1d430bc 	ldrh	r3, [r4, #12]
    6380:	e3833040 	orr	r3, r3, #64	; 0x40
    6384:	e1c430bc 	strh	r3, [r4, #12]
    6388:	eaffffe5 	b	6324 <__sflush_r+0x1d0>
    638c:	e3520000 	cmp	r2, #0
    6390:	1affffb0 	bne	6258 <__sflush_r+0x104>
    6394:	eaffffee 	b	6354 <__sflush_r+0x200>

00006398 <_fflush_r>:
    6398:	e92d4070 	push	{r4, r5, r6, lr}
    639c:	e2505000 	subs	r5, r0, #0
    63a0:	e1a04001 	mov	r4, r1
    63a4:	0a000002 	beq	63b4 <_fflush_r+0x1c>
    63a8:	e5953038 	ldr	r3, [r5, #56]	; 0x38
    63ac:	e3530000 	cmp	r3, #0
    63b0:	0a000015 	beq	640c <_fflush_r+0x74>
    63b4:	e1d400fc 	ldrsh	r0, [r4, #12]
    63b8:	e3500000 	cmp	r0, #0
    63bc:	01a05000 	moveq	r5, r0
    63c0:	0a00000e 	beq	6400 <_fflush_r+0x68>
    63c4:	e5943064 	ldr	r3, [r4, #100]	; 0x64
    63c8:	e3130001 	tst	r3, #1
    63cc:	1a000001 	bne	63d8 <_fflush_r+0x40>
    63d0:	e3100c02 	tst	r0, #512	; 0x200
    63d4:	0a00000e 	beq	6414 <_fflush_r+0x7c>
    63d8:	e1a00005 	mov	r0, r5
    63dc:	e1a01004 	mov	r1, r4
    63e0:	ebffff5b 	bl	6154 <__sflush_r>
    63e4:	e5943064 	ldr	r3, [r4, #100]	; 0x64
    63e8:	e3130001 	tst	r3, #1
    63ec:	e1a05000 	mov	r5, r0
    63f0:	1a000002 	bne	6400 <_fflush_r+0x68>
    63f4:	e1d430bc 	ldrh	r3, [r4, #12]
    63f8:	e3130c02 	tst	r3, #512	; 0x200
    63fc:	0a000007 	beq	6420 <_fflush_r+0x88>
    6400:	e1a00005 	mov	r0, r5
    6404:	e8bd4070 	pop	{r4, r5, r6, lr}
    6408:	e12fff1e 	bx	lr
    640c:	eb00000e 	bl	644c <__sinit>
    6410:	eaffffe7 	b	63b4 <_fflush_r+0x1c>
    6414:	e5940058 	ldr	r0, [r4, #88]	; 0x58
    6418:	eb0001a9 	bl	6ac4 <__retarget_lock_acquire_recursive>
    641c:	eaffffed 	b	63d8 <_fflush_r+0x40>
    6420:	e5940058 	ldr	r0, [r4, #88]	; 0x58
    6424:	eb0001a7 	bl	6ac8 <__retarget_lock_release_recursive>
    6428:	e1a00005 	mov	r0, r5
    642c:	e8bd4070 	pop	{r4, r5, r6, lr}
    6430:	e12fff1e 	bx	lr

00006434 <_cleanup_r>:
    6434:	e92d4010 	push	{r4, lr}
    6438:	e59f1008 	ldr	r1, [pc, #8]	; 6448 <_cleanup_r+0x14>
    643c:	eb00017d 	bl	6a38 <_fwalk_reent>
    6440:	e8bd4010 	pop	{r4, lr}
    6444:	e12fff1e 	bx	lr
    6448:	00009b54 	.word	0x00009b54

0000644c <__sinit>:
    644c:	e92d47f0 	push	{r4, r5, r6, r7, r8, r9, sl, lr}
    6450:	e1a0a000 	mov	sl, r0
    6454:	e59f015c 	ldr	r0, [pc, #348]	; 65b8 <__sinit+0x16c>
    6458:	eb000199 	bl	6ac4 <__retarget_lock_acquire_recursive>
    645c:	e59a4038 	ldr	r4, [sl, #56]	; 0x38
    6460:	e3540000 	cmp	r4, #0
    6464:	1a00004f 	bne	65a8 <__sinit+0x15c>
    6468:	e3a03004 	mov	r3, #4
    646c:	e3a02003 	mov	r2, #3
    6470:	e59f1144 	ldr	r1, [pc, #324]	; 65bc <__sinit+0x170>
    6474:	e59a5004 	ldr	r5, [sl, #4]
    6478:	e58a103c 	str	r1, [sl, #60]	; 0x3c
    647c:	e59f913c 	ldr	r9, [pc, #316]	; 65c0 <__sinit+0x174>
    6480:	e59f813c 	ldr	r8, [pc, #316]	; 65c4 <__sinit+0x178>
    6484:	e59f713c 	ldr	r7, [pc, #316]	; 65c8 <__sinit+0x17c>
    6488:	e59f613c 	ldr	r6, [pc, #316]	; 65cc <__sinit+0x180>
    648c:	e28a1fbb 	add	r1, sl, #748	; 0x2ec
    6490:	e58a12e8 	str	r1, [sl, #744]	; 0x2e8
    6494:	e58a22e4 	str	r2, [sl, #740]	; 0x2e4
    6498:	e58a42e0 	str	r4, [sl, #736]	; 0x2e0
    649c:	e1a01004 	mov	r1, r4
    64a0:	e585300c 	str	r3, [r5, #12]
    64a4:	e3a02008 	mov	r2, #8
    64a8:	e5854064 	str	r4, [r5, #100]	; 0x64
    64ac:	e5854000 	str	r4, [r5]
    64b0:	e5854004 	str	r4, [r5, #4]
    64b4:	e5854008 	str	r4, [r5, #8]
    64b8:	e5854010 	str	r4, [r5, #16]
    64bc:	e5854014 	str	r4, [r5, #20]
    64c0:	e5854018 	str	r4, [r5, #24]
    64c4:	e285005c 	add	r0, r5, #92	; 0x5c
    64c8:	ebffed5d 	bl	1a44 <memset>
    64cc:	e5859020 	str	r9, [r5, #32]
    64d0:	e5858024 	str	r8, [r5, #36]	; 0x24
    64d4:	e5857028 	str	r7, [r5, #40]	; 0x28
    64d8:	e585602c 	str	r6, [r5, #44]	; 0x2c
    64dc:	e2850058 	add	r0, r5, #88	; 0x58
    64e0:	e585501c 	str	r5, [r5, #28]
    64e4:	eb000174 	bl	6abc <__retarget_lock_init_recursive>
    64e8:	e59a5008 	ldr	r5, [sl, #8]
    64ec:	e59f30dc 	ldr	r3, [pc, #220]	; 65d0 <__sinit+0x184>
    64f0:	e1a01004 	mov	r1, r4
    64f4:	e585300c 	str	r3, [r5, #12]
    64f8:	e3a02008 	mov	r2, #8
    64fc:	e5854064 	str	r4, [r5, #100]	; 0x64
    6500:	e5854000 	str	r4, [r5]
    6504:	e5854004 	str	r4, [r5, #4]
    6508:	e5854008 	str	r4, [r5, #8]
    650c:	e5854010 	str	r4, [r5, #16]
    6510:	e5854014 	str	r4, [r5, #20]
    6514:	e5854018 	str	r4, [r5, #24]
    6518:	e285005c 	add	r0, r5, #92	; 0x5c
    651c:	ebffed48 	bl	1a44 <memset>
    6520:	e5859020 	str	r9, [r5, #32]
    6524:	e5858024 	str	r8, [r5, #36]	; 0x24
    6528:	e5857028 	str	r7, [r5, #40]	; 0x28
    652c:	e585602c 	str	r6, [r5, #44]	; 0x2c
    6530:	e2850058 	add	r0, r5, #88	; 0x58
    6534:	e585501c 	str	r5, [r5, #28]
    6538:	eb00015f 	bl	6abc <__retarget_lock_init_recursive>
    653c:	e59a500c 	ldr	r5, [sl, #12]
    6540:	e59f308c 	ldr	r3, [pc, #140]	; 65d4 <__sinit+0x188>
    6544:	e1a01004 	mov	r1, r4
    6548:	e585300c 	str	r3, [r5, #12]
    654c:	e3a02008 	mov	r2, #8
    6550:	e5854064 	str	r4, [r5, #100]	; 0x64
    6554:	e5854000 	str	r4, [r5]
    6558:	e5854004 	str	r4, [r5, #4]
    655c:	e5854008 	str	r4, [r5, #8]
    6560:	e5854010 	str	r4, [r5, #16]
    6564:	e5854014 	str	r4, [r5, #20]
    6568:	e5854018 	str	r4, [r5, #24]
    656c:	e285005c 	add	r0, r5, #92	; 0x5c
    6570:	ebffed33 	bl	1a44 <memset>
    6574:	e2850058 	add	r0, r5, #88	; 0x58
    6578:	e5859020 	str	r9, [r5, #32]
    657c:	e585501c 	str	r5, [r5, #28]
    6580:	e5858024 	str	r8, [r5, #36]	; 0x24
    6584:	e5857028 	str	r7, [r5, #40]	; 0x28
    6588:	e585602c 	str	r6, [r5, #44]	; 0x2c
    658c:	eb00014a 	bl	6abc <__retarget_lock_init_recursive>
    6590:	e3a03001 	mov	r3, #1
    6594:	e59f001c 	ldr	r0, [pc, #28]	; 65b8 <__sinit+0x16c>
    6598:	e58a3038 	str	r3, [sl, #56]	; 0x38
    659c:	eb000149 	bl	6ac8 <__retarget_lock_release_recursive>
    65a0:	e8bd47f0 	pop	{r4, r5, r6, r7, r8, r9, sl, lr}
    65a4:	e12fff1e 	bx	lr
    65a8:	e59f0008 	ldr	r0, [pc, #8]	; 65b8 <__sinit+0x16c>
    65ac:	eb000145 	bl	6ac8 <__retarget_lock_release_recursive>
    65b0:	e8bd47f0 	pop	{r4, r5, r6, r7, r8, r9, sl, lr}
    65b4:	e12fff1e 	bx	lr
    65b8:	20000efc 	.word	0x20000efc
    65bc:	00006434 	.word	0x00006434
    65c0:	0000817c 	.word	0x0000817c
    65c4:	000081b0 	.word	0x000081b0
    65c8:	0000820c 	.word	0x0000820c
    65cc:	0000823c 	.word	0x0000823c
    65d0:	00010009 	.word	0x00010009
    65d4:	00020012 	.word	0x00020012

000065d8 <__sfp_lock_acquire>:
    65d8:	e92d4010 	push	{r4, lr}
    65dc:	e59f0008 	ldr	r0, [pc, #8]	; 65ec <__sfp_lock_acquire+0x14>
    65e0:	eb000137 	bl	6ac4 <__retarget_lock_acquire_recursive>
    65e4:	e8bd4010 	pop	{r4, lr}
    65e8:	e12fff1e 	bx	lr
    65ec:	20000ef8 	.word	0x20000ef8

000065f0 <__sfp_lock_release>:
    65f0:	e92d4010 	push	{r4, lr}
    65f4:	e59f0008 	ldr	r0, [pc, #8]	; 6604 <__sfp_lock_release+0x14>
    65f8:	eb000132 	bl	6ac8 <__retarget_lock_release_recursive>
    65fc:	e8bd4010 	pop	{r4, lr}
    6600:	e12fff1e 	bx	lr
    6604:	20000ef8 	.word	0x20000ef8

00006608 <__libc_fini_array>:
    6608:	e92d4070 	push	{r4, r5, r6, lr}
    660c:	e59f5030 	ldr	r5, [pc, #48]	; 6644 <__libc_fini_array+0x3c>
    6610:	e59f4030 	ldr	r4, [pc, #48]	; 6648 <__libc_fini_array+0x40>
    6614:	e0454004 	sub	r4, r5, r4
    6618:	e1b04144 	asrs	r4, r4, #2
    661c:	0a000005 	beq	6638 <__libc_fini_array+0x30>
    6620:	e5353004 	ldr	r3, [r5, #-4]!
    6624:	e2444001 	sub	r4, r4, #1
    6628:	e1a0e00f 	mov	lr, pc
    662c:	e12fff13 	bx	r3
    6630:	e3540000 	cmp	r4, #0
    6634:	1afffff9 	bne	6620 <__libc_fini_array+0x18>
    6638:	eb001567 	bl	bbdc <_fini>
    663c:	e8bd4070 	pop	{r4, r5, r6, lr}
    6640:	e12fff1e 	bx	lr
    6644:	20000a7c 	.word	0x20000a7c
    6648:	20000a78 	.word	0x20000a78

0000664c <_malloc_trim_r>:
    664c:	e92d41f0 	push	{r4, r5, r6, r7, r8, lr}
    6650:	e1a04001 	mov	r4, r1
    6654:	e59f70e4 	ldr	r7, [pc, #228]	; 6740 <_malloc_trim_r+0xf4>
    6658:	e1a06000 	mov	r6, r0
    665c:	eb0003ab 	bl	7510 <__malloc_lock>
    6660:	e5973008 	ldr	r3, [r7, #8]
    6664:	e5935004 	ldr	r5, [r3, #4]
    6668:	e2643efe 	rsb	r3, r4, #4064	; 0xfe0
    666c:	e3c55003 	bic	r5, r5, #3
    6670:	e283300f 	add	r3, r3, #15
    6674:	e0833005 	add	r3, r3, r5
    6678:	e3c33eff 	bic	r3, r3, #4080	; 0xff0
    667c:	e3c3300f 	bic	r3, r3, #15
    6680:	e2434a01 	sub	r4, r3, #4096	; 0x1000
    6684:	e3540a01 	cmp	r4, #4096	; 0x1000
    6688:	ba000006 	blt	66a8 <_malloc_trim_r+0x5c>
    668c:	e3a01000 	mov	r1, #0
    6690:	e1a00006 	mov	r0, r6
    6694:	eb0006a7 	bl	8138 <_sbrk_r>
    6698:	e5973008 	ldr	r3, [r7, #8]
    669c:	e0833005 	add	r3, r3, r5
    66a0:	e1500003 	cmp	r0, r3
    66a4:	0a000004 	beq	66bc <_malloc_trim_r+0x70>
    66a8:	e1a00006 	mov	r0, r6
    66ac:	eb00039d 	bl	7528 <__malloc_unlock>
    66b0:	e3a00000 	mov	r0, #0
    66b4:	e8bd41f0 	pop	{r4, r5, r6, r7, r8, lr}
    66b8:	e12fff1e 	bx	lr
    66bc:	e1a00006 	mov	r0, r6
    66c0:	e2641000 	rsb	r1, r4, #0
    66c4:	eb00069b 	bl	8138 <_sbrk_r>
    66c8:	e3700001 	cmn	r0, #1
    66cc:	0a00000c 	beq	6704 <_malloc_trim_r+0xb8>
    66d0:	e5973008 	ldr	r3, [r7, #8]
    66d4:	e59f2068 	ldr	r2, [pc, #104]	; 6744 <_malloc_trim_r+0xf8>
    66d8:	e0455004 	sub	r5, r5, r4
    66dc:	e3855001 	orr	r5, r5, #1
    66e0:	e5835004 	str	r5, [r3, #4]
    66e4:	e5923000 	ldr	r3, [r2]
    66e8:	e1a00006 	mov	r0, r6
    66ec:	e0433004 	sub	r3, r3, r4
    66f0:	e5823000 	str	r3, [r2]
    66f4:	eb00038b 	bl	7528 <__malloc_unlock>
    66f8:	e3a00001 	mov	r0, #1
    66fc:	e8bd41f0 	pop	{r4, r5, r6, r7, r8, lr}
    6700:	e12fff1e 	bx	lr
    6704:	e3a01000 	mov	r1, #0
    6708:	e1a00006 	mov	r0, r6
    670c:	eb000689 	bl	8138 <_sbrk_r>
    6710:	e5972008 	ldr	r2, [r7, #8]
    6714:	e0403002 	sub	r3, r0, r2
    6718:	e353000f 	cmp	r3, #15
    671c:	daffffe1 	ble	66a8 <_malloc_trim_r+0x5c>
    6720:	e3833001 	orr	r3, r3, #1
    6724:	e5823004 	str	r3, [r2, #4]
    6728:	e59f3018 	ldr	r3, [pc, #24]	; 6748 <_malloc_trim_r+0xfc>
    672c:	e5933000 	ldr	r3, [r3]
    6730:	e59f100c 	ldr	r1, [pc, #12]	; 6744 <_malloc_trim_r+0xf8>
    6734:	e0400003 	sub	r0, r0, r3
    6738:	e5810000 	str	r0, [r1]
    673c:	eaffffd9 	b	66a8 <_malloc_trim_r+0x5c>
    6740:	200004f4 	.word	0x200004f4
    6744:	20000f00 	.word	0x20000f00
    6748:	200008fc 	.word	0x200008fc

0000674c <_free_r>:
    674c:	e92d4070 	push	{r4, r5, r6, lr}
    6750:	e2514000 	subs	r4, r1, #0
    6754:	0a000031 	beq	6820 <_free_r+0xd4>
    6758:	e1a05000 	mov	r5, r0
    675c:	eb00036b 	bl	7510 <__malloc_lock>
    6760:	e5140004 	ldr	r0, [r4, #-4]
    6764:	e59f22bc 	ldr	r2, [pc, #700]	; 6a28 <_free_r+0x2dc>
    6768:	e244c008 	sub	ip, r4, #8
    676c:	e5923008 	ldr	r3, [r2, #8]
    6770:	e3c01001 	bic	r1, r0, #1
    6774:	e08ce001 	add	lr, ip, r1
    6778:	e153000e 	cmp	r3, lr
    677c:	e59e3004 	ldr	r3, [lr, #4]
    6780:	e3c33003 	bic	r3, r3, #3
    6784:	0a000065 	beq	6920 <_free_r+0x1d4>
    6788:	e3100001 	tst	r0, #1
    678c:	e58e3004 	str	r3, [lr, #4]
    6790:	1a000024 	bne	6828 <_free_r+0xdc>
    6794:	e5140008 	ldr	r0, [r4, #-8]
    6798:	e04cc000 	sub	ip, ip, r0
    679c:	e0811000 	add	r1, r1, r0
    67a0:	e59c0008 	ldr	r0, [ip, #8]
    67a4:	e2824008 	add	r4, r2, #8
    67a8:	e1500004 	cmp	r0, r4
    67ac:	0a00004b 	beq	68e0 <_free_r+0x194>
    67b0:	e08e6003 	add	r6, lr, r3
    67b4:	e5966004 	ldr	r6, [r6, #4]
    67b8:	e3160001 	tst	r6, #1
    67bc:	e59c600c 	ldr	r6, [ip, #12]
    67c0:	e580600c 	str	r6, [r0, #12]
    67c4:	e5860008 	str	r0, [r6, #8]
    67c8:	0a000073 	beq	699c <_free_r+0x250>
    67cc:	e3813001 	orr	r3, r1, #1
    67d0:	e58c3004 	str	r3, [ip, #4]
    67d4:	e58e1000 	str	r1, [lr]
    67d8:	e3510c02 	cmp	r1, #512	; 0x200
    67dc:	2a000026 	bcs	687c <_free_r+0x130>
    67e0:	e3a0e001 	mov	lr, #1
    67e4:	e5920004 	ldr	r0, [r2, #4]
    67e8:	e1a031a1 	lsr	r3, r1, #3
    67ec:	e1a012a1 	lsr	r1, r1, #5
    67f0:	e2833001 	add	r3, r3, #1
    67f4:	e180111e 	orr	r1, r0, lr, lsl r1
    67f8:	e5821004 	str	r1, [r2, #4]
    67fc:	e7920183 	ldr	r0, [r2, r3, lsl #3]
    6800:	e0821183 	add	r1, r2, r3, lsl #3
    6804:	e2411008 	sub	r1, r1, #8
    6808:	e58c100c 	str	r1, [ip, #12]
    680c:	e58c0008 	str	r0, [ip, #8]
    6810:	e782c183 	str	ip, [r2, r3, lsl #3]
    6814:	e580c00c 	str	ip, [r0, #12]
    6818:	e1a00005 	mov	r0, r5
    681c:	eb000341 	bl	7528 <__malloc_unlock>
    6820:	e8bd4070 	pop	{r4, r5, r6, lr}
    6824:	e12fff1e 	bx	lr
    6828:	e08e0003 	add	r0, lr, r3
    682c:	e5900004 	ldr	r0, [r0, #4]
    6830:	e3100001 	tst	r0, #1
    6834:	1a00000b 	bne	6868 <_free_r+0x11c>
    6838:	e0811003 	add	r1, r1, r3
    683c:	e2824008 	add	r4, r2, #8
    6840:	e59e3008 	ldr	r3, [lr, #8]
    6844:	e1530004 	cmp	r3, r4
    6848:	0a00005f 	beq	69cc <_free_r+0x280>
    684c:	e59e000c 	ldr	r0, [lr, #12]
    6850:	e583000c 	str	r0, [r3, #12]
    6854:	e5803008 	str	r3, [r0, #8]
    6858:	e3813001 	orr	r3, r1, #1
    685c:	e58c3004 	str	r3, [ip, #4]
    6860:	e78c1001 	str	r1, [ip, r1]
    6864:	eaffffdb 	b	67d8 <_free_r+0x8c>
    6868:	e3813001 	orr	r3, r1, #1
    686c:	e3510c02 	cmp	r1, #512	; 0x200
    6870:	e5043004 	str	r3, [r4, #-4]
    6874:	e58e1000 	str	r1, [lr]
    6878:	3affffd8 	bcc	67e0 <_free_r+0x94>
    687c:	e3510c0a 	cmp	r1, #2560	; 0xa00
    6880:	e1a034a1 	lsr	r3, r1, #9
    6884:	2a00003b 	bcs	6978 <_free_r+0x22c>
    6888:	e1a03321 	lsr	r3, r1, #6
    688c:	e2830039 	add	r0, r3, #57	; 0x39
    6890:	e283e038 	add	lr, r3, #56	; 0x38
    6894:	e1a00180 	lsl	r0, r0, #3
    6898:	e7923000 	ldr	r3, [r2, r0]
    689c:	e0820000 	add	r0, r2, r0
    68a0:	e2400008 	sub	r0, r0, #8
    68a4:	e1500003 	cmp	r0, r3
    68a8:	0a000041 	beq	69b4 <_free_r+0x268>
    68ac:	e5932004 	ldr	r2, [r3, #4]
    68b0:	e3c22003 	bic	r2, r2, #3
    68b4:	e1520001 	cmp	r2, r1
    68b8:	9a000002 	bls	68c8 <_free_r+0x17c>
    68bc:	e5933008 	ldr	r3, [r3, #8]
    68c0:	e1500003 	cmp	r0, r3
    68c4:	1afffff8 	bne	68ac <_free_r+0x160>
    68c8:	e593000c 	ldr	r0, [r3, #12]
    68cc:	e58c000c 	str	r0, [ip, #12]
    68d0:	e58c3008 	str	r3, [ip, #8]
    68d4:	e580c008 	str	ip, [r0, #8]
    68d8:	e583c00c 	str	ip, [r3, #12]
    68dc:	eaffffcd 	b	6818 <_free_r+0xcc>
    68e0:	e08e2003 	add	r2, lr, r3
    68e4:	e5922004 	ldr	r2, [r2, #4]
    68e8:	e3120001 	tst	r2, #1
    68ec:	13813001 	orrne	r3, r1, #1
    68f0:	158c3004 	strne	r3, [ip, #4]
    68f4:	158e1000 	strne	r1, [lr]
    68f8:	1affffc6 	bne	6818 <_free_r+0xcc>
    68fc:	e0833001 	add	r3, r3, r1
    6900:	e28e1008 	add	r1, lr, #8
    6904:	e8910006 	ldm	r1, {r1, r2}
    6908:	e581200c 	str	r2, [r1, #12]
    690c:	e5821008 	str	r1, [r2, #8]
    6910:	e3832001 	orr	r2, r3, #1
    6914:	e58c2004 	str	r2, [ip, #4]
    6918:	e78c3003 	str	r3, [ip, r3]
    691c:	eaffffbd 	b	6818 <_free_r+0xcc>
    6920:	e3100001 	tst	r0, #1
    6924:	e0813003 	add	r3, r1, r3
    6928:	1a000006 	bne	6948 <_free_r+0x1fc>
    692c:	e5141008 	ldr	r1, [r4, #-8]
    6930:	e04cc001 	sub	ip, ip, r1
    6934:	e28c0008 	add	r0, ip, #8
    6938:	e0833001 	add	r3, r3, r1
    693c:	e8900003 	ldm	r0, {r0, r1}
    6940:	e580100c 	str	r1, [r0, #12]
    6944:	e5810008 	str	r0, [r1, #8]
    6948:	e3831001 	orr	r1, r3, #1
    694c:	e58c1004 	str	r1, [ip, #4]
    6950:	e59f10d4 	ldr	r1, [pc, #212]	; 6a2c <_free_r+0x2e0>
    6954:	e582c008 	str	ip, [r2, #8]
    6958:	e5912000 	ldr	r2, [r1]
    695c:	e1520003 	cmp	r2, r3
    6960:	8affffac 	bhi	6818 <_free_r+0xcc>
    6964:	e59f30c4 	ldr	r3, [pc, #196]	; 6a30 <_free_r+0x2e4>
    6968:	e1a00005 	mov	r0, r5
    696c:	e5931000 	ldr	r1, [r3]
    6970:	ebffff35 	bl	664c <_malloc_trim_r>
    6974:	eaffffa7 	b	6818 <_free_r+0xcc>
    6978:	e3530014 	cmp	r3, #20
    697c:	9a000008 	bls	69a4 <_free_r+0x258>
    6980:	e3530054 	cmp	r3, #84	; 0x54
    6984:	8a000017 	bhi	69e8 <_free_r+0x29c>
    6988:	e1a03621 	lsr	r3, r1, #12
    698c:	e283006f 	add	r0, r3, #111	; 0x6f
    6990:	e283e06e 	add	lr, r3, #110	; 0x6e
    6994:	e1a00180 	lsl	r0, r0, #3
    6998:	eaffffbe 	b	6898 <_free_r+0x14c>
    699c:	e0811003 	add	r1, r1, r3
    69a0:	eaffffa6 	b	6840 <_free_r+0xf4>
    69a4:	e283005c 	add	r0, r3, #92	; 0x5c
    69a8:	e283e05b 	add	lr, r3, #91	; 0x5b
    69ac:	e1a00180 	lsl	r0, r0, #3
    69b0:	eaffffb8 	b	6898 <_free_r+0x14c>
    69b4:	e3a04001 	mov	r4, #1
    69b8:	e5921004 	ldr	r1, [r2, #4]
    69bc:	e1a0e14e 	asr	lr, lr, #2
    69c0:	e181ee14 	orr	lr, r1, r4, lsl lr
    69c4:	e582e004 	str	lr, [r2, #4]
    69c8:	eaffffbf 	b	68cc <_free_r+0x180>
    69cc:	e3813001 	orr	r3, r1, #1
    69d0:	e582c014 	str	ip, [r2, #20]
    69d4:	e582c010 	str	ip, [r2, #16]
    69d8:	e98c0018 	stmib	ip, {r3, r4}
    69dc:	e58c400c 	str	r4, [ip, #12]
    69e0:	e78c1001 	str	r1, [ip, r1]
    69e4:	eaffff8b 	b	6818 <_free_r+0xcc>
    69e8:	e3530f55 	cmp	r3, #340	; 0x154
    69ec:	8a000004 	bhi	6a04 <_free_r+0x2b8>
    69f0:	e1a037a1 	lsr	r3, r1, #15
    69f4:	e2830078 	add	r0, r3, #120	; 0x78
    69f8:	e283e077 	add	lr, r3, #119	; 0x77
    69fc:	e1a00180 	lsl	r0, r0, #3
    6a00:	eaffffa4 	b	6898 <_free_r+0x14c>
    6a04:	e59f0028 	ldr	r0, [pc, #40]	; 6a34 <_free_r+0x2e8>
    6a08:	e1530000 	cmp	r3, r0
    6a0c:	91a03921 	lsrls	r3, r1, #18
    6a10:	9283007d 	addls	r0, r3, #125	; 0x7d
    6a14:	83a00ffe 	movhi	r0, #1016	; 0x3f8
    6a18:	83a0e07e 	movhi	lr, #126	; 0x7e
    6a1c:	9283e07c 	addls	lr, r3, #124	; 0x7c
    6a20:	91a00180 	lslls	r0, r0, #3
    6a24:	eaffff9b 	b	6898 <_free_r+0x14c>
    6a28:	200004f4 	.word	0x200004f4
    6a2c:	20000900 	.word	0x20000900
    6a30:	20000f30 	.word	0x20000f30
    6a34:	00000554 	.word	0x00000554

00006a38 <_fwalk_reent>:
    6a38:	e92d47f0 	push	{r4, r5, r6, r7, r8, r9, sl, lr}
    6a3c:	e3a09000 	mov	r9, #0
    6a40:	e1a07000 	mov	r7, r0
    6a44:	e1a08001 	mov	r8, r1
    6a48:	e2806e2e 	add	r6, r0, #736	; 0x2e0
    6a4c:	e5965004 	ldr	r5, [r6, #4]
    6a50:	e2555001 	subs	r5, r5, #1
    6a54:	e5964008 	ldr	r4, [r6, #8]
    6a58:	4a00000e 	bmi	6a98 <_fwalk_reent+0x60>
    6a5c:	e1d430bc 	ldrh	r3, [r4, #12]
    6a60:	e3530001 	cmp	r3, #1
    6a64:	e2455001 	sub	r5, r5, #1
    6a68:	9a000007 	bls	6a8c <_fwalk_reent+0x54>
    6a6c:	e1d430fe 	ldrsh	r3, [r4, #14]
    6a70:	e3730001 	cmn	r3, #1
    6a74:	0a000004 	beq	6a8c <_fwalk_reent+0x54>
    6a78:	e1a01004 	mov	r1, r4
    6a7c:	e1a00007 	mov	r0, r7
    6a80:	e1a0e00f 	mov	lr, pc
    6a84:	e12fff18 	bx	r8
    6a88:	e1899000 	orr	r9, r9, r0
    6a8c:	e3750001 	cmn	r5, #1
    6a90:	e2844068 	add	r4, r4, #104	; 0x68
    6a94:	1afffff0 	bne	6a5c <_fwalk_reent+0x24>
    6a98:	e5966000 	ldr	r6, [r6]
    6a9c:	e3560000 	cmp	r6, #0
    6aa0:	1affffe9 	bne	6a4c <_fwalk_reent+0x14>
    6aa4:	e1a00009 	mov	r0, r9
    6aa8:	e8bd47f0 	pop	{r4, r5, r6, r7, r8, r9, sl, lr}
    6aac:	e12fff1e 	bx	lr

00006ab0 <_localeconv_r>:
    6ab0:	e59f0000 	ldr	r0, [pc]	; 6ab8 <_localeconv_r+0x8>
    6ab4:	e12fff1e 	bx	lr
    6ab8:	200009f4 	.word	0x200009f4

00006abc <__retarget_lock_init_recursive>:
    6abc:	e12fff1e 	bx	lr

00006ac0 <__retarget_lock_close_recursive>:
    6ac0:	e12fff1e 	bx	lr

00006ac4 <__retarget_lock_acquire_recursive>:
    6ac4:	e12fff1e 	bx	lr

00006ac8 <__retarget_lock_release_recursive>:
    6ac8:	e12fff1e 	bx	lr

00006acc <__smakebuf_r>:
    6acc:	e92d41f0 	push	{r4, r5, r6, r7, r8, lr}
    6ad0:	e1d130bc 	ldrh	r3, [r1, #12]
    6ad4:	e3130002 	tst	r3, #2
    6ad8:	e1a04001 	mov	r4, r1
    6adc:	e24dd058 	sub	sp, sp, #88	; 0x58
    6ae0:	0a000007 	beq	6b04 <__smakebuf_r+0x38>
    6ae4:	e3a02001 	mov	r2, #1
    6ae8:	e2813043 	add	r3, r1, #67	; 0x43
    6aec:	e5813000 	str	r3, [r1]
    6af0:	e5813010 	str	r3, [r1, #16]
    6af4:	e5812014 	str	r2, [r1, #20]
    6af8:	e28dd058 	add	sp, sp, #88	; 0x58
    6afc:	e8bd41f0 	pop	{r4, r5, r6, r7, r8, lr}
    6b00:	e12fff1e 	bx	lr
    6b04:	e1d110fe 	ldrsh	r1, [r1, #14]
    6b08:	e3510000 	cmp	r1, #0
    6b0c:	e1a06000 	mov	r6, r0
    6b10:	ba00001f 	blt	6b94 <__smakebuf_r+0xc8>
    6b14:	e1a0200d 	mov	r2, sp
    6b18:	eb000ceb 	bl	9ecc <_fstat_r>
    6b1c:	e3500000 	cmp	r0, #0
    6b20:	ba00001a 	blt	6b90 <__smakebuf_r+0xc4>
    6b24:	e3a08b01 	mov	r8, #1024	; 0x400
    6b28:	e3a07b02 	mov	r7, #2048	; 0x800
    6b2c:	e59d5004 	ldr	r5, [sp, #4]
    6b30:	e2055a0f 	and	r5, r5, #61440	; 0xf000
    6b34:	e2453a02 	sub	r3, r5, #8192	; 0x2000
    6b38:	e2735000 	rsbs	r5, r3, #0
    6b3c:	e0a55003 	adc	r5, r5, r3
    6b40:	e1a01008 	mov	r1, r8
    6b44:	e1a00006 	mov	r0, r6
    6b48:	eb000030 	bl	6c10 <_malloc_r>
    6b4c:	e3500000 	cmp	r0, #0
    6b50:	0a000016 	beq	6bb0 <__smakebuf_r+0xe4>
    6b54:	e1d430fc 	ldrsh	r3, [r4, #12]
    6b58:	e59f20ac 	ldr	r2, [pc, #172]	; 6c0c <__smakebuf_r+0x140>
    6b5c:	e3833080 	orr	r3, r3, #128	; 0x80
    6b60:	e3550000 	cmp	r5, #0
    6b64:	e586203c 	str	r2, [r6, #60]	; 0x3c
    6b68:	e5848014 	str	r8, [r4, #20]
    6b6c:	e1c430bc 	strh	r3, [r4, #12]
    6b70:	e5840000 	str	r0, [r4]
    6b74:	e5840010 	str	r0, [r4, #16]
    6b78:	1a000018 	bne	6be0 <__smakebuf_r+0x114>
    6b7c:	e1833007 	orr	r3, r3, r7
    6b80:	e1c430bc 	strh	r3, [r4, #12]
    6b84:	e28dd058 	add	sp, sp, #88	; 0x58
    6b88:	e8bd41f0 	pop	{r4, r5, r6, r7, r8, lr}
    6b8c:	e12fff1e 	bx	lr
    6b90:	e1d430bc 	ldrh	r3, [r4, #12]
    6b94:	e2135080 	ands	r5, r3, #128	; 0x80
    6b98:	03a08b01 	moveq	r8, #1024	; 0x400
    6b9c:	01a07005 	moveq	r7, r5
    6ba0:	13a05000 	movne	r5, #0
    6ba4:	13a08040 	movne	r8, #64	; 0x40
    6ba8:	11a07005 	movne	r7, r5
    6bac:	eaffffe3 	b	6b40 <__smakebuf_r+0x74>
    6bb0:	e1d430fc 	ldrsh	r3, [r4, #12]
    6bb4:	e3130c02 	tst	r3, #512	; 0x200
    6bb8:	1affffce 	bne	6af8 <__smakebuf_r+0x2c>
    6bbc:	e3a01001 	mov	r1, #1
    6bc0:	e3c33003 	bic	r3, r3, #3
    6bc4:	e2842043 	add	r2, r4, #67	; 0x43
    6bc8:	e3833002 	orr	r3, r3, #2
    6bcc:	e1c430bc 	strh	r3, [r4, #12]
    6bd0:	e5842000 	str	r2, [r4]
    6bd4:	e5842010 	str	r2, [r4, #16]
    6bd8:	e5841014 	str	r1, [r4, #20]
    6bdc:	eaffffc5 	b	6af8 <__smakebuf_r+0x2c>
    6be0:	e1a00006 	mov	r0, r6
    6be4:	e1d410fe 	ldrsh	r1, [r4, #14]
    6be8:	eb000df8 	bl	a3d0 <_isatty_r>
    6bec:	e3500000 	cmp	r0, #0
    6bf0:	11d430bc 	ldrhne	r3, [r4, #12]
    6bf4:	13c33003 	bicne	r3, r3, #3
    6bf8:	13833001 	orrne	r3, r3, #1
    6bfc:	11a03803 	lslne	r3, r3, #16
    6c00:	01d430fc 	ldrsheq	r3, [r4, #12]
    6c04:	11a03843 	asrne	r3, r3, #16
    6c08:	eaffffdb 	b	6b7c <__smakebuf_r+0xb0>
    6c0c:	00006434 	.word	0x00006434

00006c10 <_malloc_r>:
    6c10:	e92d4ff0 	push	{r4, r5, r6, r7, r8, r9, sl, fp, lr}
    6c14:	e281300b 	add	r3, r1, #11
    6c18:	e3530016 	cmp	r3, #22
    6c1c:	e1a07000 	mov	r7, r0
    6c20:	e24dd00c 	sub	sp, sp, #12
    6c24:	8a00001c 	bhi	6c9c <_malloc_r+0x8c>
    6c28:	e3510010 	cmp	r1, #16
    6c2c:	8a00003e 	bhi	6d2c <_malloc_r+0x11c>
    6c30:	eb000236 	bl	7510 <__malloc_lock>
    6c34:	e3a05010 	mov	r5, #16
    6c38:	e3a02018 	mov	r2, #24
    6c3c:	e3a0c002 	mov	ip, #2
    6c40:	e59f87b8 	ldr	r8, [pc, #1976]	; 7400 <_malloc_r+0x7f0>
    6c44:	e0882002 	add	r2, r8, r2
    6c48:	e5924004 	ldr	r4, [r2, #4]
    6c4c:	e2423008 	sub	r3, r2, #8
    6c50:	e1540003 	cmp	r4, r3
    6c54:	0a00003b 	beq	6d48 <_malloc_r+0x138>
    6c58:	e5943004 	ldr	r3, [r4, #4]
    6c5c:	e594200c 	ldr	r2, [r4, #12]
    6c60:	e5941008 	ldr	r1, [r4, #8]
    6c64:	e3c33003 	bic	r3, r3, #3
    6c68:	e0843003 	add	r3, r4, r3
    6c6c:	e581200c 	str	r2, [r1, #12]
    6c70:	e5821008 	str	r1, [r2, #8]
    6c74:	e5932004 	ldr	r2, [r3, #4]
    6c78:	e3822001 	orr	r2, r2, #1
    6c7c:	e1a00007 	mov	r0, r7
    6c80:	e5832004 	str	r2, [r3, #4]
    6c84:	e2844008 	add	r4, r4, #8
    6c88:	eb000226 	bl	7528 <__malloc_unlock>
    6c8c:	e1a00004 	mov	r0, r4
    6c90:	e28dd00c 	add	sp, sp, #12
    6c94:	e8bd4ff0 	pop	{r4, r5, r6, r7, r8, r9, sl, fp, lr}
    6c98:	e12fff1e 	bx	lr
    6c9c:	e3c35007 	bic	r5, r3, #7
    6ca0:	e1510005 	cmp	r1, r5
    6ca4:	93a01000 	movls	r1, #0
    6ca8:	83a01001 	movhi	r1, #1
    6cac:	e1913fa3 	orrs	r3, r1, r3, lsr #31
    6cb0:	1a00001d 	bne	6d2c <_malloc_r+0x11c>
    6cb4:	eb000215 	bl	7510 <__malloc_lock>
    6cb8:	e3550f7e 	cmp	r5, #504	; 0x1f8
    6cbc:	3a00013f 	bcc	71c0 <_malloc_r+0x5b0>
    6cc0:	e1b034a5 	lsrs	r3, r5, #9
    6cc4:	0a0000b2 	beq	6f94 <_malloc_r+0x384>
    6cc8:	e3530004 	cmp	r3, #4
    6ccc:	8a000121 	bhi	7158 <_malloc_r+0x548>
    6cd0:	e1a03325 	lsr	r3, r5, #6
    6cd4:	e283c039 	add	ip, r3, #57	; 0x39
    6cd8:	e283e038 	add	lr, r3, #56	; 0x38
    6cdc:	e1a0018c 	lsl	r0, ip, #3
    6ce0:	e59f8718 	ldr	r8, [pc, #1816]	; 7400 <_malloc_r+0x7f0>
    6ce4:	e0880000 	add	r0, r8, r0
    6ce8:	e5903004 	ldr	r3, [r0, #4]
    6cec:	e2400008 	sub	r0, r0, #8
    6cf0:	e1500003 	cmp	r0, r3
    6cf4:	1a000005 	bne	6d10 <_malloc_r+0x100>
    6cf8:	ea000016 	b	6d58 <_malloc_r+0x148>
    6cfc:	e3510000 	cmp	r1, #0
    6d00:	aa0000ea 	bge	70b0 <_malloc_r+0x4a0>
    6d04:	e593300c 	ldr	r3, [r3, #12]
    6d08:	e1500003 	cmp	r0, r3
    6d0c:	0a000011 	beq	6d58 <_malloc_r+0x148>
    6d10:	e5932004 	ldr	r2, [r3, #4]
    6d14:	e3c22003 	bic	r2, r2, #3
    6d18:	e0421005 	sub	r1, r2, r5
    6d1c:	e351000f 	cmp	r1, #15
    6d20:	dafffff5 	ble	6cfc <_malloc_r+0xec>
    6d24:	e1a0c00e 	mov	ip, lr
    6d28:	ea00000a 	b	6d58 <_malloc_r+0x148>
    6d2c:	e3a04000 	mov	r4, #0
    6d30:	e3a0300c 	mov	r3, #12
    6d34:	e1a00004 	mov	r0, r4
    6d38:	e5873000 	str	r3, [r7]
    6d3c:	e28dd00c 	add	sp, sp, #12
    6d40:	e8bd4ff0 	pop	{r4, r5, r6, r7, r8, r9, sl, fp, lr}
    6d44:	e12fff1e 	bx	lr
    6d48:	e592400c 	ldr	r4, [r2, #12]
    6d4c:	e1520004 	cmp	r2, r4
    6d50:	028cc002 	addeq	ip, ip, #2
    6d54:	1affffbf 	bne	6c58 <_malloc_r+0x48>
    6d58:	e5984010 	ldr	r4, [r8, #16]
    6d5c:	e59fe6a0 	ldr	lr, [pc, #1696]	; 7404 <_malloc_r+0x7f4>
    6d60:	e154000e 	cmp	r4, lr
    6d64:	05986004 	ldreq	r6, [r8, #4]
    6d68:	0a000018 	beq	6dd0 <_malloc_r+0x1c0>
    6d6c:	e5941004 	ldr	r1, [r4, #4]
    6d70:	e3c11003 	bic	r1, r1, #3
    6d74:	e0413005 	sub	r3, r1, r5
    6d78:	e353000f 	cmp	r3, #15
    6d7c:	ca000112 	bgt	71cc <_malloc_r+0x5bc>
    6d80:	e3530000 	cmp	r3, #0
    6d84:	e588e014 	str	lr, [r8, #20]
    6d88:	e588e010 	str	lr, [r8, #16]
    6d8c:	aa0000b2 	bge	705c <_malloc_r+0x44c>
    6d90:	e3510c02 	cmp	r1, #512	; 0x200
    6d94:	2a0000d4 	bcs	70ec <_malloc_r+0x4dc>
    6d98:	e3a02001 	mov	r2, #1
    6d9c:	e5986004 	ldr	r6, [r8, #4]
    6da0:	e1a031a1 	lsr	r3, r1, #3
    6da4:	e0833002 	add	r3, r3, r2
    6da8:	e1a012a1 	lsr	r1, r1, #5
    6dac:	e1866112 	orr	r6, r6, r2, lsl r1
    6db0:	e7981183 	ldr	r1, [r8, r3, lsl #3]
    6db4:	e0882183 	add	r2, r8, r3, lsl #3
    6db8:	e2422008 	sub	r2, r2, #8
    6dbc:	e5841008 	str	r1, [r4, #8]
    6dc0:	e584200c 	str	r2, [r4, #12]
    6dc4:	e5886004 	str	r6, [r8, #4]
    6dc8:	e7884183 	str	r4, [r8, r3, lsl #3]
    6dcc:	e581400c 	str	r4, [r1, #12]
    6dd0:	e3a01001 	mov	r1, #1
    6dd4:	e1a0314c 	asr	r3, ip, #2
    6dd8:	e1a01311 	lsl	r1, r1, r3
    6ddc:	e1510006 	cmp	r1, r6
    6de0:	9a00006f 	bls	6fa4 <_malloc_r+0x394>
    6de4:	e5984008 	ldr	r4, [r8, #8]
    6de8:	e5946004 	ldr	r6, [r4, #4]
    6dec:	e3c66003 	bic	r6, r6, #3
    6df0:	e1550006 	cmp	r5, r6
    6df4:	93a02000 	movls	r2, #0
    6df8:	83a02001 	movhi	r2, #1
    6dfc:	e0463005 	sub	r3, r6, r5
    6e00:	e353000f 	cmp	r3, #15
    6e04:	d3822001 	orrle	r2, r2, #1
    6e08:	e3520000 	cmp	r2, #0
    6e0c:	0a00009a 	beq	707c <_malloc_r+0x46c>
    6e10:	e59fa5f0 	ldr	sl, [pc, #1520]	; 7408 <_malloc_r+0x7f8>
    6e14:	e59f35f0 	ldr	r3, [pc, #1520]	; 740c <_malloc_r+0x7fc>
    6e18:	e59a2000 	ldr	r2, [sl]
    6e1c:	e5933000 	ldr	r3, [r3]
    6e20:	e3720001 	cmn	r2, #1
    6e24:	e0853003 	add	r3, r5, r3
    6e28:	12833a01 	addne	r3, r3, #4096	; 0x1000
    6e2c:	1283300f 	addne	r3, r3, #15
    6e30:	13c39eff 	bicne	r9, r3, #4080	; 0xff0
    6e34:	02839010 	addeq	r9, r3, #16
    6e38:	13c9900f 	bicne	r9, r9, #15
    6e3c:	e1a01009 	mov	r1, r9
    6e40:	e1a00007 	mov	r0, r7
    6e44:	eb0004bb 	bl	8138 <_sbrk_r>
    6e48:	e3700001 	cmn	r0, #1
    6e4c:	e1a02000 	mov	r2, r0
    6e50:	e084b006 	add	fp, r4, r6
    6e54:	0a00012a 	beq	7304 <_malloc_r+0x6f4>
    6e58:	e1540008 	cmp	r4, r8
    6e5c:	115b0000 	cmpne	fp, r0
    6e60:	8a000127 	bhi	7304 <_malloc_r+0x6f4>
    6e64:	e59f35a4 	ldr	r3, [pc, #1444]	; 7410 <_malloc_r+0x800>
    6e68:	e5931000 	ldr	r1, [r3]
    6e6c:	e15b0000 	cmp	fp, r0
    6e70:	e0891001 	add	r1, r9, r1
    6e74:	e5831000 	str	r1, [r3]
    6e78:	0a000118 	beq	72e0 <_malloc_r+0x6d0>
    6e7c:	e59a0000 	ldr	r0, [sl]
    6e80:	e3700001 	cmn	r0, #1
    6e84:	1042b00b 	subne	fp, r2, fp
    6e88:	108b1001 	addne	r1, fp, r1
    6e8c:	058a2000 	streq	r2, [sl]
    6e90:	15831000 	strne	r1, [r3]
    6e94:	e212b007 	ands	fp, r2, #7
    6e98:	1a0000e2 	bne	7228 <_malloc_r+0x618>
    6e9c:	e0821009 	add	r1, r2, r9
    6ea0:	e2611000 	rsb	r1, r1, #0
    6ea4:	e1a0aa01 	lsl	sl, r1, #20
    6ea8:	e1a0aa2a 	lsr	sl, sl, #20
    6eac:	e1a0100a 	mov	r1, sl
    6eb0:	e1a00007 	mov	r0, r7
    6eb4:	e58d2004 	str	r2, [sp, #4]
    6eb8:	eb00049e 	bl	8138 <_sbrk_r>
    6ebc:	e3700001 	cmn	r0, #1
    6ec0:	01a0a00b 	moveq	sl, fp
    6ec4:	e59d2004 	ldr	r2, [sp, #4]
    6ec8:	e59f3540 	ldr	r3, [pc, #1344]	; 7410 <_malloc_r+0x800>
    6ecc:	0a000001 	beq	6ed8 <_malloc_r+0x2c8>
    6ed0:	e0400002 	sub	r0, r0, r2
    6ed4:	e080900a 	add	r9, r0, sl
    6ed8:	e5931000 	ldr	r1, [r3]
    6edc:	e3899001 	orr	r9, r9, #1
    6ee0:	e08a1001 	add	r1, sl, r1
    6ee4:	e1540008 	cmp	r4, r8
    6ee8:	e5882008 	str	r2, [r8, #8]
    6eec:	e5831000 	str	r1, [r3]
    6ef0:	e5829004 	str	r9, [r2, #4]
    6ef4:	0a000119 	beq	7360 <_malloc_r+0x750>
    6ef8:	e356000f 	cmp	r6, #15
    6efc:	93a03001 	movls	r3, #1
    6f00:	95823004 	strls	r3, [r2, #4]
    6f04:	9a00001e 	bls	6f84 <_malloc_r+0x374>
    6f08:	e3a0e005 	mov	lr, #5
    6f0c:	e594c004 	ldr	ip, [r4, #4]
    6f10:	e246000c 	sub	r0, r6, #12
    6f14:	e3c00007 	bic	r0, r0, #7
    6f18:	e20cc001 	and	ip, ip, #1
    6f1c:	e18cc000 	orr	ip, ip, r0
    6f20:	e350000f 	cmp	r0, #15
    6f24:	e0840000 	add	r0, r4, r0
    6f28:	e584c004 	str	ip, [r4, #4]
    6f2c:	e580e004 	str	lr, [r0, #4]
    6f30:	e580e008 	str	lr, [r0, #8]
    6f34:	8a00011a 	bhi	73a4 <_malloc_r+0x794>
    6f38:	e1a04002 	mov	r4, r2
    6f3c:	e5929004 	ldr	r9, [r2, #4]
    6f40:	e59f34cc 	ldr	r3, [pc, #1228]	; 7414 <_malloc_r+0x804>
    6f44:	e5932000 	ldr	r2, [r3]
    6f48:	e1520001 	cmp	r2, r1
    6f4c:	35831000 	strcc	r1, [r3]
    6f50:	e59f34c0 	ldr	r3, [pc, #1216]	; 7418 <_malloc_r+0x808>
    6f54:	e5932000 	ldr	r2, [r3]
    6f58:	e1520001 	cmp	r2, r1
    6f5c:	35831000 	strcc	r1, [r3]
    6f60:	e3c99003 	bic	r9, r9, #3
    6f64:	e0493005 	sub	r3, r9, r5
    6f68:	e353000f 	cmp	r3, #15
    6f6c:	c3a02000 	movgt	r2, #0
    6f70:	d3a02001 	movle	r2, #1
    6f74:	e1550009 	cmp	r5, r9
    6f78:	83822001 	orrhi	r2, r2, #1
    6f7c:	e3520000 	cmp	r2, #0
    6f80:	0a00003d 	beq	707c <_malloc_r+0x46c>
    6f84:	e1a00007 	mov	r0, r7
    6f88:	eb000166 	bl	7528 <__malloc_unlock>
    6f8c:	e3a04000 	mov	r4, #0
    6f90:	eaffff3d 	b	6c8c <_malloc_r+0x7c>
    6f94:	e3a00c02 	mov	r0, #512	; 0x200
    6f98:	e3a0c040 	mov	ip, #64	; 0x40
    6f9c:	e3a0e03f 	mov	lr, #63	; 0x3f
    6fa0:	eaffff4e 	b	6ce0 <_malloc_r+0xd0>
    6fa4:	e1110006 	tst	r1, r6
    6fa8:	1a000008 	bne	6fd0 <_malloc_r+0x3c0>
    6fac:	e1a01081 	lsl	r1, r1, #1
    6fb0:	e3ccc003 	bic	ip, ip, #3
    6fb4:	e1110006 	tst	r1, r6
    6fb8:	e28cc004 	add	ip, ip, #4
    6fbc:	1a000003 	bne	6fd0 <_malloc_r+0x3c0>
    6fc0:	e1a01081 	lsl	r1, r1, #1
    6fc4:	e1110006 	tst	r1, r6
    6fc8:	e28cc004 	add	ip, ip, #4
    6fcc:	0afffffb 	beq	6fc0 <_malloc_r+0x3b0>
    6fd0:	e088918c 	add	r9, r8, ip, lsl #3
    6fd4:	e1a00009 	mov	r0, r9
    6fd8:	e1a0400c 	mov	r4, ip
    6fdc:	e590600c 	ldr	r6, [r0, #12]
    6fe0:	e1500006 	cmp	r0, r6
    6fe4:	1a000005 	bne	7000 <_malloc_r+0x3f0>
    6fe8:	ea000063 	b	717c <_malloc_r+0x56c>
    6fec:	e3520000 	cmp	r2, #0
    6ff0:	aa000066 	bge	7190 <_malloc_r+0x580>
    6ff4:	e596600c 	ldr	r6, [r6, #12]
    6ff8:	e1500006 	cmp	r0, r6
    6ffc:	0a00005e 	beq	717c <_malloc_r+0x56c>
    7000:	e5963004 	ldr	r3, [r6, #4]
    7004:	e3c33003 	bic	r3, r3, #3
    7008:	e0432005 	sub	r2, r3, r5
    700c:	e352000f 	cmp	r2, #15
    7010:	dafffff5 	ble	6fec <_malloc_r+0x3dc>
    7014:	e2864008 	add	r4, r6, #8
    7018:	e8941010 	ldm	r4, {r4, ip}
    701c:	e0861005 	add	r1, r6, r5
    7020:	e3855001 	orr	r5, r5, #1
    7024:	e5865004 	str	r5, [r6, #4]
    7028:	e584c00c 	str	ip, [r4, #12]
    702c:	e58c4008 	str	r4, [ip, #8]
    7030:	e382c001 	orr	ip, r2, #1
    7034:	e5881014 	str	r1, [r8, #20]
    7038:	e5881010 	str	r1, [r8, #16]
    703c:	e1a00007 	mov	r0, r7
    7040:	e581e00c 	str	lr, [r1, #12]
    7044:	e581e008 	str	lr, [r1, #8]
    7048:	e581c004 	str	ip, [r1, #4]
    704c:	e7862003 	str	r2, [r6, r3]
    7050:	eb000134 	bl	7528 <__malloc_unlock>
    7054:	e2864008 	add	r4, r6, #8
    7058:	eaffff0b 	b	6c8c <_malloc_r+0x7c>
    705c:	e0841001 	add	r1, r4, r1
    7060:	e5913004 	ldr	r3, [r1, #4]
    7064:	e3833001 	orr	r3, r3, #1
    7068:	e1a00007 	mov	r0, r7
    706c:	e5813004 	str	r3, [r1, #4]
    7070:	eb00012c 	bl	7528 <__malloc_unlock>
    7074:	e2844008 	add	r4, r4, #8
    7078:	eaffff03 	b	6c8c <_malloc_r+0x7c>
    707c:	e0842005 	add	r2, r4, r5
    7080:	e3833001 	orr	r3, r3, #1
    7084:	e3855001 	orr	r5, r5, #1
    7088:	e5845004 	str	r5, [r4, #4]
    708c:	e1a00007 	mov	r0, r7
    7090:	e5882008 	str	r2, [r8, #8]
    7094:	e2844008 	add	r4, r4, #8
    7098:	e5823004 	str	r3, [r2, #4]
    709c:	eb000121 	bl	7528 <__malloc_unlock>
    70a0:	e1a00004 	mov	r0, r4
    70a4:	e28dd00c 	add	sp, sp, #12
    70a8:	e8bd4ff0 	pop	{r4, r5, r6, r7, r8, r9, sl, fp, lr}
    70ac:	e12fff1e 	bx	lr
    70b0:	e593100c 	ldr	r1, [r3, #12]
    70b4:	e593c008 	ldr	ip, [r3, #8]
    70b8:	e0832002 	add	r2, r3, r2
    70bc:	e58c100c 	str	r1, [ip, #12]
    70c0:	e581c008 	str	ip, [r1, #8]
    70c4:	e5921004 	ldr	r1, [r2, #4]
    70c8:	e2834008 	add	r4, r3, #8
    70cc:	e3813001 	orr	r3, r1, #1
    70d0:	e1a00007 	mov	r0, r7
    70d4:	e5823004 	str	r3, [r2, #4]
    70d8:	eb000112 	bl	7528 <__malloc_unlock>
    70dc:	e1a00004 	mov	r0, r4
    70e0:	e28dd00c 	add	sp, sp, #12
    70e4:	e8bd4ff0 	pop	{r4, r5, r6, r7, r8, r9, sl, fp, lr}
    70e8:	e12fff1e 	bx	lr
    70ec:	e3510c0a 	cmp	r1, #2560	; 0xa00
    70f0:	e1a034a1 	lsr	r3, r1, #9
    70f4:	3a000042 	bcc	7204 <_malloc_r+0x5f4>
    70f8:	e3530014 	cmp	r3, #20
    70fc:	8a000089 	bhi	7328 <_malloc_r+0x718>
    7100:	e283205c 	add	r2, r3, #92	; 0x5c
    7104:	e1a02182 	lsl	r2, r2, #3
    7108:	e283305b 	add	r3, r3, #91	; 0x5b
    710c:	e7980002 	ldr	r0, [r8, r2]
    7110:	e0882002 	add	r2, r8, r2
    7114:	e2422008 	sub	r2, r2, #8
    7118:	e1520000 	cmp	r2, r0
    711c:	0a00007b 	beq	7310 <_malloc_r+0x700>
    7120:	e5903004 	ldr	r3, [r0, #4]
    7124:	e3c33003 	bic	r3, r3, #3
    7128:	e1530001 	cmp	r3, r1
    712c:	9a000002 	bls	713c <_malloc_r+0x52c>
    7130:	e5900008 	ldr	r0, [r0, #8]
    7134:	e1520000 	cmp	r2, r0
    7138:	1afffff8 	bne	7120 <_malloc_r+0x510>
    713c:	e590200c 	ldr	r2, [r0, #12]
    7140:	e5986004 	ldr	r6, [r8, #4]
    7144:	e584200c 	str	r2, [r4, #12]
    7148:	e5840008 	str	r0, [r4, #8]
    714c:	e5824008 	str	r4, [r2, #8]
    7150:	e580400c 	str	r4, [r0, #12]
    7154:	eaffff1d 	b	6dd0 <_malloc_r+0x1c0>
    7158:	e3530014 	cmp	r3, #20
    715c:	9a00002d 	bls	7218 <_malloc_r+0x608>
    7160:	e3530054 	cmp	r3, #84	; 0x54
    7164:	8a000076 	bhi	7344 <_malloc_r+0x734>
    7168:	e1a03625 	lsr	r3, r5, #12
    716c:	e283c06f 	add	ip, r3, #111	; 0x6f
    7170:	e283e06e 	add	lr, r3, #110	; 0x6e
    7174:	e1a0018c 	lsl	r0, ip, #3
    7178:	eafffed8 	b	6ce0 <_malloc_r+0xd0>
    717c:	e2844001 	add	r4, r4, #1
    7180:	e3140003 	tst	r4, #3
    7184:	e2800008 	add	r0, r0, #8
    7188:	1affff93 	bne	6fdc <_malloc_r+0x3cc>
    718c:	ea00003e 	b	728c <_malloc_r+0x67c>
    7190:	e1a04006 	mov	r4, r6
    7194:	e0863003 	add	r3, r6, r3
    7198:	e5932004 	ldr	r2, [r3, #4]
    719c:	e3822001 	orr	r2, r2, #1
    71a0:	e596100c 	ldr	r1, [r6, #12]
    71a4:	e5832004 	str	r2, [r3, #4]
    71a8:	e5b43008 	ldr	r3, [r4, #8]!
    71ac:	e1a00007 	mov	r0, r7
    71b0:	e583100c 	str	r1, [r3, #12]
    71b4:	e5813008 	str	r3, [r1, #8]
    71b8:	eb0000da 	bl	7528 <__malloc_unlock>
    71bc:	eafffeb2 	b	6c8c <_malloc_r+0x7c>
    71c0:	e1a0c1a5 	lsr	ip, r5, #3
    71c4:	e2852008 	add	r2, r5, #8
    71c8:	eafffe9c 	b	6c40 <_malloc_r+0x30>
    71cc:	e0842005 	add	r2, r4, r5
    71d0:	e383c001 	orr	ip, r3, #1
    71d4:	e3855001 	orr	r5, r5, #1
    71d8:	e5845004 	str	r5, [r4, #4]
    71dc:	e1a00007 	mov	r0, r7
    71e0:	e5882014 	str	r2, [r8, #20]
    71e4:	e5882010 	str	r2, [r8, #16]
    71e8:	e582e00c 	str	lr, [r2, #12]
    71ec:	e582e008 	str	lr, [r2, #8]
    71f0:	e582c004 	str	ip, [r2, #4]
    71f4:	e7843001 	str	r3, [r4, r1]
    71f8:	eb0000ca 	bl	7528 <__malloc_unlock>
    71fc:	e2844008 	add	r4, r4, #8
    7200:	eafffea1 	b	6c8c <_malloc_r+0x7c>
    7204:	e1a03321 	lsr	r3, r1, #6
    7208:	e2832039 	add	r2, r3, #57	; 0x39
    720c:	e1a02182 	lsl	r2, r2, #3
    7210:	e2833038 	add	r3, r3, #56	; 0x38
    7214:	eaffffbc 	b	710c <_malloc_r+0x4fc>
    7218:	e283c05c 	add	ip, r3, #92	; 0x5c
    721c:	e283e05b 	add	lr, r3, #91	; 0x5b
    7220:	e1a0018c 	lsl	r0, ip, #3
    7224:	eafffead 	b	6ce0 <_malloc_r+0xd0>
    7228:	e26b1008 	rsb	r1, fp, #8
    722c:	e0822001 	add	r2, r2, r1
    7230:	e26b1a01 	rsb	r1, fp, #4096	; 0x1000
    7234:	e0829009 	add	r9, r2, r9
    7238:	e2811008 	add	r1, r1, #8
    723c:	e0411009 	sub	r1, r1, r9
    7240:	e1a0aa01 	lsl	sl, r1, #20
    7244:	e1a0aa2a 	lsr	sl, sl, #20
    7248:	e1a0100a 	mov	r1, sl
    724c:	e1a00007 	mov	r0, r7
    7250:	e58d2004 	str	r2, [sp, #4]
    7254:	eb0003b7 	bl	8138 <_sbrk_r>
    7258:	e3700001 	cmn	r0, #1
    725c:	e59d2004 	ldr	r2, [sp, #4]
    7260:	e59f31a8 	ldr	r3, [pc, #424]	; 7410 <_malloc_r+0x800>
    7264:	1affff19 	bne	6ed0 <_malloc_r+0x2c0>
    7268:	e24bb008 	sub	fp, fp, #8
    726c:	e089900b 	add	r9, r9, fp
    7270:	e3a0a000 	mov	sl, #0
    7274:	e0499002 	sub	r9, r9, r2
    7278:	eaffff16 	b	6ed8 <_malloc_r+0x2c8>
    727c:	e4193008 	ldr	r3, [r9], #-8
    7280:	e1530009 	cmp	r3, r9
    7284:	e24cc001 	sub	ip, ip, #1
    7288:	1a00005a 	bne	73f8 <_malloc_r+0x7e8>
    728c:	e31c0003 	tst	ip, #3
    7290:	1afffff9 	bne	727c <_malloc_r+0x66c>
    7294:	e5983004 	ldr	r3, [r8, #4]
    7298:	e1c33001 	bic	r3, r3, r1
    729c:	e5883004 	str	r3, [r8, #4]
    72a0:	e1b01081 	lsls	r1, r1, #1
    72a4:	13a02001 	movne	r2, #1
    72a8:	03a02000 	moveq	r2, #0
    72ac:	e1510003 	cmp	r1, r3
    72b0:	83a02000 	movhi	r2, #0
    72b4:	92022001 	andls	r2, r2, #1
    72b8:	e3520000 	cmp	r2, #0
    72bc:	0afffec8 	beq	6de4 <_malloc_r+0x1d4>
    72c0:	e1110003 	tst	r1, r3
    72c4:	1a000003 	bne	72d8 <_malloc_r+0x6c8>
    72c8:	e1a01081 	lsl	r1, r1, #1
    72cc:	e1110003 	tst	r1, r3
    72d0:	e2844004 	add	r4, r4, #4
    72d4:	0afffffb 	beq	72c8 <_malloc_r+0x6b8>
    72d8:	e1a0c004 	mov	ip, r4
    72dc:	eaffff3b 	b	6fd0 <_malloc_r+0x3c0>
    72e0:	e1a00a0b 	lsl	r0, fp, #20
    72e4:	e1a00a20 	lsr	r0, r0, #20
    72e8:	e3500000 	cmp	r0, #0
    72ec:	1afffee2 	bne	6e7c <_malloc_r+0x26c>
    72f0:	e5984008 	ldr	r4, [r8, #8]
    72f4:	e0869009 	add	r9, r6, r9
    72f8:	e3899001 	orr	r9, r9, #1
    72fc:	e5849004 	str	r9, [r4, #4]
    7300:	eaffff0e 	b	6f40 <_malloc_r+0x330>
    7304:	e5984008 	ldr	r4, [r8, #8]
    7308:	e5949004 	ldr	r9, [r4, #4]
    730c:	eaffff13 	b	6f60 <_malloc_r+0x350>
    7310:	e3a01001 	mov	r1, #1
    7314:	e5986004 	ldr	r6, [r8, #4]
    7318:	e1a03143 	asr	r3, r3, #2
    731c:	e1866311 	orr	r6, r6, r1, lsl r3
    7320:	e5886004 	str	r6, [r8, #4]
    7324:	eaffff86 	b	7144 <_malloc_r+0x534>
    7328:	e3530054 	cmp	r3, #84	; 0x54
    732c:	8a00000d 	bhi	7368 <_malloc_r+0x758>
    7330:	e1a03621 	lsr	r3, r1, #12
    7334:	e283206f 	add	r2, r3, #111	; 0x6f
    7338:	e1a02182 	lsl	r2, r2, #3
    733c:	e283306e 	add	r3, r3, #110	; 0x6e
    7340:	eaffff71 	b	710c <_malloc_r+0x4fc>
    7344:	e3530f55 	cmp	r3, #340	; 0x154
    7348:	8a00000d 	bhi	7384 <_malloc_r+0x774>
    734c:	e1a037a5 	lsr	r3, r5, #15
    7350:	e283c078 	add	ip, r3, #120	; 0x78
    7354:	e283e077 	add	lr, r3, #119	; 0x77
    7358:	e1a0018c 	lsl	r0, ip, #3
    735c:	eafffe5f 	b	6ce0 <_malloc_r+0xd0>
    7360:	e1a04002 	mov	r4, r2
    7364:	eafffef5 	b	6f40 <_malloc_r+0x330>
    7368:	e3530f55 	cmp	r3, #340	; 0x154
    736c:	8a000014 	bhi	73c4 <_malloc_r+0x7b4>
    7370:	e1a037a1 	lsr	r3, r1, #15
    7374:	e2832078 	add	r2, r3, #120	; 0x78
    7378:	e1a02182 	lsl	r2, r2, #3
    737c:	e2833077 	add	r3, r3, #119	; 0x77
    7380:	eaffff61 	b	710c <_malloc_r+0x4fc>
    7384:	e59f2090 	ldr	r2, [pc, #144]	; 741c <_malloc_r+0x80c>
    7388:	e1530002 	cmp	r3, r2
    738c:	8a000015 	bhi	73e8 <_malloc_r+0x7d8>
    7390:	e1a03925 	lsr	r3, r5, #18
    7394:	e283c07d 	add	ip, r3, #125	; 0x7d
    7398:	e283e07c 	add	lr, r3, #124	; 0x7c
    739c:	e1a0018c 	lsl	r0, ip, #3
    73a0:	eafffe4e 	b	6ce0 <_malloc_r+0xd0>
    73a4:	e2841008 	add	r1, r4, #8
    73a8:	e1a00007 	mov	r0, r7
    73ac:	ebfffce6 	bl	674c <_free_r>
    73b0:	e5984008 	ldr	r4, [r8, #8]
    73b4:	e59f3054 	ldr	r3, [pc, #84]	; 7410 <_malloc_r+0x800>
    73b8:	e5949004 	ldr	r9, [r4, #4]
    73bc:	e5931000 	ldr	r1, [r3]
    73c0:	eafffede 	b	6f40 <_malloc_r+0x330>
    73c4:	e59f2050 	ldr	r2, [pc, #80]	; 741c <_malloc_r+0x80c>
    73c8:	e1530002 	cmp	r3, r2
    73cc:	91a03921 	lsrls	r3, r1, #18
    73d0:	9283207d 	addls	r2, r3, #125	; 0x7d
    73d4:	83a02ffe 	movhi	r2, #1016	; 0x3f8
    73d8:	83a0307e 	movhi	r3, #126	; 0x7e
    73dc:	9283307c 	addls	r3, r3, #124	; 0x7c
    73e0:	91a02182 	lslls	r2, r2, #3
    73e4:	eaffff48 	b	710c <_malloc_r+0x4fc>
    73e8:	e3a00ffe 	mov	r0, #1016	; 0x3f8
    73ec:	e3a0c07f 	mov	ip, #127	; 0x7f
    73f0:	e3a0e07e 	mov	lr, #126	; 0x7e
    73f4:	eafffe39 	b	6ce0 <_malloc_r+0xd0>
    73f8:	e5983004 	ldr	r3, [r8, #4]
    73fc:	eaffffa7 	b	72a0 <_malloc_r+0x690>
    7400:	200004f4 	.word	0x200004f4
    7404:	200004fc 	.word	0x200004fc
    7408:	200008fc 	.word	0x200008fc
    740c:	20000f30 	.word	0x20000f30
    7410:	20000f00 	.word	0x20000f00
    7414:	20000f28 	.word	0x20000f28
    7418:	20000f2c 	.word	0x20000f2c
    741c:	00000554 	.word	0x00000554

00007420 <memchr>:
    7420:	e3100003 	tst	r0, #3
    7424:	e20110ff 	and	r1, r1, #255	; 0xff
    7428:	0a000034 	beq	7500 <memchr+0xe0>
    742c:	e3520000 	cmp	r2, #0
    7430:	e1a03000 	mov	r3, r0
    7434:	e242c001 	sub	ip, r2, #1
    7438:	1a000002 	bne	7448 <memchr+0x28>
    743c:	ea000018 	b	74a4 <memchr+0x84>
    7440:	e25cc001 	subs	ip, ip, #1
    7444:	3a000016 	bcc	74a4 <memchr+0x84>
    7448:	e1a00003 	mov	r0, r3
    744c:	e4d32001 	ldrb	r2, [r3], #1
    7450:	e1520001 	cmp	r2, r1
    7454:	012fff1e 	bxeq	lr
    7458:	e3130003 	tst	r3, #3
    745c:	e1a00003 	mov	r0, r3
    7460:	1afffff6 	bne	7440 <memchr+0x20>
    7464:	e35c0003 	cmp	ip, #3
    7468:	e92d4070 	push	{r4, r5, r6, lr}
    746c:	8a00000e 	bhi	74ac <memchr+0x8c>
    7470:	e35c0000 	cmp	ip, #0
    7474:	0a00001e 	beq	74f4 <memchr+0xd4>
    7478:	e1a02000 	mov	r2, r0
    747c:	e080300c 	add	r3, r0, ip
    7480:	ea000001 	b	748c <memchr+0x6c>
    7484:	e1520003 	cmp	r2, r3
    7488:	0a000019 	beq	74f4 <memchr+0xd4>
    748c:	e1a00002 	mov	r0, r2
    7490:	e4d2c001 	ldrb	ip, [r2], #1
    7494:	e15c0001 	cmp	ip, r1
    7498:	1afffff9 	bne	7484 <memchr+0x64>
    749c:	e8bd4070 	pop	{r4, r5, r6, lr}
    74a0:	e12fff1e 	bx	lr
    74a4:	e3a00000 	mov	r0, #0
    74a8:	e12fff1e 	bx	lr
    74ac:	e1a02000 	mov	r2, r0
    74b0:	e1814401 	orr	r4, r1, r1, lsl #8
    74b4:	e59f604c 	ldr	r6, [pc, #76]	; 7508 <memchr+0xe8>
    74b8:	e59f504c 	ldr	r5, [pc, #76]	; 750c <memchr+0xec>
    74bc:	e1844804 	orr	r4, r4, r4, lsl #16
    74c0:	e1a00002 	mov	r0, r2
    74c4:	e5903000 	ldr	r3, [r0]
    74c8:	e0233004 	eor	r3, r3, r4
    74cc:	e083e006 	add	lr, r3, r6
    74d0:	e1ce3003 	bic	r3, lr, r3
    74d4:	e1130005 	tst	r3, r5
    74d8:	e2822004 	add	r2, r2, #4
    74dc:	1affffe5 	bne	7478 <memchr+0x58>
    74e0:	e24cc004 	sub	ip, ip, #4
    74e4:	e35c0003 	cmp	ip, #3
    74e8:	e1a00002 	mov	r0, r2
    74ec:	8afffff3 	bhi	74c0 <memchr+0xa0>
    74f0:	eaffffde 	b	7470 <memchr+0x50>
    74f4:	e3a00000 	mov	r0, #0
    74f8:	e8bd4070 	pop	{r4, r5, r6, lr}
    74fc:	e12fff1e 	bx	lr
    7500:	e1a0c002 	mov	ip, r2
    7504:	eaffffd6 	b	7464 <memchr+0x44>
    7508:	fefefeff 	.word	0xfefefeff
    750c:	80808080 	.word	0x80808080

00007510 <__malloc_lock>:
    7510:	e92d4010 	push	{r4, lr}
    7514:	e59f0008 	ldr	r0, [pc, #8]	; 7524 <__malloc_lock+0x14>
    7518:	ebfffd69 	bl	6ac4 <__retarget_lock_acquire_recursive>
    751c:	e8bd4010 	pop	{r4, lr}
    7520:	e12fff1e 	bx	lr
    7524:	20000ef4 	.word	0x20000ef4

00007528 <__malloc_unlock>:
    7528:	e92d4010 	push	{r4, lr}
    752c:	e59f0008 	ldr	r0, [pc, #8]	; 753c <__malloc_unlock+0x14>
    7530:	ebfffd64 	bl	6ac8 <__retarget_lock_release_recursive>
    7534:	e8bd4010 	pop	{r4, lr}
    7538:	e12fff1e 	bx	lr
    753c:	20000ef4 	.word	0x20000ef4

00007540 <_Balloc>:
    7540:	e590304c 	ldr	r3, [r0, #76]	; 0x4c
    7544:	e3530000 	cmp	r3, #0
    7548:	e92d4070 	push	{r4, r5, r6, lr}
    754c:	e1a05000 	mov	r5, r0
    7550:	e1a04001 	mov	r4, r1
    7554:	0a000009 	beq	7580 <_Balloc+0x40>
    7558:	e7930104 	ldr	r0, [r3, r4, lsl #2]
    755c:	e3500000 	cmp	r0, #0
    7560:	0a00000f 	beq	75a4 <_Balloc+0x64>
    7564:	e5902000 	ldr	r2, [r0]
    7568:	e7832104 	str	r2, [r3, r4, lsl #2]
    756c:	e3a03000 	mov	r3, #0
    7570:	e5803010 	str	r3, [r0, #16]
    7574:	e580300c 	str	r3, [r0, #12]
    7578:	e8bd4070 	pop	{r4, r5, r6, lr}
    757c:	e12fff1e 	bx	lr
    7580:	e3a02021 	mov	r2, #33	; 0x21
    7584:	e3a01004 	mov	r1, #4
    7588:	eb00093b 	bl	9a7c <_calloc_r>
    758c:	e3500000 	cmp	r0, #0
    7590:	e1a03000 	mov	r3, r0
    7594:	e585004c 	str	r0, [r5, #76]	; 0x4c
    7598:	1affffee 	bne	7558 <_Balloc+0x18>
    759c:	e3a00000 	mov	r0, #0
    75a0:	eafffff4 	b	7578 <_Balloc+0x38>
    75a4:	e3a01001 	mov	r1, #1
    75a8:	e1a00005 	mov	r0, r5
    75ac:	e1a05411 	lsl	r5, r1, r4
    75b0:	e2852005 	add	r2, r5, #5
    75b4:	e1a02102 	lsl	r2, r2, #2
    75b8:	eb00092f 	bl	9a7c <_calloc_r>
    75bc:	e3500000 	cmp	r0, #0
    75c0:	0afffff5 	beq	759c <_Balloc+0x5c>
    75c4:	e9800030 	stmib	r0, {r4, r5}
    75c8:	eaffffe7 	b	756c <_Balloc+0x2c>

000075cc <_Bfree>:
    75cc:	e3510000 	cmp	r1, #0
    75d0:	1590304c 	ldrne	r3, [r0, #76]	; 0x4c
    75d4:	15912004 	ldrne	r2, [r1, #4]
    75d8:	17930102 	ldrne	r0, [r3, r2, lsl #2]
    75dc:	15810000 	strne	r0, [r1]
    75e0:	17831102 	strne	r1, [r3, r2, lsl #2]
    75e4:	e12fff1e 	bx	lr

000075e8 <__multadd>:
    75e8:	e92d41f0 	push	{r4, r5, r6, r7, r8, lr}
    75ec:	e3a0e000 	mov	lr, #0
    75f0:	e1a07000 	mov	r7, r0
    75f4:	e1a04003 	mov	r4, r3
    75f8:	e59f80dc 	ldr	r8, [pc, #220]	; 76dc <__multadd+0xf4>
    75fc:	e1a06001 	mov	r6, r1
    7600:	e5915010 	ldr	r5, [r1, #16]
    7604:	e2811014 	add	r1, r1, #20
    7608:	e591c000 	ldr	ip, [r1]
    760c:	e00c3008 	and	r3, ip, r8
    7610:	e0234392 	mla	r3, r2, r3, r4
    7614:	e1a0082c 	lsr	r0, ip, #16
    7618:	e1a0c823 	lsr	ip, r3, #16
    761c:	e02cc092 	mla	ip, r2, r0, ip
    7620:	e28ee001 	add	lr, lr, #1
    7624:	e0033008 	and	r3, r3, r8
    7628:	e083380c 	add	r3, r3, ip, lsl #16
    762c:	e155000e 	cmp	r5, lr
    7630:	e4813004 	str	r3, [r1], #4
    7634:	e1a0482c 	lsr	r4, ip, #16
    7638:	cafffff2 	bgt	7608 <__multadd+0x20>
    763c:	e3540000 	cmp	r4, #0
    7640:	0a000006 	beq	7660 <__multadd+0x78>
    7644:	e5963008 	ldr	r3, [r6, #8]
    7648:	e1530005 	cmp	r3, r5
    764c:	da000006 	ble	766c <__multadd+0x84>
    7650:	e0863105 	add	r3, r6, r5, lsl #2
    7654:	e2855001 	add	r5, r5, #1
    7658:	e5834014 	str	r4, [r3, #20]
    765c:	e5865010 	str	r5, [r6, #16]
    7660:	e1a00006 	mov	r0, r6
    7664:	e8bd41f0 	pop	{r4, r5, r6, r7, r8, lr}
    7668:	e12fff1e 	bx	lr
    766c:	e5961004 	ldr	r1, [r6, #4]
    7670:	e1a00007 	mov	r0, r7
    7674:	e2811001 	add	r1, r1, #1
    7678:	ebffffb0 	bl	7540 <_Balloc>
    767c:	e2508000 	subs	r8, r0, #0
    7680:	0a000010 	beq	76c8 <__multadd+0xe0>
    7684:	e5962010 	ldr	r2, [r6, #16]
    7688:	e2822002 	add	r2, r2, #2
    768c:	e286100c 	add	r1, r6, #12
    7690:	e1a02102 	lsl	r2, r2, #2
    7694:	e288000c 	add	r0, r8, #12
    7698:	ebffe8a1 	bl	1924 <memcpy>
    769c:	e597304c 	ldr	r3, [r7, #76]	; 0x4c
    76a0:	e5962004 	ldr	r2, [r6, #4]
    76a4:	e7931102 	ldr	r1, [r3, r2, lsl #2]
    76a8:	e5861000 	str	r1, [r6]
    76ac:	e7836102 	str	r6, [r3, r2, lsl #2]
    76b0:	e1a06008 	mov	r6, r8
    76b4:	e0863105 	add	r3, r6, r5, lsl #2
    76b8:	e2855001 	add	r5, r5, #1
    76bc:	e5834014 	str	r4, [r3, #20]
    76c0:	e5865010 	str	r5, [r6, #16]
    76c4:	eaffffe5 	b	7660 <__multadd+0x78>
    76c8:	e1a02008 	mov	r2, r8
    76cc:	e3a010b5 	mov	r1, #181	; 0xb5
    76d0:	e59f3008 	ldr	r3, [pc, #8]	; 76e0 <__multadd+0xf8>
    76d4:	e59f0008 	ldr	r0, [pc, #8]	; 76e4 <__multadd+0xfc>
    76d8:	eb0008d0 	bl	9a20 <__assert_func>
    76dc:	0000ffff 	.word	0x0000ffff
    76e0:	0000bfcc 	.word	0x0000bfcc
    76e4:	0000c060 	.word	0x0000c060

000076e8 <__hi0bits>:
    76e8:	e1a02820 	lsr	r2, r0, #16
    76ec:	e1a02802 	lsl	r2, r2, #16
    76f0:	e3520000 	cmp	r2, #0
    76f4:	e1a03000 	mov	r3, r0
    76f8:	03a00010 	moveq	r0, #16
    76fc:	13a00000 	movne	r0, #0
    7700:	01a03013 	lsleq	r3, r3, r0
    7704:	e31304ff 	tst	r3, #-16777216	; 0xff000000
    7708:	01a03403 	lsleq	r3, r3, #8
    770c:	02800008 	addeq	r0, r0, #8
    7710:	e313020f 	tst	r3, #-268435456	; 0xf0000000
    7714:	01a03203 	lsleq	r3, r3, #4
    7718:	02800004 	addeq	r0, r0, #4
    771c:	e3130103 	tst	r3, #-1073741824	; 0xc0000000
    7720:	01a03103 	lsleq	r3, r3, #2
    7724:	02800002 	addeq	r0, r0, #2
    7728:	e3530000 	cmp	r3, #0
    772c:	b12fff1e 	bxlt	lr
    7730:	e3130101 	tst	r3, #1073741824	; 0x40000000
    7734:	12800001 	addne	r0, r0, #1
    7738:	03a00020 	moveq	r0, #32
    773c:	e12fff1e 	bx	lr

00007740 <__lo0bits>:
    7740:	e5903000 	ldr	r3, [r0]
    7744:	e1a02000 	mov	r2, r0
    7748:	e2130007 	ands	r0, r3, #7
    774c:	0a000008 	beq	7774 <__lo0bits+0x34>
    7750:	e3130001 	tst	r3, #1
    7754:	1a00001c 	bne	77cc <__lo0bits+0x8c>
    7758:	e3130002 	tst	r3, #2
    775c:	11a030a3 	lsrne	r3, r3, #1
    7760:	01a03123 	lsreq	r3, r3, #2
    7764:	13a00001 	movne	r0, #1
    7768:	03a00002 	moveq	r0, #2
    776c:	e5823000 	str	r3, [r2]
    7770:	e12fff1e 	bx	lr
    7774:	e1a01803 	lsl	r1, r3, #16
    7778:	e1a01821 	lsr	r1, r1, #16
    777c:	e3510000 	cmp	r1, #0
    7780:	03a00010 	moveq	r0, #16
    7784:	01a03033 	lsreq	r3, r3, r0
    7788:	e20310ff 	and	r1, r3, #255	; 0xff
    778c:	e3510000 	cmp	r1, #0
    7790:	01a03423 	lsreq	r3, r3, #8
    7794:	02800008 	addeq	r0, r0, #8
    7798:	e313000f 	tst	r3, #15
    779c:	01a03223 	lsreq	r3, r3, #4
    77a0:	02800004 	addeq	r0, r0, #4
    77a4:	e3130003 	tst	r3, #3
    77a8:	01a03123 	lsreq	r3, r3, #2
    77ac:	02800002 	addeq	r0, r0, #2
    77b0:	e3130001 	tst	r3, #1
    77b4:	1a000002 	bne	77c4 <__lo0bits+0x84>
    77b8:	e1b030a3 	lsrs	r3, r3, #1
    77bc:	e2800001 	add	r0, r0, #1
    77c0:	0a000003 	beq	77d4 <__lo0bits+0x94>
    77c4:	e5823000 	str	r3, [r2]
    77c8:	e12fff1e 	bx	lr
    77cc:	e3a00000 	mov	r0, #0
    77d0:	e12fff1e 	bx	lr
    77d4:	e3a00020 	mov	r0, #32
    77d8:	e12fff1e 	bx	lr

000077dc <__i2b>:
    77dc:	e590304c 	ldr	r3, [r0, #76]	; 0x4c
    77e0:	e3530000 	cmp	r3, #0
    77e4:	e92d4070 	push	{r4, r5, r6, lr}
    77e8:	e1a04000 	mov	r4, r0
    77ec:	e1a05001 	mov	r5, r1
    77f0:	0a00000b 	beq	7824 <__i2b+0x48>
    77f4:	e5930004 	ldr	r0, [r3, #4]
    77f8:	e3500000 	cmp	r0, #0
    77fc:	0a000014 	beq	7854 <__i2b+0x78>
    7800:	e5902000 	ldr	r2, [r0]
    7804:	e5832004 	str	r2, [r3, #4]
    7808:	e3a02000 	mov	r2, #0
    780c:	e3a03001 	mov	r3, #1
    7810:	e5805014 	str	r5, [r0, #20]
    7814:	e580200c 	str	r2, [r0, #12]
    7818:	e5803010 	str	r3, [r0, #16]
    781c:	e8bd4070 	pop	{r4, r5, r6, lr}
    7820:	e12fff1e 	bx	lr
    7824:	e3a02021 	mov	r2, #33	; 0x21
    7828:	e3a01004 	mov	r1, #4
    782c:	eb000892 	bl	9a7c <_calloc_r>
    7830:	e3500000 	cmp	r0, #0
    7834:	e1a03000 	mov	r3, r0
    7838:	e584004c 	str	r0, [r4, #76]	; 0x4c
    783c:	1affffec 	bne	77f4 <__i2b+0x18>
    7840:	e3a02000 	mov	r2, #0
    7844:	e3a01d05 	mov	r1, #320	; 0x140
    7848:	e59f302c 	ldr	r3, [pc, #44]	; 787c <__i2b+0xa0>
    784c:	e59f002c 	ldr	r0, [pc, #44]	; 7880 <__i2b+0xa4>
    7850:	eb000872 	bl	9a20 <__assert_func>
    7854:	e3a0201c 	mov	r2, #28
    7858:	e3a01001 	mov	r1, #1
    785c:	e1a00004 	mov	r0, r4
    7860:	eb000885 	bl	9a7c <_calloc_r>
    7864:	e3500000 	cmp	r0, #0
    7868:	0afffff4 	beq	7840 <__i2b+0x64>
    786c:	e3a02001 	mov	r2, #1
    7870:	e3a03002 	mov	r3, #2
    7874:	e980000c 	stmib	r0, {r2, r3}
    7878:	eaffffe2 	b	7808 <__i2b+0x2c>
    787c:	0000bfcc 	.word	0x0000bfcc
    7880:	0000c060 	.word	0x0000c060

00007884 <__multiply>:
    7884:	e92d4ff0 	push	{r4, r5, r6, r7, r8, r9, sl, fp, lr}
    7888:	e5923010 	ldr	r3, [r2, #16]
    788c:	e5915010 	ldr	r5, [r1, #16]
    7890:	e1550003 	cmp	r5, r3
    7894:	b1a04002 	movlt	r4, r2
    7898:	a1a04001 	movge	r4, r1
    789c:	b1a06003 	movlt	r6, r3
    78a0:	a1a06005 	movge	r6, r5
    78a4:	a1a05003 	movge	r5, r3
    78a8:	b1a09001 	movlt	r9, r1
    78ac:	e994000a 	ldmib	r4, {r1, r3}
    78b0:	e0867005 	add	r7, r6, r5
    78b4:	a1a09002 	movge	r9, r2
    78b8:	e1530007 	cmp	r3, r7
    78bc:	e24dd014 	sub	sp, sp, #20
    78c0:	b2811001 	addlt	r1, r1, #1
    78c4:	ebffff1d 	bl	7540 <_Balloc>
    78c8:	e2503000 	subs	r3, r0, #0
    78cc:	e58d3004 	str	r3, [sp, #4]
    78d0:	0a000067 	beq	7a74 <__multiply+0x1f0>
    78d4:	e59d3004 	ldr	r3, [sp, #4]
    78d8:	e283a014 	add	sl, r3, #20
    78dc:	e08ab107 	add	fp, sl, r7, lsl #2
    78e0:	e15a000b 	cmp	sl, fp
    78e4:	31a0300a 	movcc	r3, sl
    78e8:	33a02000 	movcc	r2, #0
    78ec:	2a000002 	bcs	78fc <__multiply+0x78>
    78f0:	e4832004 	str	r2, [r3], #4
    78f4:	e15b0003 	cmp	fp, r3
    78f8:	8afffffc 	bhi	78f0 <__multiply+0x6c>
    78fc:	e2899014 	add	r9, r9, #20
    7900:	e0893105 	add	r3, r9, r5, lsl #2
    7904:	e1a02003 	mov	r2, r3
    7908:	e1590003 	cmp	r9, r3
    790c:	e2843014 	add	r3, r4, #20
    7910:	e58d3000 	str	r3, [sp]
    7914:	e0836106 	add	r6, r3, r6, lsl #2
    7918:	2a000047 	bcs	7a3c <__multiply+0x1b8>
    791c:	e0463004 	sub	r3, r6, r4
    7920:	e2433015 	sub	r3, r3, #21
    7924:	e2844015 	add	r4, r4, #21
    7928:	e3c33003 	bic	r3, r3, #3
    792c:	e1560004 	cmp	r6, r4
    7930:	e2833004 	add	r3, r3, #4
    7934:	33a03004 	movcc	r3, #4
    7938:	e58db008 	str	fp, [sp, #8]
    793c:	e58d700c 	str	r7, [sp, #12]
    7940:	e1a0b002 	mov	fp, r2
    7944:	e1a07003 	mov	r7, r3
    7948:	e59f0138 	ldr	r0, [pc, #312]	; 7a88 <__multiply+0x204>
    794c:	ea000004 	b	7964 <__multiply+0xe0>
    7950:	e1b0c82c 	lsrs	ip, ip, #16
    7954:	1a00001c 	bne	79cc <__multiply+0x148>
    7958:	e15b0009 	cmp	fp, r9
    795c:	e28aa004 	add	sl, sl, #4
    7960:	9a000033 	bls	7a34 <__multiply+0x1b0>
    7964:	e499c004 	ldr	ip, [r9], #4
    7968:	e01c5000 	ands	r5, ip, r0
    796c:	0afffff7 	beq	7950 <__multiply+0xcc>
    7970:	e1a0e00a 	mov	lr, sl
    7974:	e3a03000 	mov	r3, #0
    7978:	e59d4000 	ldr	r4, [sp]
    797c:	e494c004 	ldr	ip, [r4], #4
    7980:	e59e1000 	ldr	r1, [lr]
    7984:	e00c2000 	and	r2, ip, r0
    7988:	e0018000 	and	r8, r1, r0
    798c:	e0288295 	mla	r8, r5, r2, r8
    7990:	e1a0c82c 	lsr	ip, ip, #16
    7994:	e1a02821 	lsr	r2, r1, #16
    7998:	e0222c95 	mla	r2, r5, ip, r2
    799c:	e0883003 	add	r3, r8, r3
    79a0:	e0822823 	add	r2, r2, r3, lsr #16
    79a4:	e0033000 	and	r3, r3, r0
    79a8:	e1833802 	orr	r3, r3, r2, lsl #16
    79ac:	e1560004 	cmp	r6, r4
    79b0:	e48e3004 	str	r3, [lr], #4
    79b4:	e1a03822 	lsr	r3, r2, #16
    79b8:	8affffef 	bhi	797c <__multiply+0xf8>
    79bc:	e78a3007 	str	r3, [sl, r7]
    79c0:	e519c004 	ldr	ip, [r9, #-4]
    79c4:	e1b0c82c 	lsrs	ip, ip, #16
    79c8:	0affffe2 	beq	7958 <__multiply+0xd4>
    79cc:	e59a3000 	ldr	r3, [sl]
    79d0:	e1a0400a 	mov	r4, sl
    79d4:	e1a01003 	mov	r1, r3
    79d8:	e3a02000 	mov	r2, #0
    79dc:	e59de000 	ldr	lr, [sp]
    79e0:	e59e5000 	ldr	r5, [lr]
    79e4:	e1a01821 	lsr	r1, r1, #16
    79e8:	e0055000 	and	r5, r5, r0
    79ec:	e021159c 	mla	r1, ip, r5, r1
    79f0:	e0033000 	and	r3, r3, r0
    79f4:	e0812002 	add	r2, r1, r2
    79f8:	e1833802 	orr	r3, r3, r2, lsl #16
    79fc:	e4843004 	str	r3, [r4], #4
    7a00:	e49e3004 	ldr	r3, [lr], #4
    7a04:	e5941000 	ldr	r1, [r4]
    7a08:	e1a05823 	lsr	r5, r3, #16
    7a0c:	e0013000 	and	r3, r1, r0
    7a10:	e023359c 	mla	r3, ip, r5, r3
    7a14:	e156000e 	cmp	r6, lr
    7a18:	e0833822 	add	r3, r3, r2, lsr #16
    7a1c:	e1a02823 	lsr	r2, r3, #16
    7a20:	8affffee 	bhi	79e0 <__multiply+0x15c>
    7a24:	e15b0009 	cmp	fp, r9
    7a28:	e78a3007 	str	r3, [sl, r7]
    7a2c:	e28aa004 	add	sl, sl, #4
    7a30:	8affffcb 	bhi	7964 <__multiply+0xe0>
    7a34:	e59db008 	ldr	fp, [sp, #8]
    7a38:	e59d700c 	ldr	r7, [sp, #12]
    7a3c:	e3570000 	cmp	r7, #0
    7a40:	ca000002 	bgt	7a50 <__multiply+0x1cc>
    7a44:	ea000004 	b	7a5c <__multiply+0x1d8>
    7a48:	e2577001 	subs	r7, r7, #1
    7a4c:	0a000002 	beq	7a5c <__multiply+0x1d8>
    7a50:	e53b3004 	ldr	r3, [fp, #-4]!
    7a54:	e3530000 	cmp	r3, #0
    7a58:	0afffffa 	beq	7a48 <__multiply+0x1c4>
    7a5c:	e59d3004 	ldr	r3, [sp, #4]
    7a60:	e1a00003 	mov	r0, r3
    7a64:	e5837010 	str	r7, [r3, #16]
    7a68:	e28dd014 	add	sp, sp, #20
    7a6c:	e8bd4ff0 	pop	{r4, r5, r6, r7, r8, r9, sl, fp, lr}
    7a70:	e12fff1e 	bx	lr
    7a74:	e1a02003 	mov	r2, r3
    7a78:	e59f100c 	ldr	r1, [pc, #12]	; 7a8c <__multiply+0x208>
    7a7c:	e59f300c 	ldr	r3, [pc, #12]	; 7a90 <__multiply+0x20c>
    7a80:	e59f000c 	ldr	r0, [pc, #12]	; 7a94 <__multiply+0x210>
    7a84:	eb0007e5 	bl	9a20 <__assert_func>
    7a88:	0000ffff 	.word	0x0000ffff
    7a8c:	0000015d 	.word	0x0000015d
    7a90:	0000bfcc 	.word	0x0000bfcc
    7a94:	0000c060 	.word	0x0000c060

00007a98 <__pow5mult>:
    7a98:	e2123003 	ands	r3, r2, #3
    7a9c:	e92d41f0 	push	{r4, r5, r6, r7, r8, lr}
    7aa0:	e1a04002 	mov	r4, r2
    7aa4:	e1a07000 	mov	r7, r0
    7aa8:	01a06001 	moveq	r6, r1
    7aac:	1a000025 	bne	7b48 <__pow5mult+0xb0>
    7ab0:	e1b04144 	asrs	r4, r4, #2
    7ab4:	0a000019 	beq	7b20 <__pow5mult+0x88>
    7ab8:	e5975048 	ldr	r5, [r7, #72]	; 0x48
    7abc:	e3550000 	cmp	r5, #0
    7ac0:	0a000027 	beq	7b64 <__pow5mult+0xcc>
    7ac4:	e3a08000 	mov	r8, #0
    7ac8:	ea000005 	b	7ae4 <__pow5mult+0x4c>
    7acc:	e1b040c4 	asrs	r4, r4, #1
    7ad0:	0a000012 	beq	7b20 <__pow5mult+0x88>
    7ad4:	e5950000 	ldr	r0, [r5]
    7ad8:	e3500000 	cmp	r0, #0
    7adc:	0a000012 	beq	7b2c <__pow5mult+0x94>
    7ae0:	e1a05000 	mov	r5, r0
    7ae4:	e3140001 	tst	r4, #1
    7ae8:	0afffff7 	beq	7acc <__pow5mult+0x34>
    7aec:	e1a02005 	mov	r2, r5
    7af0:	e1a01006 	mov	r1, r6
    7af4:	e1a00007 	mov	r0, r7
    7af8:	ebffff61 	bl	7884 <__multiply>
    7afc:	e3560000 	cmp	r6, #0
    7b00:	15962004 	ldrne	r2, [r6, #4]
    7b04:	1597304c 	ldrne	r3, [r7, #76]	; 0x4c
    7b08:	17931102 	ldrne	r1, [r3, r2, lsl #2]
    7b0c:	15861000 	strne	r1, [r6]
    7b10:	17836102 	strne	r6, [r3, r2, lsl #2]
    7b14:	e1b040c4 	asrs	r4, r4, #1
    7b18:	e1a06000 	mov	r6, r0
    7b1c:	1affffec 	bne	7ad4 <__pow5mult+0x3c>
    7b20:	e1a00006 	mov	r0, r6
    7b24:	e8bd41f0 	pop	{r4, r5, r6, r7, r8, lr}
    7b28:	e12fff1e 	bx	lr
    7b2c:	e1a02005 	mov	r2, r5
    7b30:	e1a01005 	mov	r1, r5
    7b34:	e1a00007 	mov	r0, r7
    7b38:	ebffff51 	bl	7884 <__multiply>
    7b3c:	e5850000 	str	r0, [r5]
    7b40:	e5808000 	str	r8, [r0]
    7b44:	eaffffe5 	b	7ae0 <__pow5mult+0x48>
    7b48:	e59f205c 	ldr	r2, [pc, #92]	; 7bac <__pow5mult+0x114>
    7b4c:	e2433001 	sub	r3, r3, #1
    7b50:	e7922103 	ldr	r2, [r2, r3, lsl #2]
    7b54:	e3a03000 	mov	r3, #0
    7b58:	ebfffea2 	bl	75e8 <__multadd>
    7b5c:	e1a06000 	mov	r6, r0
    7b60:	eaffffd2 	b	7ab0 <__pow5mult+0x18>
    7b64:	e3a01001 	mov	r1, #1
    7b68:	e1a00007 	mov	r0, r7
    7b6c:	ebfffe73 	bl	7540 <_Balloc>
    7b70:	e2505000 	subs	r5, r0, #0
    7b74:	0a000007 	beq	7b98 <__pow5mult+0x100>
    7b78:	e59f3030 	ldr	r3, [pc, #48]	; 7bb0 <__pow5mult+0x118>
    7b7c:	e3a02001 	mov	r2, #1
    7b80:	e5853014 	str	r3, [r5, #20]
    7b84:	e3a03000 	mov	r3, #0
    7b88:	e5852010 	str	r2, [r5, #16]
    7b8c:	e5875048 	str	r5, [r7, #72]	; 0x48
    7b90:	e5853000 	str	r3, [r5]
    7b94:	eaffffca 	b	7ac4 <__pow5mult+0x2c>
    7b98:	e1a02005 	mov	r2, r5
    7b9c:	e3a01d05 	mov	r1, #320	; 0x140
    7ba0:	e59f300c 	ldr	r3, [pc, #12]	; 7bb4 <__pow5mult+0x11c>
    7ba4:	e59f000c 	ldr	r0, [pc, #12]	; 7bb8 <__pow5mult+0x120>
    7ba8:	eb00079c 	bl	9a20 <__assert_func>
    7bac:	0000c1d0 	.word	0x0000c1d0
    7bb0:	00000271 	.word	0x00000271
    7bb4:	0000bfcc 	.word	0x0000bfcc
    7bb8:	0000c060 	.word	0x0000c060

00007bbc <__lshift>:
    7bbc:	e92d47f0 	push	{r4, r5, r6, r7, r8, r9, sl, lr}
    7bc0:	e1a04001 	mov	r4, r1
    7bc4:	e5946010 	ldr	r6, [r4, #16]
    7bc8:	e5943008 	ldr	r3, [r4, #8]
    7bcc:	e08662c2 	add	r6, r6, r2, asr #5
    7bd0:	e2865001 	add	r5, r6, #1
    7bd4:	e1550003 	cmp	r5, r3
    7bd8:	e1a08002 	mov	r8, r2
    7bdc:	e1a07000 	mov	r7, r0
    7be0:	e5911004 	ldr	r1, [r1, #4]
    7be4:	e1a092c2 	asr	r9, r2, #5
    7be8:	da000003 	ble	7bfc <__lshift+0x40>
    7bec:	e1a03083 	lsl	r3, r3, #1
    7bf0:	e1550003 	cmp	r5, r3
    7bf4:	e2811001 	add	r1, r1, #1
    7bf8:	cafffffb 	bgt	7bec <__lshift+0x30>
    7bfc:	e1a00007 	mov	r0, r7
    7c00:	ebfffe4e 	bl	7540 <_Balloc>
    7c04:	e3500000 	cmp	r0, #0
    7c08:	0a000033 	beq	7cdc <__lshift+0x120>
    7c0c:	e3590000 	cmp	r9, #0
    7c10:	e280e014 	add	lr, r0, #20
    7c14:	da000009 	ble	7c40 <__lshift+0x84>
    7c18:	e1a0300e 	mov	r3, lr
    7c1c:	e3a01000 	mov	r1, #0
    7c20:	e2892005 	add	r2, r9, #5
    7c24:	e1a0c102 	lsl	ip, r2, #2
    7c28:	e0802102 	add	r2, r0, r2, lsl #2
    7c2c:	e4831004 	str	r1, [r3], #4
    7c30:	e1530002 	cmp	r3, r2
    7c34:	1afffffc 	bne	7c2c <__lshift+0x70>
    7c38:	e24c3014 	sub	r3, ip, #20
    7c3c:	e08ee003 	add	lr, lr, r3
    7c40:	e5949010 	ldr	r9, [r4, #16]
    7c44:	e2843014 	add	r3, r4, #20
    7c48:	e218801f 	ands	r8, r8, #31
    7c4c:	e0839109 	add	r9, r3, r9, lsl #2
    7c50:	0a00001b 	beq	7cc4 <__lshift+0x108>
    7c54:	e1a0200e 	mov	r2, lr
    7c58:	e3a0c000 	mov	ip, #0
    7c5c:	e268a020 	rsb	sl, r8, #32
    7c60:	e5931000 	ldr	r1, [r3]
    7c64:	e18cc811 	orr	ip, ip, r1, lsl r8
    7c68:	e482c004 	str	ip, [r2], #4
    7c6c:	e493c004 	ldr	ip, [r3], #4
    7c70:	e1590003 	cmp	r9, r3
    7c74:	e1a0ca3c 	lsr	ip, ip, sl
    7c78:	8afffff8 	bhi	7c60 <__lshift+0xa4>
    7c7c:	e0493004 	sub	r3, r9, r4
    7c80:	e35c0000 	cmp	ip, #0
    7c84:	e2433015 	sub	r3, r3, #21
    7c88:	e2842015 	add	r2, r4, #21
    7c8c:	11a06005 	movne	r6, r5
    7c90:	e3c33003 	bic	r3, r3, #3
    7c94:	e1590002 	cmp	r9, r2
    7c98:	e2833004 	add	r3, r3, #4
    7c9c:	33a03004 	movcc	r3, #4
    7ca0:	e78ec003 	str	ip, [lr, r3]
    7ca4:	e597304c 	ldr	r3, [r7, #76]	; 0x4c
    7ca8:	e5942004 	ldr	r2, [r4, #4]
    7cac:	e7931102 	ldr	r1, [r3, r2, lsl #2]
    7cb0:	e5806010 	str	r6, [r0, #16]
    7cb4:	e5841000 	str	r1, [r4]
    7cb8:	e7834102 	str	r4, [r3, r2, lsl #2]
    7cbc:	e8bd47f0 	pop	{r4, r5, r6, r7, r8, r9, sl, lr}
    7cc0:	e12fff1e 	bx	lr
    7cc4:	e24e1004 	sub	r1, lr, #4
    7cc8:	e4932004 	ldr	r2, [r3], #4
    7ccc:	e1590003 	cmp	r9, r3
    7cd0:	e5a12004 	str	r2, [r1, #4]!
    7cd4:	8afffffb 	bhi	7cc8 <__lshift+0x10c>
    7cd8:	eafffff1 	b	7ca4 <__lshift+0xe8>
    7cdc:	e1a02000 	mov	r2, r0
    7ce0:	e59f3008 	ldr	r3, [pc, #8]	; 7cf0 <__lshift+0x134>
    7ce4:	e59f1008 	ldr	r1, [pc, #8]	; 7cf4 <__lshift+0x138>
    7ce8:	e59f0008 	ldr	r0, [pc, #8]	; 7cf8 <__lshift+0x13c>
    7cec:	eb00074b 	bl	9a20 <__assert_func>
    7cf0:	0000bfcc 	.word	0x0000bfcc
    7cf4:	000001d9 	.word	0x000001d9
    7cf8:	0000c060 	.word	0x0000c060

00007cfc <__mcmp>:
    7cfc:	e52de004 	push	{lr}		; (str lr, [sp, #-4]!)
    7d00:	e5913010 	ldr	r3, [r1, #16]
    7d04:	e1a0e000 	mov	lr, r0
    7d08:	e5900010 	ldr	r0, [r0, #16]
    7d0c:	e0500003 	subs	r0, r0, r3
    7d10:	1a00000c 	bne	7d48 <__mcmp+0x4c>
    7d14:	e28ee014 	add	lr, lr, #20
    7d18:	e2811014 	add	r1, r1, #20
    7d1c:	e08e2103 	add	r2, lr, r3, lsl #2
    7d20:	e0813103 	add	r3, r1, r3, lsl #2
    7d24:	ea000001 	b	7d30 <__mcmp+0x34>
    7d28:	e15e0002 	cmp	lr, r2
    7d2c:	2a000005 	bcs	7d48 <__mcmp+0x4c>
    7d30:	e532c004 	ldr	ip, [r2, #-4]!
    7d34:	e5331004 	ldr	r1, [r3, #-4]!
    7d38:	e15c0001 	cmp	ip, r1
    7d3c:	0afffff9 	beq	7d28 <__mcmp+0x2c>
    7d40:	23a00001 	movcs	r0, #1
    7d44:	3a000001 	bcc	7d50 <__mcmp+0x54>
    7d48:	e49de004 	pop	{lr}		; (ldr lr, [sp], #4)
    7d4c:	e12fff1e 	bx	lr
    7d50:	e3e00000 	mvn	r0, #0
    7d54:	e49de004 	pop	{lr}		; (ldr lr, [sp], #4)
    7d58:	e12fff1e 	bx	lr

00007d5c <__mdiff>:
    7d5c:	e92d4ff0 	push	{r4, r5, r6, r7, r8, r9, sl, fp, lr}
    7d60:	e5923010 	ldr	r3, [r2, #16]
    7d64:	e5915010 	ldr	r5, [r1, #16]
    7d68:	e0455003 	sub	r5, r5, r3
    7d6c:	e3550000 	cmp	r5, #0
    7d70:	e1a04001 	mov	r4, r1
    7d74:	e1a09002 	mov	r9, r2
    7d78:	e24dd00c 	sub	sp, sp, #12
    7d7c:	1a000056 	bne	7edc <__mdiff+0x180>
    7d80:	e281e014 	add	lr, r1, #20
    7d84:	e2822014 	add	r2, r2, #20
    7d88:	e0822103 	add	r2, r2, r3, lsl #2
    7d8c:	e08e3103 	add	r3, lr, r3, lsl #2
    7d90:	ea000001 	b	7d9c <__mdiff+0x40>
    7d94:	e15e0003 	cmp	lr, r3
    7d98:	2a000056 	bcs	7ef8 <__mdiff+0x19c>
    7d9c:	e533c004 	ldr	ip, [r3, #-4]!
    7da0:	e5321004 	ldr	r1, [r2, #-4]!
    7da4:	e15c0001 	cmp	ip, r1
    7da8:	0afffff9 	beq	7d94 <__mdiff+0x38>
    7dac:	3a00004c 	bcc	7ee4 <__mdiff+0x188>
    7db0:	e5941004 	ldr	r1, [r4, #4]
    7db4:	ebfffde1 	bl	7540 <_Balloc>
    7db8:	e3500000 	cmp	r0, #0
    7dbc:	0a00005a 	beq	7f2c <__mdiff+0x1d0>
    7dc0:	e280b014 	add	fp, r0, #20
    7dc4:	e1a0800b 	mov	r8, fp
    7dc8:	e3a03000 	mov	r3, #0
    7dcc:	e5947010 	ldr	r7, [r4, #16]
    7dd0:	e599a010 	ldr	sl, [r9, #16]
    7dd4:	e2842014 	add	r2, r4, #20
    7dd8:	e580500c 	str	r5, [r0, #12]
    7ddc:	e284e010 	add	lr, r4, #16
    7de0:	e59f5158 	ldr	r5, [pc, #344]	; 7f40 <__mdiff+0x1e4>
    7de4:	e2894014 	add	r4, r9, #20
    7de8:	e58d2004 	str	r2, [sp, #4]
    7dec:	e084a10a 	add	sl, r4, sl, lsl #2
    7df0:	e0822107 	add	r2, r2, r7, lsl #2
    7df4:	e5be6004 	ldr	r6, [lr, #4]!
    7df8:	e494c004 	ldr	ip, [r4], #4
    7dfc:	e0061005 	and	r1, r6, r5
    7e00:	e0811003 	add	r1, r1, r3
    7e04:	e00c3005 	and	r3, ip, r5
    7e08:	e0411003 	sub	r1, r1, r3
    7e0c:	e1a0382c 	lsr	r3, ip, #16
    7e10:	e0633826 	rsb	r3, r3, r6, lsr #16
    7e14:	e0833841 	add	r3, r3, r1, asr #16
    7e18:	e0011005 	and	r1, r1, r5
    7e1c:	e181c803 	orr	ip, r1, r3, lsl #16
    7e20:	e15a0004 	cmp	sl, r4
    7e24:	e488c004 	str	ip, [r8], #4
    7e28:	e1a03843 	asr	r3, r3, #16
    7e2c:	8afffff0 	bhi	7df4 <__mdiff+0x98>
    7e30:	e04a1009 	sub	r1, sl, r9
    7e34:	e2411015 	sub	r1, r1, #21
    7e38:	e2899015 	add	r9, r9, #21
    7e3c:	e15a0009 	cmp	sl, r9
    7e40:	e3c1e003 	bic	lr, r1, #3
    7e44:	e28ee004 	add	lr, lr, #4
    7e48:	33a0e004 	movcc	lr, #4
    7e4c:	e3c11003 	bic	r1, r1, #3
    7e50:	33a01000 	movcc	r1, #0
    7e54:	e59d4004 	ldr	r4, [sp, #4]
    7e58:	e084500e 	add	r5, r4, lr
    7e5c:	e1520005 	cmp	r2, r5
    7e60:	e08b1001 	add	r1, fp, r1
    7e64:	e08bb00e 	add	fp, fp, lr
    7e68:	9a000011 	bls	7eb4 <__mdiff+0x158>
    7e6c:	e1a0400b 	mov	r4, fp
    7e70:	e1a01005 	mov	r1, r5
    7e74:	e59fe0c4 	ldr	lr, [pc, #196]	; 7f40 <__mdiff+0x1e4>
    7e78:	e4918004 	ldr	r8, [r1], #4
    7e7c:	e008c00e 	and	ip, r8, lr
    7e80:	e08c3003 	add	r3, ip, r3
    7e84:	e1a06843 	asr	r6, r3, #16
    7e88:	e0866828 	add	r6, r6, r8, lsr #16
    7e8c:	e003300e 	and	r3, r3, lr
    7e90:	e183c806 	orr	ip, r3, r6, lsl #16
    7e94:	e1520001 	cmp	r2, r1
    7e98:	e484c004 	str	ip, [r4], #4
    7e9c:	e1a03846 	asr	r3, r6, #16
    7ea0:	8afffff4 	bhi	7e78 <__mdiff+0x11c>
    7ea4:	e2421001 	sub	r1, r2, #1
    7ea8:	e0411005 	sub	r1, r1, r5
    7eac:	e3c11003 	bic	r1, r1, #3
    7eb0:	e08b1001 	add	r1, fp, r1
    7eb4:	e35c0000 	cmp	ip, #0
    7eb8:	1a000003 	bne	7ecc <__mdiff+0x170>
    7ebc:	e5313004 	ldr	r3, [r1, #-4]!
    7ec0:	e3530000 	cmp	r3, #0
    7ec4:	e2477001 	sub	r7, r7, #1
    7ec8:	0afffffb 	beq	7ebc <__mdiff+0x160>
    7ecc:	e5807010 	str	r7, [r0, #16]
    7ed0:	e28dd00c 	add	sp, sp, #12
    7ed4:	e8bd4ff0 	pop	{r4, r5, r6, r7, r8, r9, sl, fp, lr}
    7ed8:	e12fff1e 	bx	lr
    7edc:	a3a05000 	movge	r5, #0
    7ee0:	aaffffb2 	bge	7db0 <__mdiff+0x54>
    7ee4:	e1a03004 	mov	r3, r4
    7ee8:	e3a05001 	mov	r5, #1
    7eec:	e1a04009 	mov	r4, r9
    7ef0:	e1a09003 	mov	r9, r3
    7ef4:	eaffffad 	b	7db0 <__mdiff+0x54>
    7ef8:	e3a01000 	mov	r1, #0
    7efc:	ebfffd8f 	bl	7540 <_Balloc>
    7f00:	e3500000 	cmp	r0, #0
    7f04:	13a02001 	movne	r2, #1
    7f08:	13a03000 	movne	r3, #0
    7f0c:	15802010 	strne	r2, [r0, #16]
    7f10:	15803014 	strne	r3, [r0, #20]
    7f14:	1affffed 	bne	7ed0 <__mdiff+0x174>
    7f18:	e1a02000 	mov	r2, r0
    7f1c:	e59f3020 	ldr	r3, [pc, #32]	; 7f44 <__mdiff+0x1e8>
    7f20:	e59f1020 	ldr	r1, [pc, #32]	; 7f48 <__mdiff+0x1ec>
    7f24:	e59f0020 	ldr	r0, [pc, #32]	; 7f4c <__mdiff+0x1f0>
    7f28:	eb0006bc 	bl	9a20 <__assert_func>
    7f2c:	e1a02000 	mov	r2, r0
    7f30:	e3a01d09 	mov	r1, #576	; 0x240
    7f34:	e59f3008 	ldr	r3, [pc, #8]	; 7f44 <__mdiff+0x1e8>
    7f38:	e59f000c 	ldr	r0, [pc, #12]	; 7f4c <__mdiff+0x1f0>
    7f3c:	eb0006b7 	bl	9a20 <__assert_func>
    7f40:	0000ffff 	.word	0x0000ffff
    7f44:	0000bfcc 	.word	0x0000bfcc
    7f48:	00000232 	.word	0x00000232
    7f4c:	0000c060 	.word	0x0000c060

00007f50 <__d2b>:
    7f50:	e92d4070 	push	{r4, r5, r6, lr}
    7f54:	e3a01001 	mov	r1, #1
    7f58:	e24dd008 	sub	sp, sp, #8
    7f5c:	e1a06002 	mov	r6, r2
    7f60:	e1a04003 	mov	r4, r3
    7f64:	ebfffd75 	bl	7540 <_Balloc>
    7f68:	e2505000 	subs	r5, r0, #0
    7f6c:	0a00003f 	beq	8070 <__d2b+0x120>
    7f70:	e59f110c 	ldr	r1, [pc, #268]	; 8084 <__d2b+0x134>
    7f74:	e3c424ff 	bic	r2, r4, #-16777216	; 0xff000000
    7f78:	e3c2260f 	bic	r2, r2, #15728640	; 0xf00000
    7f7c:	e0114a24 	ands	r4, r1, r4, lsr #20
    7f80:	13822601 	orrne	r2, r2, #1048576	; 0x100000
    7f84:	e3560000 	cmp	r6, #0
    7f88:	e58d2004 	str	r2, [sp, #4]
    7f8c:	1a000015 	bne	7fe8 <__d2b+0x98>
    7f90:	e28d0004 	add	r0, sp, #4
    7f94:	ebfffde9 	bl	7740 <__lo0bits>
    7f98:	e3a03001 	mov	r3, #1
    7f9c:	e59d2004 	ldr	r2, [sp, #4]
    7fa0:	e3540000 	cmp	r4, #0
    7fa4:	e1a01003 	mov	r1, r3
    7fa8:	e5852014 	str	r2, [r5, #20]
    7fac:	e5853010 	str	r3, [r5, #16]
    7fb0:	e2800020 	add	r0, r0, #32
    7fb4:	0a00001f 	beq	8038 <__d2b+0xe8>
    7fb8:	e2443e43 	sub	r3, r4, #1072	; 0x430
    7fbc:	e59d2018 	ldr	r2, [sp, #24]
    7fc0:	e2433003 	sub	r3, r3, #3
    7fc4:	e0833000 	add	r3, r3, r0
    7fc8:	e5823000 	str	r3, [r2]
    7fcc:	e59d301c 	ldr	r3, [sp, #28]
    7fd0:	e2600035 	rsb	r0, r0, #53	; 0x35
    7fd4:	e5830000 	str	r0, [r3]
    7fd8:	e1a00005 	mov	r0, r5
    7fdc:	e28dd008 	add	sp, sp, #8
    7fe0:	e8bd4070 	pop	{r4, r5, r6, lr}
    7fe4:	e12fff1e 	bx	lr
    7fe8:	e1a0000d 	mov	r0, sp
    7fec:	e58d6000 	str	r6, [sp]
    7ff0:	ebfffdd2 	bl	7740 <__lo0bits>
    7ff4:	e3500000 	cmp	r0, #0
    7ff8:	159d3004 	ldrne	r3, [sp, #4]
    7ffc:	159d1000 	ldrne	r1, [sp]
    8000:	089d000c 	ldmeq	sp, {r2, r3}
    8004:	12602020 	rsbne	r2, r0, #32
    8008:	11812213 	orrne	r2, r1, r3, lsl r2
    800c:	11a03033 	lsrne	r3, r3, r0
    8010:	15852014 	strne	r2, [r5, #20]
    8014:	158d3004 	strne	r3, [sp, #4]
    8018:	05852014 	streq	r2, [r5, #20]
    801c:	e3530000 	cmp	r3, #0
    8020:	13a01002 	movne	r1, #2
    8024:	03a01001 	moveq	r1, #1
    8028:	e3540000 	cmp	r4, #0
    802c:	e5853018 	str	r3, [r5, #24]
    8030:	e5851010 	str	r1, [r5, #16]
    8034:	1affffdf 	bne	7fb8 <__d2b+0x68>
    8038:	e0852101 	add	r2, r5, r1, lsl #2
    803c:	e2403e43 	sub	r3, r0, #1072	; 0x430
    8040:	e5920010 	ldr	r0, [r2, #16]
    8044:	e59d2018 	ldr	r2, [sp, #24]
    8048:	e2433002 	sub	r3, r3, #2
    804c:	e5823000 	str	r3, [r2]
    8050:	ebfffda4 	bl	76e8 <__hi0bits>
    8054:	e0601281 	rsb	r1, r0, r1, lsl #5
    8058:	e1a00005 	mov	r0, r5
    805c:	e59d301c 	ldr	r3, [sp, #28]
    8060:	e5831000 	str	r1, [r3]
    8064:	e28dd008 	add	sp, sp, #8
    8068:	e8bd4070 	pop	{r4, r5, r6, lr}
    806c:	e12fff1e 	bx	lr
    8070:	e1a02005 	mov	r2, r5
    8074:	e59f300c 	ldr	r3, [pc, #12]	; 8088 <__d2b+0x138>
    8078:	e59f100c 	ldr	r1, [pc, #12]	; 808c <__d2b+0x13c>
    807c:	e59f000c 	ldr	r0, [pc, #12]	; 8090 <__d2b+0x140>
    8080:	eb000666 	bl	9a20 <__assert_func>
    8084:	000007ff 	.word	0x000007ff
    8088:	0000bfcc 	.word	0x0000bfcc
    808c:	0000030a 	.word	0x0000030a
    8090:	0000c060 	.word	0x0000c060

00008094 <frexp>:
    8094:	e3a0c000 	mov	ip, #0
    8098:	e92d4070 	push	{r4, r5, r6, lr}
    809c:	e59fe088 	ldr	lr, [pc, #136]	; 812c <frexp+0x98>
    80a0:	e3c13102 	bic	r3, r1, #-2147483648	; 0x80000000
    80a4:	e153000e 	cmp	r3, lr
    80a8:	e1a04000 	mov	r4, r0
    80ac:	e1a05001 	mov	r5, r1
    80b0:	e582c000 	str	ip, [r2]
    80b4:	ca000018 	bgt	811c <frexp+0x88>
    80b8:	e1a0e000 	mov	lr, r0
    80bc:	e193e00e 	orrs	lr, r3, lr
    80c0:	0a000015 	beq	811c <frexp+0x88>
    80c4:	e59fe064 	ldr	lr, [pc, #100]	; 8130 <frexp+0x9c>
    80c8:	e00ee001 	and	lr, lr, r1
    80cc:	e15e000c 	cmp	lr, ip
    80d0:	e1a06002 	mov	r6, r2
    80d4:	e1a02001 	mov	r2, r1
    80d8:	1a000006 	bne	80f8 <frexp+0x64>
    80dc:	e3a02000 	mov	r2, #0
    80e0:	e59f304c 	ldr	r3, [pc, #76]	; 8134 <frexp+0xa0>
    80e4:	eb000c74 	bl	b2bc <__aeabi_dmul>
    80e8:	e3e0c035 	mvn	ip, #53	; 0x35
    80ec:	e1a04000 	mov	r4, r0
    80f0:	e1a02001 	mov	r2, r1
    80f4:	e3c13102 	bic	r3, r1, #-2147483648	; 0x80000000
    80f8:	e1a03a43 	asr	r3, r3, #20
    80fc:	e2433fff 	sub	r3, r3, #1020	; 0x3fc
    8100:	e3c2247f 	bic	r2, r2, #2130706432	; 0x7f000000
    8104:	e2433002 	sub	r3, r3, #2
    8108:	e3c2260f 	bic	r2, r2, #15728640	; 0xf00000
    810c:	e083300c 	add	r3, r3, ip
    8110:	e38255ff 	orr	r5, r2, #1069547520	; 0x3fc00000
    8114:	e5863000 	str	r3, [r6]
    8118:	e3855602 	orr	r5, r5, #2097152	; 0x200000
    811c:	e1a00004 	mov	r0, r4
    8120:	e1a01005 	mov	r1, r5
    8124:	e8bd4070 	pop	{r4, r5, r6, lr}
    8128:	e12fff1e 	bx	lr
    812c:	7fefffff 	.word	0x7fefffff
    8130:	7ff00000 	.word	0x7ff00000
    8134:	43500000 	.word	0x43500000

00008138 <_sbrk_r>:
    8138:	e3a02000 	mov	r2, #0
    813c:	e92d4070 	push	{r4, r5, r6, lr}
    8140:	e59f5030 	ldr	r5, [pc, #48]	; 8178 <_sbrk_r+0x40>
    8144:	e1a04000 	mov	r4, r0
    8148:	e1a00001 	mov	r0, r1
    814c:	e5852000 	str	r2, [r5]
    8150:	eb000e8f 	bl	bb94 <_sbrk>
    8154:	e3700001 	cmn	r0, #1
    8158:	0a000001 	beq	8164 <_sbrk_r+0x2c>
    815c:	e8bd4070 	pop	{r4, r5, r6, lr}
    8160:	e12fff1e 	bx	lr
    8164:	e5953000 	ldr	r3, [r5]
    8168:	e3530000 	cmp	r3, #0
    816c:	15843000 	strne	r3, [r4]
    8170:	e8bd4070 	pop	{r4, r5, r6, lr}
    8174:	e12fff1e 	bx	lr
    8178:	20000f34 	.word	0x20000f34

0000817c <__sread>:
    817c:	e92d4010 	push	{r4, lr}
    8180:	e1a04001 	mov	r4, r1
    8184:	e1d110fe 	ldrsh	r1, [r1, #14]
    8188:	eb00091c 	bl	a600 <_read_r>
    818c:	e3500000 	cmp	r0, #0
    8190:	a5943050 	ldrge	r3, [r4, #80]	; 0x50
    8194:	b1d430bc 	ldrhlt	r3, [r4, #12]
    8198:	a0833000 	addge	r3, r3, r0
    819c:	b3c33a01 	biclt	r3, r3, #4096	; 0x1000
    81a0:	a5843050 	strge	r3, [r4, #80]	; 0x50
    81a4:	b1c430bc 	strhlt	r3, [r4, #12]
    81a8:	e8bd4010 	pop	{r4, lr}
    81ac:	e12fff1e 	bx	lr

000081b0 <__swrite>:
    81b0:	e92d41f0 	push	{r4, r5, r6, r7, r8, lr}
    81b4:	e1a04001 	mov	r4, r1
    81b8:	e1d110fc 	ldrsh	r1, [r1, #12]
    81bc:	e3110c01 	tst	r1, #256	; 0x100
    81c0:	e1a05000 	mov	r5, r0
    81c4:	e1a06002 	mov	r6, r2
    81c8:	e1a07003 	mov	r7, r3
    81cc:	1a000008 	bne	81f4 <__swrite+0x44>
    81d0:	e3c11a01 	bic	r1, r1, #4096	; 0x1000
    81d4:	e1c410bc 	strh	r1, [r4, #12]
    81d8:	e1a03007 	mov	r3, r7
    81dc:	e1a02006 	mov	r2, r6
    81e0:	e1a00005 	mov	r0, r5
    81e4:	e1d410fe 	ldrsh	r1, [r4, #14]
    81e8:	eb0005cb 	bl	991c <_write_r>
    81ec:	e8bd41f0 	pop	{r4, r5, r6, r7, r8, lr}
    81f0:	e12fff1e 	bx	lr
    81f4:	e1d410fe 	ldrsh	r1, [r4, #14]
    81f8:	e3a03002 	mov	r3, #2
    81fc:	e3a02000 	mov	r2, #0
    8200:	eb000885 	bl	a41c <_lseek_r>
    8204:	e1d410fc 	ldrsh	r1, [r4, #12]
    8208:	eafffff0 	b	81d0 <__swrite+0x20>

0000820c <__sseek>:
    820c:	e92d4010 	push	{r4, lr}
    8210:	e1a04001 	mov	r4, r1
    8214:	e1d110fe 	ldrsh	r1, [r1, #14]
    8218:	eb00087f 	bl	a41c <_lseek_r>
    821c:	e1d430bc 	ldrh	r3, [r4, #12]
    8220:	e3700001 	cmn	r0, #1
    8224:	03c33a01 	biceq	r3, r3, #4096	; 0x1000
    8228:	13833a01 	orrne	r3, r3, #4096	; 0x1000
    822c:	15840050 	strne	r0, [r4, #80]	; 0x50
    8230:	e1c430bc 	strh	r3, [r4, #12]
    8234:	e8bd4010 	pop	{r4, lr}
    8238:	e12fff1e 	bx	lr

0000823c <__sclose>:
    823c:	e92d4010 	push	{r4, lr}
    8240:	e1d110fe 	ldrsh	r1, [r1, #14]
    8244:	eb000633 	bl	9b18 <_close_r>
    8248:	e8bd4010 	pop	{r4, lr}
    824c:	e12fff1e 	bx	lr

00008250 <strlen>:
    8250:	e3c01003 	bic	r1, r0, #3
    8254:	e2100003 	ands	r0, r0, #3
    8258:	e2600000 	rsb	r0, r0, #0
    825c:	e4913004 	ldr	r3, [r1], #4
    8260:	e280c004 	add	ip, r0, #4
    8264:	e1a0c18c 	lsl	ip, ip, #3
    8268:	e3e02000 	mvn	r2, #0
    826c:	11833c32 	orrne	r3, r3, r2, lsr ip
    8270:	e3a0c001 	mov	ip, #1
    8274:	e18cc40c 	orr	ip, ip, ip, lsl #8
    8278:	e18cc80c 	orr	ip, ip, ip, lsl #16
    827c:	e043200c 	sub	r2, r3, ip
    8280:	e1c22003 	bic	r2, r2, r3
    8284:	e012238c 	ands	r2, r2, ip, lsl #7
    8288:	04913004 	ldreq	r3, [r1], #4
    828c:	02800004 	addeq	r0, r0, #4
    8290:	0afffff9 	beq	827c <strlen+0x2c>
    8294:	e31300ff 	tst	r3, #255	; 0xff
    8298:	12800001 	addne	r0, r0, #1
    829c:	13130cff 	tstne	r3, #65280	; 0xff00
    82a0:	12800001 	addne	r0, r0, #1
    82a4:	131308ff 	tstne	r3, #16711680	; 0xff0000
    82a8:	12800001 	addne	r0, r0, #1
    82ac:	e12fff1e 	bx	lr

000082b0 <strncpy>:
    82b0:	e1803001 	orr	r3, r0, r1
    82b4:	e3520003 	cmp	r2, #3
    82b8:	e2033003 	and	r3, r3, #3
    82bc:	93a0c000 	movls	ip, #0
    82c0:	83a0c001 	movhi	ip, #1
    82c4:	e3530000 	cmp	r3, #0
    82c8:	13a0c000 	movne	ip, #0
    82cc:	e35c0000 	cmp	ip, #0
    82d0:	01a0c000 	moveq	ip, r0
    82d4:	e92d4070 	push	{r4, r5, r6, lr}
    82d8:	1a000015 	bne	8334 <strncpy+0x84>
    82dc:	e241e001 	sub	lr, r1, #1
    82e0:	ea000007 	b	8304 <strncpy+0x54>
    82e4:	e1a0300c 	mov	r3, ip
    82e8:	e5fe1001 	ldrb	r1, [lr, #1]!
    82ec:	e3510000 	cmp	r1, #0
    82f0:	e4c31001 	strb	r1, [r3], #1
    82f4:	e2424001 	sub	r4, r2, #1
    82f8:	0a000005 	beq	8314 <strncpy+0x64>
    82fc:	e1a0c003 	mov	ip, r3
    8300:	e1a02004 	mov	r2, r4
    8304:	e3520000 	cmp	r2, #0
    8308:	1afffff5 	bne	82e4 <strncpy+0x34>
    830c:	e8bd4070 	pop	{r4, r5, r6, lr}
    8310:	e12fff1e 	bx	lr
    8314:	e3540000 	cmp	r4, #0
    8318:	108c2002 	addne	r2, ip, r2
    831c:	0afffffa 	beq	830c <strncpy+0x5c>
    8320:	e4c31001 	strb	r1, [r3], #1
    8324:	e1530002 	cmp	r3, r2
    8328:	1afffffc 	bne	8320 <strncpy+0x70>
    832c:	e8bd4070 	pop	{r4, r5, r6, lr}
    8330:	e12fff1e 	bx	lr
    8334:	e1a03001 	mov	r3, r1
    8338:	e1a0c000 	mov	ip, r0
    833c:	e59f6030 	ldr	r6, [pc, #48]	; 8374 <strncpy+0xc4>
    8340:	e59f5030 	ldr	r5, [pc, #48]	; 8378 <strncpy+0xc8>
    8344:	e1a01003 	mov	r1, r3
    8348:	e4934004 	ldr	r4, [r3], #4
    834c:	e084e006 	add	lr, r4, r6
    8350:	e1cee004 	bic	lr, lr, r4
    8354:	e11e0005 	tst	lr, r5
    8358:	1affffdf 	bne	82dc <strncpy+0x2c>
    835c:	e2422004 	sub	r2, r2, #4
    8360:	e3520003 	cmp	r2, #3
    8364:	e1a01003 	mov	r1, r3
    8368:	e48c4004 	str	r4, [ip], #4
    836c:	8afffff4 	bhi	8344 <strncpy+0x94>
    8370:	eaffffd9 	b	82dc <strncpy+0x2c>
    8374:	fefefeff 	.word	0xfefefeff
    8378:	80808080 	.word	0x80808080

0000837c <__sprint_r.part.0>:
    837c:	e92d4ff8 	push	{r3, r4, r5, r6, r7, r8, r9, sl, fp, lr}
    8380:	e5913064 	ldr	r3, [r1, #100]	; 0x64
    8384:	e3130a02 	tst	r3, #8192	; 0x2000
    8388:	e1a08002 	mov	r8, r2
    838c:	0a000023 	beq	8420 <__sprint_r.part.0+0xa4>
    8390:	e5923008 	ldr	r3, [r2, #8]
    8394:	e5929000 	ldr	r9, [r2]
    8398:	e3530000 	cmp	r3, #0
    839c:	11a0b001 	movne	fp, r1
    83a0:	11a06000 	movne	r6, r0
    83a4:	12899008 	addne	r9, r9, #8
    83a8:	0a00001a 	beq	8418 <__sprint_r.part.0+0x9c>
    83ac:	e9190420 	ldmdb	r9, {r5, sl}
    83b0:	e1b0712a 	lsrs	r7, sl, #2
    83b4:	0a000011 	beq	8400 <__sprint_r.part.0+0x84>
    83b8:	e3a04000 	mov	r4, #0
    83bc:	e2455004 	sub	r5, r5, #4
    83c0:	ea000001 	b	83cc <__sprint_r.part.0+0x50>
    83c4:	e1570004 	cmp	r7, r4
    83c8:	0a00000b 	beq	83fc <__sprint_r.part.0+0x80>
    83cc:	e1a0200b 	mov	r2, fp
    83d0:	e1a00006 	mov	r0, r6
    83d4:	e5b51004 	ldr	r1, [r5, #4]!
    83d8:	eb00068c 	bl	9e10 <_fputwc_r>
    83dc:	e3700001 	cmn	r0, #1
    83e0:	e2844001 	add	r4, r4, #1
    83e4:	1afffff6 	bne	83c4 <__sprint_r.part.0+0x48>
    83e8:	e3a03000 	mov	r3, #0
    83ec:	e5883008 	str	r3, [r8, #8]
    83f0:	e5883004 	str	r3, [r8, #4]
    83f4:	e8bd4ff8 	pop	{r3, r4, r5, r6, r7, r8, r9, sl, fp, lr}
    83f8:	e12fff1e 	bx	lr
    83fc:	e5983008 	ldr	r3, [r8, #8]
    8400:	e3caa003 	bic	sl, sl, #3
    8404:	e043300a 	sub	r3, r3, sl
    8408:	e3530000 	cmp	r3, #0
    840c:	e5883008 	str	r3, [r8, #8]
    8410:	e2899008 	add	r9, r9, #8
    8414:	1affffe4 	bne	83ac <__sprint_r.part.0+0x30>
    8418:	e3a00000 	mov	r0, #0
    841c:	eafffff1 	b	83e8 <__sprint_r.part.0+0x6c>
    8420:	eb0006b9 	bl	9f0c <__sfvwrite_r>
    8424:	eaffffef 	b	83e8 <__sprint_r.part.0+0x6c>

00008428 <__sprint_r>:
    8428:	e592c008 	ldr	ip, [r2, #8]
    842c:	e35c0000 	cmp	ip, #0
    8430:	1affffd1 	bne	837c <__sprint_r.part.0>
    8434:	e1a0000c 	mov	r0, ip
    8438:	e582c004 	str	ip, [r2, #4]
    843c:	e12fff1e 	bx	lr

00008440 <_vfiprintf_r>:
    8440:	e92d4ff0 	push	{r4, r5, r6, r7, r8, r9, sl, fp, lr}
    8444:	e1a04003 	mov	r4, r3
    8448:	e24dd0ec 	sub	sp, sp, #236	; 0xec
    844c:	e2503000 	subs	r3, r0, #0
    8450:	e1a0b001 	mov	fp, r1
    8454:	e1a07002 	mov	r7, r2
    8458:	e58d300c 	str	r3, [sp, #12]
    845c:	e58d4010 	str	r4, [sp, #16]
    8460:	0a000002 	beq	8470 <_vfiprintf_r+0x30>
    8464:	e5933038 	ldr	r3, [r3, #56]	; 0x38
    8468:	e3530000 	cmp	r3, #0
    846c:	0a0001de 	beq	8bec <_vfiprintf_r+0x7ac>
    8470:	e59b3064 	ldr	r3, [fp, #100]	; 0x64
    8474:	e3130001 	tst	r3, #1
    8478:	e1db10fc 	ldrsh	r1, [fp, #12]
    847c:	1a000136 	bne	895c <_vfiprintf_r+0x51c>
    8480:	e1a02801 	lsl	r2, r1, #16
    8484:	e3110c02 	tst	r1, #512	; 0x200
    8488:	e1a02822 	lsr	r2, r2, #16
    848c:	0a00012f 	beq	8950 <_vfiprintf_r+0x510>
    8490:	e3120a02 	tst	r2, #8192	; 0x2000
    8494:	1a000006 	bne	84b4 <_vfiprintf_r+0x74>
    8498:	e59b3064 	ldr	r3, [fp, #100]	; 0x64
    849c:	e3812a02 	orr	r2, r1, #8192	; 0x2000
    84a0:	e3c33a02 	bic	r3, r3, #8192	; 0x2000
    84a4:	e1cb20bc 	strh	r2, [fp, #12]
    84a8:	e58b3064 	str	r3, [fp, #100]	; 0x64
    84ac:	e1a02802 	lsl	r2, r2, #16
    84b0:	e1a02822 	lsr	r2, r2, #16
    84b4:	e3120008 	tst	r2, #8
    84b8:	0a0000d0 	beq	8800 <_vfiprintf_r+0x3c0>
    84bc:	e59b3010 	ldr	r3, [fp, #16]
    84c0:	e3530000 	cmp	r3, #0
    84c4:	0a0000cd 	beq	8800 <_vfiprintf_r+0x3c0>
    84c8:	e202301a 	and	r3, r2, #26
    84cc:	e353000a 	cmp	r3, #10
    84d0:	0a0000d3 	beq	8824 <_vfiprintf_r+0x3e4>
    84d4:	e28d3044 	add	r3, sp, #68	; 0x44
    84d8:	e58d3038 	str	r3, [sp, #56]	; 0x38
    84dc:	e3a03000 	mov	r3, #0
    84e0:	e1a0a00b 	mov	sl, fp
    84e4:	e58d3040 	str	r3, [sp, #64]	; 0x40
    84e8:	e58d303c 	str	r3, [sp, #60]	; 0x3c
    84ec:	e58d301c 	str	r3, [sp, #28]
    84f0:	e58d3020 	str	r3, [sp, #32]
    84f4:	e58d3028 	str	r3, [sp, #40]	; 0x28
    84f8:	e58d3024 	str	r3, [sp, #36]	; 0x24
    84fc:	e58d3008 	str	r3, [sp, #8]
    8500:	e28d9044 	add	r9, sp, #68	; 0x44
    8504:	e5d73000 	ldrb	r3, [r7]
    8508:	e3530025 	cmp	r3, #37	; 0x25
    850c:	13530000 	cmpne	r3, #0
    8510:	e1a05007 	mov	r5, r7
    8514:	0a000020 	beq	859c <_vfiprintf_r+0x15c>
    8518:	e1a04005 	mov	r4, r5
    851c:	e5f53001 	ldrb	r3, [r5, #1]!
    8520:	e3530000 	cmp	r3, #0
    8524:	13530025 	cmpne	r3, #37	; 0x25
    8528:	1afffffa 	bne	8518 <_vfiprintf_r+0xd8>
    852c:	e0556007 	subs	r6, r5, r7
    8530:	0a000019 	beq	859c <_vfiprintf_r+0x15c>
    8534:	e59d303c 	ldr	r3, [sp, #60]	; 0x3c
    8538:	e2833001 	add	r3, r3, #1
    853c:	e3530007 	cmp	r3, #7
    8540:	e58d303c 	str	r3, [sp, #60]	; 0x3c
    8544:	e59d3040 	ldr	r3, [sp, #64]	; 0x40
    8548:	e0863003 	add	r3, r6, r3
    854c:	e5897000 	str	r7, [r9]
    8550:	e5896004 	str	r6, [r9, #4]
    8554:	e58d3040 	str	r3, [sp, #64]	; 0x40
    8558:	d2899008 	addle	r9, r9, #8
    855c:	da00000a 	ble	858c <_vfiprintf_r+0x14c>
    8560:	e3530000 	cmp	r3, #0
    8564:	058d303c 	streq	r3, [sp, #60]	; 0x3c
    8568:	028d9044 	addeq	r9, sp, #68	; 0x44
    856c:	0a000006 	beq	858c <_vfiprintf_r+0x14c>
    8570:	e1a0100a 	mov	r1, sl
    8574:	e59d000c 	ldr	r0, [sp, #12]
    8578:	e28d2038 	add	r2, sp, #56	; 0x38
    857c:	ebffff7e 	bl	837c <__sprint_r.part.0>
    8580:	e3500000 	cmp	r0, #0
    8584:	1a0000e6 	bne	8924 <_vfiprintf_r+0x4e4>
    8588:	e28d9044 	add	r9, sp, #68	; 0x44
    858c:	e59d3008 	ldr	r3, [sp, #8]
    8590:	e0833006 	add	r3, r3, r6
    8594:	e58d3008 	str	r3, [sp, #8]
    8598:	e5d43001 	ldrb	r3, [r4, #1]
    859c:	e3530000 	cmp	r3, #0
    85a0:	0a00043b 	beq	9694 <_vfiprintf_r+0x1254>
    85a4:	e3a02000 	mov	r2, #0
    85a8:	e3e04000 	mvn	r4, #0
    85ac:	e1a0b002 	mov	fp, r2
    85b0:	e1a06004 	mov	r6, r4
    85b4:	e5d53001 	ldrb	r3, [r5, #1]
    85b8:	e5cd2033 	strb	r2, [sp, #51]	; 0x33
    85bc:	e58d2004 	str	r2, [sp, #4]
    85c0:	e2857001 	add	r7, r5, #1
    85c4:	e2877001 	add	r7, r7, #1
    85c8:	e2432020 	sub	r2, r3, #32
    85cc:	e352005a 	cmp	r2, #90	; 0x5a
    85d0:	979ff102 	ldrls	pc, [pc, r2, lsl #2]
    85d4:	ea0000e3 	b	8968 <_vfiprintf_r+0x528>
    85d8:	00008ce4 	.word	0x00008ce4
    85dc:	00008968 	.word	0x00008968
    85e0:	00008968 	.word	0x00008968
    85e4:	00008cd8 	.word	0x00008cd8
    85e8:	00008968 	.word	0x00008968
    85ec:	00008968 	.word	0x00008968
    85f0:	00008968 	.word	0x00008968
    85f4:	00008d00 	.word	0x00008d00
    85f8:	00008968 	.word	0x00008968
    85fc:	00008968 	.word	0x00008968
    8600:	0000876c 	.word	0x0000876c
    8604:	00008c0c 	.word	0x00008c0c
    8608:	00008968 	.word	0x00008968
    860c:	00008c00 	.word	0x00008c00
    8610:	00008c28 	.word	0x00008c28
    8614:	00008968 	.word	0x00008968
    8618:	00008c1c 	.word	0x00008c1c
    861c:	00008744 	.word	0x00008744
    8620:	00008744 	.word	0x00008744
    8624:	00008744 	.word	0x00008744
    8628:	00008744 	.word	0x00008744
    862c:	00008744 	.word	0x00008744
    8630:	00008744 	.word	0x00008744
    8634:	00008744 	.word	0x00008744
    8638:	00008744 	.word	0x00008744
    863c:	00008744 	.word	0x00008744
    8640:	00008968 	.word	0x00008968
    8644:	00008968 	.word	0x00008968
    8648:	00008968 	.word	0x00008968
    864c:	00008968 	.word	0x00008968
    8650:	00008968 	.word	0x00008968
    8654:	00008968 	.word	0x00008968
    8658:	00008968 	.word	0x00008968
    865c:	00008968 	.word	0x00008968
    8660:	00008968 	.word	0x00008968
    8664:	00008bc4 	.word	0x00008bc4
    8668:	00008798 	.word	0x00008798
    866c:	00008968 	.word	0x00008968
    8670:	00008968 	.word	0x00008968
    8674:	00008968 	.word	0x00008968
    8678:	00008968 	.word	0x00008968
    867c:	00008968 	.word	0x00008968
    8680:	00008968 	.word	0x00008968
    8684:	00008968 	.word	0x00008968
    8688:	00008968 	.word	0x00008968
    868c:	00008968 	.word	0x00008968
    8690:	00008968 	.word	0x00008968
    8694:	00008860 	.word	0x00008860
    8698:	00008968 	.word	0x00008968
    869c:	00008968 	.word	0x00008968
    86a0:	00008968 	.word	0x00008968
    86a4:	00008b78 	.word	0x00008b78
    86a8:	00008968 	.word	0x00008968
    86ac:	00008ca0 	.word	0x00008ca0
    86b0:	00008968 	.word	0x00008968
    86b4:	00008968 	.word	0x00008968
    86b8:	000094b0 	.word	0x000094b0
    86bc:	00008968 	.word	0x00008968
    86c0:	00008968 	.word	0x00008968
    86c4:	00008968 	.word	0x00008968
    86c8:	00008968 	.word	0x00008968
    86cc:	00008968 	.word	0x00008968
    86d0:	00008968 	.word	0x00008968
    86d4:	00008968 	.word	0x00008968
    86d8:	00008968 	.word	0x00008968
    86dc:	00008968 	.word	0x00008968
    86e0:	00008968 	.word	0x00008968
    86e4:	00008bc4 	.word	0x00008bc4
    86e8:	0000879c 	.word	0x0000879c
    86ec:	00008968 	.word	0x00008968
    86f0:	00008968 	.word	0x00008968
    86f4:	00008968 	.word	0x00008968
    86f8:	00008c84 	.word	0x00008c84
    86fc:	0000879c 	.word	0x0000879c
    8700:	0000878c 	.word	0x0000878c
    8704:	00008968 	.word	0x00008968
    8708:	00008c68 	.word	0x00008c68
    870c:	00008968 	.word	0x00008968
    8710:	00008d98 	.word	0x00008d98
    8714:	00008864 	.word	0x00008864
    8718:	00008d60 	.word	0x00008d60
    871c:	0000878c 	.word	0x0000878c
    8720:	00008968 	.word	0x00008968
    8724:	00008b78 	.word	0x00008b78
    8728:	00008784 	.word	0x00008784
    872c:	000094a8 	.word	0x000094a8
    8730:	00008968 	.word	0x00008968
    8734:	00008968 	.word	0x00008968
    8738:	0000950c 	.word	0x0000950c
    873c:	00008968 	.word	0x00008968
    8740:	00008784 	.word	0x00008784
    8744:	e3a01000 	mov	r1, #0
    8748:	e2432030 	sub	r2, r3, #48	; 0x30
    874c:	e4d73001 	ldrb	r3, [r7], #1
    8750:	e0811101 	add	r1, r1, r1, lsl #2
    8754:	e0821081 	add	r1, r2, r1, lsl #1
    8758:	e2432030 	sub	r2, r3, #48	; 0x30
    875c:	e3520009 	cmp	r2, #9
    8760:	9afffff9 	bls	874c <_vfiprintf_r+0x30c>
    8764:	e58d1004 	str	r1, [sp, #4]
    8768:	eaffff96 	b	85c8 <_vfiprintf_r+0x188>
    876c:	e59d3010 	ldr	r3, [sp, #16]
    8770:	e4932004 	ldr	r2, [r3], #4
    8774:	e3520000 	cmp	r2, #0
    8778:	e58d2004 	str	r2, [sp, #4]
    877c:	e58d3010 	str	r3, [sp, #16]
    8780:	ba00011b 	blt	8bf4 <_vfiprintf_r+0x7b4>
    8784:	e5d73000 	ldrb	r3, [r7]
    8788:	eaffff8d 	b	85c4 <_vfiprintf_r+0x184>
    878c:	e5d73000 	ldrb	r3, [r7]
    8790:	e38bb020 	orr	fp, fp, #32
    8794:	eaffff8a 	b	85c4 <_vfiprintf_r+0x184>
    8798:	e38bb010 	orr	fp, fp, #16
    879c:	e31b0020 	tst	fp, #32
    87a0:	0a0000dd 	beq	8b1c <_vfiprintf_r+0x6dc>
    87a4:	e59d3010 	ldr	r3, [sp, #16]
    87a8:	e2835007 	add	r5, r3, #7
    87ac:	e3c55007 	bic	r5, r5, #7
    87b0:	e1a02005 	mov	r2, r5
    87b4:	e5953004 	ldr	r3, [r5, #4]
    87b8:	e1a06003 	mov	r6, r3
    87bc:	e4925008 	ldr	r5, [r2], #8
    87c0:	e58d2010 	str	r2, [sp, #16]
    87c4:	e3530000 	cmp	r3, #0
    87c8:	ba000307 	blt	93ec <_vfiprintf_r+0xfac>
    87cc:	e3740001 	cmn	r4, #1
    87d0:	0a0002e5 	beq	936c <_vfiprintf_r+0xf2c>
    87d4:	e1853006 	orr	r3, r5, r6
    87d8:	e3530000 	cmp	r3, #0
    87dc:	03540000 	cmpeq	r4, #0
    87e0:	e3cbb080 	bic	fp, fp, #128	; 0x80
    87e4:	13a03001 	movne	r3, #1
    87e8:	03a03000 	moveq	r3, #0
    87ec:	1a0002de 	bne	936c <_vfiprintf_r+0xf2c>
    87f0:	e1a04003 	mov	r4, r3
    87f4:	e58d3000 	str	r3, [sp]
    87f8:	e28d80e8 	add	r8, sp, #232	; 0xe8
    87fc:	ea00003a 	b	88ec <_vfiprintf_r+0x4ac>
    8800:	e1a0100b 	mov	r1, fp
    8804:	e59d000c 	ldr	r0, [sp, #12]
    8808:	ebffef5b 	bl	457c <__swsetup_r>
    880c:	e3500000 	cmp	r0, #0
    8810:	1a0003f5 	bne	97ec <_vfiprintf_r+0x13ac>
    8814:	e1db20bc 	ldrh	r2, [fp, #12]
    8818:	e202301a 	and	r3, r2, #26
    881c:	e353000a 	cmp	r3, #10
    8820:	1affff2b 	bne	84d4 <_vfiprintf_r+0x94>
    8824:	e1db30fe 	ldrsh	r3, [fp, #14]
    8828:	e3530000 	cmp	r3, #0
    882c:	baffff28 	blt	84d4 <_vfiprintf_r+0x94>
    8830:	e59b3064 	ldr	r3, [fp, #100]	; 0x64
    8834:	e3130001 	tst	r3, #1
    8838:	1a000001 	bne	8844 <_vfiprintf_r+0x404>
    883c:	e3120c02 	tst	r2, #512	; 0x200
    8840:	0a0003c2 	beq	9750 <_vfiprintf_r+0x1310>
    8844:	e1a03004 	mov	r3, r4
    8848:	e1a02007 	mov	r2, r7
    884c:	e1a0100b 	mov	r1, fp
    8850:	e59d000c 	ldr	r0, [sp, #12]
    8854:	e28dd0ec 	add	sp, sp, #236	; 0xec
    8858:	e8bd4ff0 	pop	{r4, r5, r6, r7, r8, r9, sl, fp, lr}
    885c:	ea0003f9 	b	9848 <__sbprintf>
    8860:	e38bb010 	orr	fp, fp, #16
    8864:	e21b6020 	ands	r6, fp, #32
    8868:	0a0000b7 	beq	8b4c <_vfiprintf_r+0x70c>
    886c:	e59d3010 	ldr	r3, [sp, #16]
    8870:	e2835007 	add	r5, r3, #7
    8874:	e3c55007 	bic	r5, r5, #7
    8878:	e1a03005 	mov	r3, r5
    887c:	e5956004 	ldr	r6, [r5, #4]
    8880:	e4935008 	ldr	r5, [r3], #8
    8884:	e58d3010 	str	r3, [sp, #16]
    8888:	e3cb3b01 	bic	r3, fp, #1024	; 0x400
    888c:	e58d3000 	str	r3, [sp]
    8890:	e3a03000 	mov	r3, #0
    8894:	e3a02000 	mov	r2, #0
    8898:	e5cd2033 	strb	r2, [sp, #51]	; 0x33
    889c:	e3740001 	cmn	r4, #1
    88a0:	0a000154 	beq	8df8 <_vfiprintf_r+0x9b8>
    88a4:	e1852006 	orr	r2, r5, r6
    88a8:	e3520000 	cmp	r2, #0
    88ac:	03540000 	cmpeq	r4, #0
    88b0:	e59d1000 	ldr	r1, [sp]
    88b4:	13a02001 	movne	r2, #1
    88b8:	03a02000 	moveq	r2, #0
    88bc:	e3c1b080 	bic	fp, r1, #128	; 0x80
    88c0:	1a00014b 	bne	8df4 <_vfiprintf_r+0x9b4>
    88c4:	e3530000 	cmp	r3, #0
    88c8:	1a0002a3 	bne	935c <_vfiprintf_r+0xf1c>
    88cc:	e59d2000 	ldr	r2, [sp]
    88d0:	e2122001 	ands	r2, r2, #1
    88d4:	e1a04003 	mov	r4, r3
    88d8:	e58d2000 	str	r2, [sp]
    88dc:	028d80e8 	addeq	r8, sp, #232	; 0xe8
    88e0:	13a03030 	movne	r3, #48	; 0x30
    88e4:	15cd30e7 	strbne	r3, [sp, #231]	; 0xe7
    88e8:	128d80e7 	addne	r8, sp, #231	; 0xe7
    88ec:	e59d2000 	ldr	r2, [sp]
    88f0:	e1540002 	cmp	r4, r2
    88f4:	a1a06004 	movge	r6, r4
    88f8:	b1a06002 	movlt	r6, r2
    88fc:	e5dd3033 	ldrb	r3, [sp, #51]	; 0x33
    8900:	e3530000 	cmp	r3, #0
    8904:	12866001 	addne	r6, r6, #1
    8908:	ea00001f 	b	898c <_vfiprintf_r+0x54c>
    890c:	e1a0100a 	mov	r1, sl
    8910:	e59d000c 	ldr	r0, [sp, #12]
    8914:	e28d2038 	add	r2, sp, #56	; 0x38
    8918:	ebfffe97 	bl	837c <__sprint_r.part.0>
    891c:	e3500000 	cmp	r0, #0
    8920:	0a000073 	beq	8af4 <_vfiprintf_r+0x6b4>
    8924:	e1a0b00a 	mov	fp, sl
    8928:	e59b3064 	ldr	r3, [fp, #100]	; 0x64
    892c:	e3130001 	tst	r3, #1
    8930:	e1db30bc 	ldrh	r3, [fp, #12]
    8934:	0a000072 	beq	8b04 <_vfiprintf_r+0x6c4>
    8938:	e3130040 	tst	r3, #64	; 0x40
    893c:	1a0003b1 	bne	9808 <_vfiprintf_r+0x13c8>
    8940:	e59d0008 	ldr	r0, [sp, #8]
    8944:	e28dd0ec 	add	sp, sp, #236	; 0xec
    8948:	e8bd4ff0 	pop	{r4, r5, r6, r7, r8, r9, sl, fp, lr}
    894c:	e12fff1e 	bx	lr
    8950:	e59b0058 	ldr	r0, [fp, #88]	; 0x58
    8954:	ebfff85a 	bl	6ac4 <__retarget_lock_acquire_recursive>
    8958:	e1db10fc 	ldrsh	r1, [fp, #12]
    895c:	e1a02801 	lsl	r2, r1, #16
    8960:	e1a02822 	lsr	r2, r2, #16
    8964:	eafffec9 	b	8490 <_vfiprintf_r+0x50>
    8968:	e3530000 	cmp	r3, #0
    896c:	0a000348 	beq	9694 <_vfiprintf_r+0x1254>
    8970:	e3a06001 	mov	r6, #1
    8974:	e5cd3084 	strb	r3, [sp, #132]	; 0x84
    8978:	e3a03000 	mov	r3, #0
    897c:	e58d6000 	str	r6, [sp]
    8980:	e5cd3033 	strb	r3, [sp, #51]	; 0x33
    8984:	e28d8084 	add	r8, sp, #132	; 0x84
    8988:	e3a04000 	mov	r4, #0
    898c:	e21b3002 	ands	r3, fp, #2
    8990:	e58d3014 	str	r3, [sp, #20]
    8994:	12866002 	addne	r6, r6, #2
    8998:	e21b3084 	ands	r3, fp, #132	; 0x84
    899c:	e58d3018 	str	r3, [sp, #24]
    89a0:	1a000003 	bne	89b4 <_vfiprintf_r+0x574>
    89a4:	e59d3004 	ldr	r3, [sp, #4]
    89a8:	e0435006 	sub	r5, r3, r6
    89ac:	e3550000 	cmp	r5, #0
    89b0:	ca0001de 	bgt	9130 <_vfiprintf_r+0xcf0>
    89b4:	e28d103c 	add	r1, sp, #60	; 0x3c
    89b8:	e8910006 	ldm	r1, {r1, r2}
    89bc:	e2810001 	add	r0, r1, #1
    89c0:	e5ddc033 	ldrb	ip, [sp, #51]	; 0x33
    89c4:	e35c0000 	cmp	ip, #0
    89c8:	0a00000b 	beq	89fc <_vfiprintf_r+0x5bc>
    89cc:	e3a01001 	mov	r1, #1
    89d0:	e2822001 	add	r2, r2, #1
    89d4:	e28dc033 	add	ip, sp, #51	; 0x33
    89d8:	e3500007 	cmp	r0, #7
    89dc:	e58d2040 	str	r2, [sp, #64]	; 0x40
    89e0:	e58d003c 	str	r0, [sp, #60]	; 0x3c
    89e4:	e589c000 	str	ip, [r9]
    89e8:	e5891004 	str	r1, [r9, #4]
    89ec:	ca0001b8 	bgt	90d4 <_vfiprintf_r+0xc94>
    89f0:	e1a01000 	mov	r1, r0
    89f4:	e2899008 	add	r9, r9, #8
    89f8:	e2800001 	add	r0, r0, #1
    89fc:	e59d3014 	ldr	r3, [sp, #20]
    8a00:	e3530000 	cmp	r3, #0
    8a04:	0a000014 	beq	8a5c <_vfiprintf_r+0x61c>
    8a08:	e3a03002 	mov	r3, #2
    8a0c:	e2822002 	add	r2, r2, #2
    8a10:	e5893004 	str	r3, [r9, #4]
    8a14:	e3500007 	cmp	r0, #7
    8a18:	e28d3034 	add	r3, sp, #52	; 0x34
    8a1c:	e58d2040 	str	r2, [sp, #64]	; 0x40
    8a20:	e58d003c 	str	r0, [sp, #60]	; 0x3c
    8a24:	e5893000 	str	r3, [r9]
    8a28:	da0001bc 	ble	9120 <_vfiprintf_r+0xce0>
    8a2c:	e3520000 	cmp	r2, #0
    8a30:	0a00025b 	beq	93a4 <_vfiprintf_r+0xf64>
    8a34:	e1a0100a 	mov	r1, sl
    8a38:	e59d000c 	ldr	r0, [sp, #12]
    8a3c:	e28d2038 	add	r2, sp, #56	; 0x38
    8a40:	ebfffe4d 	bl	837c <__sprint_r.part.0>
    8a44:	e3500000 	cmp	r0, #0
    8a48:	1affffb5 	bne	8924 <_vfiprintf_r+0x4e4>
    8a4c:	e28d103c 	add	r1, sp, #60	; 0x3c
    8a50:	e8910006 	ldm	r1, {r1, r2}
    8a54:	e28d9044 	add	r9, sp, #68	; 0x44
    8a58:	e2810001 	add	r0, r1, #1
    8a5c:	e59d3018 	ldr	r3, [sp, #24]
    8a60:	e3530080 	cmp	r3, #128	; 0x80
    8a64:	0a00010f 	beq	8ea8 <_vfiprintf_r+0xa68>
    8a68:	e59d3000 	ldr	r3, [sp]
    8a6c:	e0444003 	sub	r4, r4, r3
    8a70:	e3540000 	cmp	r4, #0
    8a74:	ca000156 	bgt	8fd4 <_vfiprintf_r+0xb94>
    8a78:	e59d3000 	ldr	r3, [sp]
    8a7c:	e3500007 	cmp	r0, #7
    8a80:	e0832002 	add	r2, r3, r2
    8a84:	e5898000 	str	r8, [r9]
    8a88:	e5893004 	str	r3, [r9, #4]
    8a8c:	e58d003c 	str	r0, [sp, #60]	; 0x3c
    8a90:	e58d2040 	str	r2, [sp, #64]	; 0x40
    8a94:	da0000d4 	ble	8dec <_vfiprintf_r+0x9ac>
    8a98:	e3520000 	cmp	r2, #0
    8a9c:	0a0001e7 	beq	9240 <_vfiprintf_r+0xe00>
    8aa0:	e1a0100a 	mov	r1, sl
    8aa4:	e59d000c 	ldr	r0, [sp, #12]
    8aa8:	e28d2038 	add	r2, sp, #56	; 0x38
    8aac:	ebfffe32 	bl	837c <__sprint_r.part.0>
    8ab0:	e3500000 	cmp	r0, #0
    8ab4:	1affff9a 	bne	8924 <_vfiprintf_r+0x4e4>
    8ab8:	e59d2040 	ldr	r2, [sp, #64]	; 0x40
    8abc:	e28d9044 	add	r9, sp, #68	; 0x44
    8ac0:	e31b0004 	tst	fp, #4
    8ac4:	0a000003 	beq	8ad8 <_vfiprintf_r+0x698>
    8ac8:	e59d3004 	ldr	r3, [sp, #4]
    8acc:	e0434006 	sub	r4, r3, r6
    8ad0:	e3540000 	cmp	r4, #0
    8ad4:	ca0001e1 	bgt	9260 <_vfiprintf_r+0xe20>
    8ad8:	e99d000a 	ldmib	sp, {r1, r3}
    8adc:	e1510006 	cmp	r1, r6
    8ae0:	a0833001 	addge	r3, r3, r1
    8ae4:	b0833006 	addlt	r3, r3, r6
    8ae8:	e3520000 	cmp	r2, #0
    8aec:	e58d3008 	str	r3, [sp, #8]
    8af0:	1affff85 	bne	890c <_vfiprintf_r+0x4cc>
    8af4:	e3a03000 	mov	r3, #0
    8af8:	e28d9044 	add	r9, sp, #68	; 0x44
    8afc:	e58d303c 	str	r3, [sp, #60]	; 0x3c
    8b00:	eafffe7f 	b	8504 <_vfiprintf_r+0xc4>
    8b04:	e3130c02 	tst	r3, #512	; 0x200
    8b08:	1affff8a 	bne	8938 <_vfiprintf_r+0x4f8>
    8b0c:	e59b0058 	ldr	r0, [fp, #88]	; 0x58
    8b10:	ebfff7ec 	bl	6ac8 <__retarget_lock_release_recursive>
    8b14:	e1db30bc 	ldrh	r3, [fp, #12]
    8b18:	eaffff86 	b	8938 <_vfiprintf_r+0x4f8>
    8b1c:	e31b0010 	tst	fp, #16
    8b20:	1a000246 	bne	9440 <_vfiprintf_r+0x1000>
    8b24:	e31b0040 	tst	fp, #64	; 0x40
    8b28:	0a000242 	beq	9438 <_vfiprintf_r+0xff8>
    8b2c:	e59d5010 	ldr	r5, [sp, #16]
    8b30:	e4953004 	ldr	r3, [r5], #4
    8b34:	e1a03803 	lsl	r3, r3, #16
    8b38:	e1a06fc3 	asr	r6, r3, #31
    8b3c:	e58d5010 	str	r5, [sp, #16]
    8b40:	e1a05843 	asr	r5, r3, #16
    8b44:	e1a03006 	mov	r3, r6
    8b48:	eaffff1d 	b	87c4 <_vfiprintf_r+0x384>
    8b4c:	e21b3010 	ands	r3, fp, #16
    8b50:	1a000243 	bne	9464 <_vfiprintf_r+0x1024>
    8b54:	e21b2040 	ands	r2, fp, #64	; 0x40
    8b58:	0a00023f 	beq	945c <_vfiprintf_r+0x101c>
    8b5c:	e59d2010 	ldr	r2, [sp, #16]
    8b60:	e4925004 	ldr	r5, [r2], #4
    8b64:	e1a05805 	lsl	r5, r5, #16
    8b68:	e1a06003 	mov	r6, r3
    8b6c:	e58d2010 	str	r2, [sp, #16]
    8b70:	e1a05825 	lsr	r5, r5, #16
    8b74:	eaffff43 	b	8888 <_vfiprintf_r+0x448>
    8b78:	e3a06000 	mov	r6, #0
    8b7c:	e59d5010 	ldr	r5, [sp, #16]
    8b80:	e4958004 	ldr	r8, [r5], #4
    8b84:	e1580006 	cmp	r8, r6
    8b88:	e5cd6033 	strb	r6, [sp, #51]	; 0x33
    8b8c:	0a0002b9 	beq	9678 <_vfiprintf_r+0x1238>
    8b90:	e3740001 	cmn	r4, #1
    8b94:	0a00025f 	beq	9518 <_vfiprintf_r+0x10d8>
    8b98:	e1a02004 	mov	r2, r4
    8b9c:	e1a01006 	mov	r1, r6
    8ba0:	e1a00008 	mov	r0, r8
    8ba4:	ebfffa1d 	bl	7420 <memchr>
    8ba8:	e3500000 	cmp	r0, #0
    8bac:	0a0002fc 	beq	97a4 <_vfiprintf_r+0x1364>
    8bb0:	e0403008 	sub	r3, r0, r8
    8bb4:	e1a04006 	mov	r4, r6
    8bb8:	e58d5010 	str	r5, [sp, #16]
    8bbc:	e58d3000 	str	r3, [sp]
    8bc0:	eaffff49 	b	88ec <_vfiprintf_r+0x4ac>
    8bc4:	e3a03000 	mov	r3, #0
    8bc8:	e3a06001 	mov	r6, #1
    8bcc:	e59d5010 	ldr	r5, [sp, #16]
    8bd0:	e5cd3033 	strb	r3, [sp, #51]	; 0x33
    8bd4:	e4953004 	ldr	r3, [r5], #4
    8bd8:	e58d6000 	str	r6, [sp]
    8bdc:	e5cd3084 	strb	r3, [sp, #132]	; 0x84
    8be0:	e58d5010 	str	r5, [sp, #16]
    8be4:	e28d8084 	add	r8, sp, #132	; 0x84
    8be8:	eaffff66 	b	8988 <_vfiprintf_r+0x548>
    8bec:	ebfff616 	bl	644c <__sinit>
    8bf0:	eafffe1e 	b	8470 <_vfiprintf_r+0x30>
    8bf4:	e59d3004 	ldr	r3, [sp, #4]
    8bf8:	e2633000 	rsb	r3, r3, #0
    8bfc:	e58d3004 	str	r3, [sp, #4]
    8c00:	e5d73000 	ldrb	r3, [r7]
    8c04:	e38bb004 	orr	fp, fp, #4
    8c08:	eafffe6d 	b	85c4 <_vfiprintf_r+0x184>
    8c0c:	e3a0302b 	mov	r3, #43	; 0x2b
    8c10:	e5cd3033 	strb	r3, [sp, #51]	; 0x33
    8c14:	e5d73000 	ldrb	r3, [r7]
    8c18:	eafffe69 	b	85c4 <_vfiprintf_r+0x184>
    8c1c:	e5d73000 	ldrb	r3, [r7]
    8c20:	e38bb080 	orr	fp, fp, #128	; 0x80
    8c24:	eafffe66 	b	85c4 <_vfiprintf_r+0x184>
    8c28:	e1a01007 	mov	r1, r7
    8c2c:	e4d13001 	ldrb	r3, [r1], #1
    8c30:	e353002a 	cmp	r3, #42	; 0x2a
    8c34:	0a0002f6 	beq	9814 <_vfiprintf_r+0x13d4>
    8c38:	e2432030 	sub	r2, r3, #48	; 0x30
    8c3c:	e3520009 	cmp	r2, #9
    8c40:	e1a07001 	mov	r7, r1
    8c44:	e3a04000 	mov	r4, #0
    8c48:	8afffe5e 	bhi	85c8 <_vfiprintf_r+0x188>
    8c4c:	e4d73001 	ldrb	r3, [r7], #1
    8c50:	e0844104 	add	r4, r4, r4, lsl #2
    8c54:	e0824084 	add	r4, r2, r4, lsl #1
    8c58:	e2432030 	sub	r2, r3, #48	; 0x30
    8c5c:	e3520009 	cmp	r2, #9
    8c60:	9afffff9 	bls	8c4c <_vfiprintf_r+0x80c>
    8c64:	eafffe57 	b	85c8 <_vfiprintf_r+0x188>
    8c68:	e5d73000 	ldrb	r3, [r7]
    8c6c:	e353006c 	cmp	r3, #108	; 0x6c
    8c70:	05d73001 	ldrbeq	r3, [r7, #1]
    8c74:	038bb020 	orreq	fp, fp, #32
    8c78:	02877001 	addeq	r7, r7, #1
    8c7c:	138bb010 	orrne	fp, fp, #16
    8c80:	eafffe4f 	b	85c4 <_vfiprintf_r+0x184>
    8c84:	e5d73000 	ldrb	r3, [r7]
    8c88:	e3530068 	cmp	r3, #104	; 0x68
    8c8c:	05d73001 	ldrbeq	r3, [r7, #1]
    8c90:	038bbc02 	orreq	fp, fp, #512	; 0x200
    8c94:	02877001 	addeq	r7, r7, #1
    8c98:	138bb040 	orrne	fp, fp, #64	; 0x40
    8c9c:	eafffe48 	b	85c4 <_vfiprintf_r+0x184>
    8ca0:	e38b3010 	orr	r3, fp, #16
    8ca4:	e58d3000 	str	r3, [sp]
    8ca8:	e59d3000 	ldr	r3, [sp]
    8cac:	e2136020 	ands	r6, r3, #32
    8cb0:	0a0001bf 	beq	93b4 <_vfiprintf_r+0xf74>
    8cb4:	e59d3010 	ldr	r3, [sp, #16]
    8cb8:	e2835007 	add	r5, r3, #7
    8cbc:	e3c55007 	bic	r5, r5, #7
    8cc0:	e1a02005 	mov	r2, r5
    8cc4:	e5956004 	ldr	r6, [r5, #4]
    8cc8:	e4925008 	ldr	r5, [r2], #8
    8ccc:	e3a03001 	mov	r3, #1
    8cd0:	e58d2010 	str	r2, [sp, #16]
    8cd4:	eafffeee 	b	8894 <_vfiprintf_r+0x454>
    8cd8:	e5d73000 	ldrb	r3, [r7]
    8cdc:	e38bb001 	orr	fp, fp, #1
    8ce0:	eafffe37 	b	85c4 <_vfiprintf_r+0x184>
    8ce4:	e5dd3033 	ldrb	r3, [sp, #51]	; 0x33
    8ce8:	e3530000 	cmp	r3, #0
    8cec:	1afffea4 	bne	8784 <_vfiprintf_r+0x344>
    8cf0:	e3a03020 	mov	r3, #32
    8cf4:	e5cd3033 	strb	r3, [sp, #51]	; 0x33
    8cf8:	e5d73000 	ldrb	r3, [r7]
    8cfc:	eafffe30 	b	85c4 <_vfiprintf_r+0x184>
    8d00:	e59d500c 	ldr	r5, [sp, #12]
    8d04:	e1a00005 	mov	r0, r5
    8d08:	ebfff768 	bl	6ab0 <_localeconv_r>
    8d0c:	e5903004 	ldr	r3, [r0, #4]
    8d10:	e1a00003 	mov	r0, r3
    8d14:	e58d3024 	str	r3, [sp, #36]	; 0x24
    8d18:	ebfffd4c 	bl	8250 <strlen>
    8d1c:	e1a03000 	mov	r3, r0
    8d20:	e1a00005 	mov	r0, r5
    8d24:	e58d3028 	str	r3, [sp, #40]	; 0x28
    8d28:	e1a05003 	mov	r5, r3
    8d2c:	ebfff75f 	bl	6ab0 <_localeconv_r>
    8d30:	e5902008 	ldr	r2, [r0, #8]
    8d34:	e3550000 	cmp	r5, #0
    8d38:	13520000 	cmpne	r2, #0
    8d3c:	e58d2020 	str	r2, [sp, #32]
    8d40:	0afffe8f 	beq	8784 <_vfiprintf_r+0x344>
    8d44:	e59d3020 	ldr	r3, [sp, #32]
    8d48:	e5d33000 	ldrb	r3, [r3]
    8d4c:	e3530000 	cmp	r3, #0
    8d50:	0afffe8b 	beq	8784 <_vfiprintf_r+0x344>
    8d54:	e5d73000 	ldrb	r3, [r7]
    8d58:	e38bbb01 	orr	fp, fp, #1024	; 0x400
    8d5c:	eafffe18 	b	85c4 <_vfiprintf_r+0x184>
    8d60:	e38b2002 	orr	r2, fp, #2
    8d64:	e58d2000 	str	r2, [sp]
    8d68:	e3a02030 	mov	r2, #48	; 0x30
    8d6c:	e5cd2034 	strb	r2, [sp, #52]	; 0x34
    8d70:	e3a02078 	mov	r2, #120	; 0x78
    8d74:	e59d3010 	ldr	r3, [sp, #16]
    8d78:	e4935004 	ldr	r5, [r3], #4
    8d7c:	e58d3010 	str	r3, [sp, #16]
    8d80:	e59f3aac 	ldr	r3, [pc, #2732]	; 9834 <_vfiprintf_r+0x13f4>
    8d84:	e3a06000 	mov	r6, #0
    8d88:	e58d301c 	str	r3, [sp, #28]
    8d8c:	e5cd2035 	strb	r2, [sp, #53]	; 0x35
    8d90:	e3a03002 	mov	r3, #2
    8d94:	eafffebe 	b	8894 <_vfiprintf_r+0x454>
    8d98:	e31b0020 	tst	fp, #32
    8d9c:	1a0001b4 	bne	9474 <_vfiprintf_r+0x1034>
    8da0:	e31b0010 	tst	fp, #16
    8da4:	1a00022d 	bne	9660 <_vfiprintf_r+0x1220>
    8da8:	e31b0040 	tst	fp, #64	; 0x40
    8dac:	1a000261 	bne	9738 <_vfiprintf_r+0x12f8>
    8db0:	e31b0c02 	tst	fp, #512	; 0x200
    8db4:	0a000229 	beq	9660 <_vfiprintf_r+0x1220>
    8db8:	e59d5010 	ldr	r5, [sp, #16]
    8dbc:	e59d2008 	ldr	r2, [sp, #8]
    8dc0:	e4953004 	ldr	r3, [r5], #4
    8dc4:	e5c32000 	strb	r2, [r3]
    8dc8:	e58d5010 	str	r5, [sp, #16]
    8dcc:	eafffdcc 	b	8504 <_vfiprintf_r+0xc4>
    8dd0:	e3a03001 	mov	r3, #1
    8dd4:	e59d2000 	ldr	r2, [sp]
    8dd8:	e58d8044 	str	r8, [sp, #68]	; 0x44
    8ddc:	e58d303c 	str	r3, [sp, #60]	; 0x3c
    8de0:	e58d2048 	str	r2, [sp, #72]	; 0x48
    8de4:	e58d2040 	str	r2, [sp, #64]	; 0x40
    8de8:	e28d9044 	add	r9, sp, #68	; 0x44
    8dec:	e2899008 	add	r9, r9, #8
    8df0:	eaffff32 	b	8ac0 <_vfiprintf_r+0x680>
    8df4:	e58db000 	str	fp, [sp]
    8df8:	e3530001 	cmp	r3, #1
    8dfc:	0a00015b 	beq	9370 <_vfiprintf_r+0xf30>
    8e00:	e3530002 	cmp	r3, #2
    8e04:	e28d80e8 	add	r8, sp, #232	; 0xe8
    8e08:	1a00000d 	bne	8e44 <_vfiprintf_r+0xa04>
    8e0c:	e59d201c 	ldr	r2, [sp, #28]
    8e10:	e205300f 	and	r3, r5, #15
    8e14:	e7d23003 	ldrb	r3, [r2, r3]
    8e18:	e1a05225 	lsr	r5, r5, #4
    8e1c:	e1855e06 	orr	r5, r5, r6, lsl #28
    8e20:	e1a06226 	lsr	r6, r6, #4
    8e24:	e5683001 	strb	r3, [r8, #-1]!
    8e28:	e1953006 	orrs	r3, r5, r6
    8e2c:	1afffff7 	bne	8e10 <_vfiprintf_r+0x9d0>
    8e30:	e59db000 	ldr	fp, [sp]
    8e34:	e28d30e8 	add	r3, sp, #232	; 0xe8
    8e38:	e0433008 	sub	r3, r3, r8
    8e3c:	e58d3000 	str	r3, [sp]
    8e40:	eafffea9 	b	88ec <_vfiprintf_r+0x4ac>
    8e44:	e1a021a5 	lsr	r2, r5, #3
    8e48:	e2053007 	and	r3, r5, #7
    8e4c:	e1825e86 	orr	r5, r2, r6, lsl #29
    8e50:	e1a061a6 	lsr	r6, r6, #3
    8e54:	e2833030 	add	r3, r3, #48	; 0x30
    8e58:	e1952006 	orrs	r2, r5, r6
    8e5c:	e1a02008 	mov	r2, r8
    8e60:	e5683001 	strb	r3, [r8, #-1]!
    8e64:	1afffff6 	bne	8e44 <_vfiprintf_r+0xa04>
    8e68:	e59db000 	ldr	fp, [sp]
    8e6c:	e1a0100b 	mov	r1, fp
    8e70:	e3530030 	cmp	r3, #48	; 0x30
    8e74:	03a01000 	moveq	r1, #0
    8e78:	12011001 	andne	r1, r1, #1
    8e7c:	e3510000 	cmp	r1, #0
    8e80:	0affffeb 	beq	8e34 <_vfiprintf_r+0x9f4>
    8e84:	e3a03030 	mov	r3, #48	; 0x30
    8e88:	e2422002 	sub	r2, r2, #2
    8e8c:	e5483001 	strb	r3, [r8, #-1]
    8e90:	e28d30e8 	add	r3, sp, #232	; 0xe8
    8e94:	e0433002 	sub	r3, r3, r2
    8e98:	e59db000 	ldr	fp, [sp]
    8e9c:	e1a08002 	mov	r8, r2
    8ea0:	e58d3000 	str	r3, [sp]
    8ea4:	eafffe90 	b	88ec <_vfiprintf_r+0x4ac>
    8ea8:	e59d3004 	ldr	r3, [sp, #4]
    8eac:	e0435006 	sub	r5, r3, r6
    8eb0:	e3550000 	cmp	r5, #0
    8eb4:	dafffeeb 	ble	8a68 <_vfiprintf_r+0x628>
    8eb8:	e3550010 	cmp	r5, #16
    8ebc:	da000029 	ble	8f68 <_vfiprintf_r+0xb28>
    8ec0:	e1a0c009 	mov	ip, r9
    8ec4:	e1a09005 	mov	r9, r5
    8ec8:	e1a05004 	mov	r5, r4
    8ecc:	e59d400c 	ldr	r4, [sp, #12]
    8ed0:	ea000005 	b	8eec <_vfiprintf_r+0xaac>
    8ed4:	e2810002 	add	r0, r1, #2
    8ed8:	e1a01003 	mov	r1, r3
    8edc:	e28cc008 	add	ip, ip, #8
    8ee0:	e2499010 	sub	r9, r9, #16
    8ee4:	e3590010 	cmp	r9, #16
    8ee8:	da00001b 	ble	8f5c <_vfiprintf_r+0xb1c>
    8eec:	e59f0944 	ldr	r0, [pc, #2372]	; 9838 <_vfiprintf_r+0x13f8>
    8ef0:	e58c0000 	str	r0, [ip]
    8ef4:	e3a00010 	mov	r0, #16
    8ef8:	e2813001 	add	r3, r1, #1
    8efc:	e2822010 	add	r2, r2, #16
    8f00:	e3530007 	cmp	r3, #7
    8f04:	e58c0004 	str	r0, [ip, #4]
    8f08:	e58d2040 	str	r2, [sp, #64]	; 0x40
    8f0c:	e58d303c 	str	r3, [sp, #60]	; 0x3c
    8f10:	daffffef 	ble	8ed4 <_vfiprintf_r+0xa94>
    8f14:	e3520000 	cmp	r2, #0
    8f18:	03a00001 	moveq	r0, #1
    8f1c:	01a01002 	moveq	r1, r2
    8f20:	028dc044 	addeq	ip, sp, #68	; 0x44
    8f24:	0affffed 	beq	8ee0 <_vfiprintf_r+0xaa0>
    8f28:	e1a0100a 	mov	r1, sl
    8f2c:	e1a00004 	mov	r0, r4
    8f30:	e28d2038 	add	r2, sp, #56	; 0x38
    8f34:	ebfffd10 	bl	837c <__sprint_r.part.0>
    8f38:	e3500000 	cmp	r0, #0
    8f3c:	1afffe78 	bne	8924 <_vfiprintf_r+0x4e4>
    8f40:	e28d103c 	add	r1, sp, #60	; 0x3c
    8f44:	e8910006 	ldm	r1, {r1, r2}
    8f48:	e2499010 	sub	r9, r9, #16
    8f4c:	e3590010 	cmp	r9, #16
    8f50:	e28dc044 	add	ip, sp, #68	; 0x44
    8f54:	e2810001 	add	r0, r1, #1
    8f58:	caffffe3 	bgt	8eec <_vfiprintf_r+0xaac>
    8f5c:	e1a04005 	mov	r4, r5
    8f60:	e1a05009 	mov	r5, r9
    8f64:	e1a0900c 	mov	r9, ip
    8f68:	e59f38c8 	ldr	r3, [pc, #2248]	; 9838 <_vfiprintf_r+0x13f8>
    8f6c:	e0822005 	add	r2, r2, r5
    8f70:	e3500007 	cmp	r0, #7
    8f74:	e5895004 	str	r5, [r9, #4]
    8f78:	e5893000 	str	r3, [r9]
    8f7c:	e58d2040 	str	r2, [sp, #64]	; 0x40
    8f80:	e58d003c 	str	r0, [sp, #60]	; 0x3c
    8f84:	da00011f 	ble	9408 <_vfiprintf_r+0xfc8>
    8f88:	e3520000 	cmp	r2, #0
    8f8c:	03a00001 	moveq	r0, #1
    8f90:	01a01002 	moveq	r1, r2
    8f94:	028d9044 	addeq	r9, sp, #68	; 0x44
    8f98:	0afffeb2 	beq	8a68 <_vfiprintf_r+0x628>
    8f9c:	e1a0100a 	mov	r1, sl
    8fa0:	e59d000c 	ldr	r0, [sp, #12]
    8fa4:	e28d2038 	add	r2, sp, #56	; 0x38
    8fa8:	ebfffcf3 	bl	837c <__sprint_r.part.0>
    8fac:	e3500000 	cmp	r0, #0
    8fb0:	1afffe5b 	bne	8924 <_vfiprintf_r+0x4e4>
    8fb4:	e59d3000 	ldr	r3, [sp]
    8fb8:	e28d103c 	add	r1, sp, #60	; 0x3c
    8fbc:	e8910006 	ldm	r1, {r1, r2}
    8fc0:	e0444003 	sub	r4, r4, r3
    8fc4:	e3540000 	cmp	r4, #0
    8fc8:	e28d9044 	add	r9, sp, #68	; 0x44
    8fcc:	e2810001 	add	r0, r1, #1
    8fd0:	dafffea8 	ble	8a78 <_vfiprintf_r+0x638>
    8fd4:	e3540010 	cmp	r4, #16
    8fd8:	da000026 	ble	9078 <_vfiprintf_r+0xc38>
    8fdc:	e1a0c009 	mov	ip, r9
    8fe0:	e3a05010 	mov	r5, #16
    8fe4:	e1a09004 	mov	r9, r4
    8fe8:	e59d400c 	ldr	r4, [sp, #12]
    8fec:	ea000005 	b	9008 <_vfiprintf_r+0xbc8>
    8ff0:	e2810002 	add	r0, r1, #2
    8ff4:	e1a01003 	mov	r1, r3
    8ff8:	e28cc008 	add	ip, ip, #8
    8ffc:	e2499010 	sub	r9, r9, #16
    9000:	e3590010 	cmp	r9, #16
    9004:	da000019 	ble	9070 <_vfiprintf_r+0xc30>
    9008:	e2813001 	add	r3, r1, #1
    900c:	e59f0824 	ldr	r0, [pc, #2084]	; 9838 <_vfiprintf_r+0x13f8>
    9010:	e2822010 	add	r2, r2, #16
    9014:	e3530007 	cmp	r3, #7
    9018:	e88c0021 	stm	ip, {r0, r5}
    901c:	e58d2040 	str	r2, [sp, #64]	; 0x40
    9020:	e58d303c 	str	r3, [sp, #60]	; 0x3c
    9024:	dafffff1 	ble	8ff0 <_vfiprintf_r+0xbb0>
    9028:	e3520000 	cmp	r2, #0
    902c:	03a00001 	moveq	r0, #1
    9030:	01a01002 	moveq	r1, r2
    9034:	028dc044 	addeq	ip, sp, #68	; 0x44
    9038:	0affffef 	beq	8ffc <_vfiprintf_r+0xbbc>
    903c:	e1a0100a 	mov	r1, sl
    9040:	e1a00004 	mov	r0, r4
    9044:	e28d2038 	add	r2, sp, #56	; 0x38
    9048:	ebfffccb 	bl	837c <__sprint_r.part.0>
    904c:	e3500000 	cmp	r0, #0
    9050:	1afffe33 	bne	8924 <_vfiprintf_r+0x4e4>
    9054:	e28d103c 	add	r1, sp, #60	; 0x3c
    9058:	e8910006 	ldm	r1, {r1, r2}
    905c:	e2499010 	sub	r9, r9, #16
    9060:	e3590010 	cmp	r9, #16
    9064:	e28dc044 	add	ip, sp, #68	; 0x44
    9068:	e2810001 	add	r0, r1, #1
    906c:	caffffe5 	bgt	9008 <_vfiprintf_r+0xbc8>
    9070:	e1a04009 	mov	r4, r9
    9074:	e1a0900c 	mov	r9, ip
    9078:	e59f37b8 	ldr	r3, [pc, #1976]	; 9838 <_vfiprintf_r+0x13f8>
    907c:	e3500007 	cmp	r0, #7
    9080:	e0822004 	add	r2, r2, r4
    9084:	e5894004 	str	r4, [r9, #4]
    9088:	e5893000 	str	r3, [r9]
    908c:	e58d003c 	str	r0, [sp, #60]	; 0x3c
    9090:	e58d2040 	str	r2, [sp, #64]	; 0x40
    9094:	d2899008 	addle	r9, r9, #8
    9098:	d2800001 	addle	r0, r0, #1
    909c:	dafffe75 	ble	8a78 <_vfiprintf_r+0x638>
    90a0:	e3520000 	cmp	r2, #0
    90a4:	0affff49 	beq	8dd0 <_vfiprintf_r+0x990>
    90a8:	e1a0100a 	mov	r1, sl
    90ac:	e59d000c 	ldr	r0, [sp, #12]
    90b0:	e28d2038 	add	r2, sp, #56	; 0x38
    90b4:	ebfffcb0 	bl	837c <__sprint_r.part.0>
    90b8:	e3500000 	cmp	r0, #0
    90bc:	1afffe18 	bne	8924 <_vfiprintf_r+0x4e4>
    90c0:	e59d003c 	ldr	r0, [sp, #60]	; 0x3c
    90c4:	e59d2040 	ldr	r2, [sp, #64]	; 0x40
    90c8:	e28d9044 	add	r9, sp, #68	; 0x44
    90cc:	e2800001 	add	r0, r0, #1
    90d0:	eafffe68 	b	8a78 <_vfiprintf_r+0x638>
    90d4:	e3520000 	cmp	r2, #0
    90d8:	0a0000ae 	beq	9398 <_vfiprintf_r+0xf58>
    90dc:	e1a0100a 	mov	r1, sl
    90e0:	e59d000c 	ldr	r0, [sp, #12]
    90e4:	e28d2038 	add	r2, sp, #56	; 0x38
    90e8:	ebfffca3 	bl	837c <__sprint_r.part.0>
    90ec:	e3500000 	cmp	r0, #0
    90f0:	1afffe0b 	bne	8924 <_vfiprintf_r+0x4e4>
    90f4:	e28d103c 	add	r1, sp, #60	; 0x3c
    90f8:	e8910006 	ldm	r1, {r1, r2}
    90fc:	e28d9044 	add	r9, sp, #68	; 0x44
    9100:	e2810001 	add	r0, r1, #1
    9104:	eafffe3c 	b	89fc <_vfiprintf_r+0x5bc>
    9108:	e3a02002 	mov	r2, #2
    910c:	e3a00001 	mov	r0, #1
    9110:	e28d3034 	add	r3, sp, #52	; 0x34
    9114:	e58d3044 	str	r3, [sp, #68]	; 0x44
    9118:	e58d2048 	str	r2, [sp, #72]	; 0x48
    911c:	e28d9044 	add	r9, sp, #68	; 0x44
    9120:	e1a01000 	mov	r1, r0
    9124:	e2899008 	add	r9, r9, #8
    9128:	e2810001 	add	r0, r1, #1
    912c:	eafffe4a 	b	8a5c <_vfiprintf_r+0x61c>
    9130:	e3550010 	cmp	r5, #16
    9134:	da00019e 	ble	97b4 <_vfiprintf_r+0x1374>
    9138:	e1a0e009 	mov	lr, r9
    913c:	e3a03010 	mov	r3, #16
    9140:	e1a09007 	mov	r9, r7
    9144:	e59d2040 	ldr	r2, [sp, #64]	; 0x40
    9148:	e1a07006 	mov	r7, r6
    914c:	e59dc03c 	ldr	ip, [sp, #60]	; 0x3c
    9150:	e1a06004 	mov	r6, r4
    9154:	e59d400c 	ldr	r4, [sp, #12]
    9158:	ea000005 	b	9174 <_vfiprintf_r+0xd34>
    915c:	e28c1002 	add	r1, ip, #2
    9160:	e1a0c000 	mov	ip, r0
    9164:	e28ee008 	add	lr, lr, #8
    9168:	e2455010 	sub	r5, r5, #16
    916c:	e3550010 	cmp	r5, #16
    9170:	da00001a 	ble	91e0 <_vfiprintf_r+0xda0>
    9174:	e28c0001 	add	r0, ip, #1
    9178:	e59f16bc 	ldr	r1, [pc, #1724]	; 983c <_vfiprintf_r+0x13fc>
    917c:	e2822010 	add	r2, r2, #16
    9180:	e3500007 	cmp	r0, #7
    9184:	e88e000a 	stm	lr, {r1, r3}
    9188:	e58d2040 	str	r2, [sp, #64]	; 0x40
    918c:	e58d003c 	str	r0, [sp, #60]	; 0x3c
    9190:	dafffff1 	ble	915c <_vfiprintf_r+0xd1c>
    9194:	e3520000 	cmp	r2, #0
    9198:	01a0c002 	moveq	ip, r2
    919c:	03a01001 	moveq	r1, #1
    91a0:	028de044 	addeq	lr, sp, #68	; 0x44
    91a4:	0affffef 	beq	9168 <_vfiprintf_r+0xd28>
    91a8:	e1a0100a 	mov	r1, sl
    91ac:	e1a00004 	mov	r0, r4
    91b0:	e28d2038 	add	r2, sp, #56	; 0x38
    91b4:	ebfffc70 	bl	837c <__sprint_r.part.0>
    91b8:	e3500000 	cmp	r0, #0
    91bc:	1afffdd8 	bne	8924 <_vfiprintf_r+0x4e4>
    91c0:	e59dc03c 	ldr	ip, [sp, #60]	; 0x3c
    91c4:	e2455010 	sub	r5, r5, #16
    91c8:	e3550010 	cmp	r5, #16
    91cc:	e3a03010 	mov	r3, #16
    91d0:	e59d2040 	ldr	r2, [sp, #64]	; 0x40
    91d4:	e28de044 	add	lr, sp, #68	; 0x44
    91d8:	e28c1001 	add	r1, ip, #1
    91dc:	caffffe4 	bgt	9174 <_vfiprintf_r+0xd34>
    91e0:	e1a04006 	mov	r4, r6
    91e4:	e1a06007 	mov	r6, r7
    91e8:	e1a07009 	mov	r7, r9
    91ec:	e1a0900e 	mov	r9, lr
    91f0:	e59f3644 	ldr	r3, [pc, #1604]	; 983c <_vfiprintf_r+0x13fc>
    91f4:	e3510007 	cmp	r1, #7
    91f8:	e0852002 	add	r2, r5, r2
    91fc:	e5895004 	str	r5, [r9, #4]
    9200:	e5893000 	str	r3, [r9]
    9204:	e58d2040 	str	r2, [sp, #64]	; 0x40
    9208:	e58d103c 	str	r1, [sp, #60]	; 0x3c
    920c:	d2899008 	addle	r9, r9, #8
    9210:	d2810001 	addle	r0, r1, #1
    9214:	dafffde9 	ble	89c0 <_vfiprintf_r+0x580>
    9218:	e3520000 	cmp	r2, #0
    921c:	0a0000c3 	beq	9530 <_vfiprintf_r+0x10f0>
    9220:	e1a0100a 	mov	r1, sl
    9224:	e59d000c 	ldr	r0, [sp, #12]
    9228:	e28d2038 	add	r2, sp, #56	; 0x38
    922c:	ebfffc52 	bl	837c <__sprint_r.part.0>
    9230:	e3500000 	cmp	r0, #0
    9234:	1afffdba 	bne	8924 <_vfiprintf_r+0x4e4>
    9238:	e28d9044 	add	r9, sp, #68	; 0x44
    923c:	eafffddc 	b	89b4 <_vfiprintf_r+0x574>
    9240:	e31b0004 	tst	fp, #4
    9244:	e58d203c 	str	r2, [sp, #60]	; 0x3c
    9248:	0a00003d 	beq	9344 <_vfiprintf_r+0xf04>
    924c:	e59d3004 	ldr	r3, [sp, #4]
    9250:	e0434006 	sub	r4, r3, r6
    9254:	e3540000 	cmp	r4, #0
    9258:	da000039 	ble	9344 <_vfiprintf_r+0xf04>
    925c:	e28d9044 	add	r9, sp, #68	; 0x44
    9260:	e3540010 	cmp	r4, #16
    9264:	da000156 	ble	97c4 <_vfiprintf_r+0x1384>
    9268:	e59d103c 	ldr	r1, [sp, #60]	; 0x3c
    926c:	e3a05010 	mov	r5, #16
    9270:	e1a0c001 	mov	ip, r1
    9274:	e59d800c 	ldr	r8, [sp, #12]
    9278:	ea000005 	b	9294 <_vfiprintf_r+0xe54>
    927c:	e28c0002 	add	r0, ip, #2
    9280:	e1a0c003 	mov	ip, r3
    9284:	e2899008 	add	r9, r9, #8
    9288:	e2444010 	sub	r4, r4, #16
    928c:	e3540010 	cmp	r4, #16
    9290:	da000019 	ble	92fc <_vfiprintf_r+0xebc>
    9294:	e28c3001 	add	r3, ip, #1
    9298:	e59f159c 	ldr	r1, [pc, #1436]	; 983c <_vfiprintf_r+0x13fc>
    929c:	e2822010 	add	r2, r2, #16
    92a0:	e3530007 	cmp	r3, #7
    92a4:	e8890022 	stm	r9, {r1, r5}
    92a8:	e58d2040 	str	r2, [sp, #64]	; 0x40
    92ac:	e58d303c 	str	r3, [sp, #60]	; 0x3c
    92b0:	dafffff1 	ble	927c <_vfiprintf_r+0xe3c>
    92b4:	e3520000 	cmp	r2, #0
    92b8:	03a00001 	moveq	r0, #1
    92bc:	01a0c002 	moveq	ip, r2
    92c0:	028d9044 	addeq	r9, sp, #68	; 0x44
    92c4:	0affffef 	beq	9288 <_vfiprintf_r+0xe48>
    92c8:	e1a0100a 	mov	r1, sl
    92cc:	e1a00008 	mov	r0, r8
    92d0:	e28d2038 	add	r2, sp, #56	; 0x38
    92d4:	ebfffc28 	bl	837c <__sprint_r.part.0>
    92d8:	e3500000 	cmp	r0, #0
    92dc:	1afffd90 	bne	8924 <_vfiprintf_r+0x4e4>
    92e0:	e59dc03c 	ldr	ip, [sp, #60]	; 0x3c
    92e4:	e2444010 	sub	r4, r4, #16
    92e8:	e3540010 	cmp	r4, #16
    92ec:	e59d2040 	ldr	r2, [sp, #64]	; 0x40
    92f0:	e28d9044 	add	r9, sp, #68	; 0x44
    92f4:	e28c0001 	add	r0, ip, #1
    92f8:	caffffe5 	bgt	9294 <_vfiprintf_r+0xe54>
    92fc:	e59f3538 	ldr	r3, [pc, #1336]	; 983c <_vfiprintf_r+0x13fc>
    9300:	e0822004 	add	r2, r2, r4
    9304:	e3500007 	cmp	r0, #7
    9308:	e5894004 	str	r4, [r9, #4]
    930c:	e5893000 	str	r3, [r9]
    9310:	e58d003c 	str	r0, [sp, #60]	; 0x3c
    9314:	e58d2040 	str	r2, [sp, #64]	; 0x40
    9318:	dafffdee 	ble	8ad8 <_vfiprintf_r+0x698>
    931c:	e3520000 	cmp	r2, #0
    9320:	0a000007 	beq	9344 <_vfiprintf_r+0xf04>
    9324:	e1a0100a 	mov	r1, sl
    9328:	e59d000c 	ldr	r0, [sp, #12]
    932c:	e28d2038 	add	r2, sp, #56	; 0x38
    9330:	ebfffc11 	bl	837c <__sprint_r.part.0>
    9334:	e3500000 	cmp	r0, #0
    9338:	1afffd79 	bne	8924 <_vfiprintf_r+0x4e4>
    933c:	e59d2040 	ldr	r2, [sp, #64]	; 0x40
    9340:	eafffde4 	b	8ad8 <_vfiprintf_r+0x698>
    9344:	e99d000c 	ldmib	sp, {r2, r3}
    9348:	e1520006 	cmp	r2, r6
    934c:	a0833002 	addge	r3, r3, r2
    9350:	b0833006 	addlt	r3, r3, r6
    9354:	e58d3008 	str	r3, [sp, #8]
    9358:	eafffde5 	b	8af4 <_vfiprintf_r+0x6b4>
    935c:	e1a04002 	mov	r4, r2
    9360:	e58d2000 	str	r2, [sp]
    9364:	e28d80e8 	add	r8, sp, #232	; 0xe8
    9368:	eafffd5f 	b	88ec <_vfiprintf_r+0x4ac>
    936c:	e58db000 	str	fp, [sp]
    9370:	e355000a 	cmp	r5, #10
    9374:	e2d63000 	sbcs	r3, r6, #0
    9378:	2a000087 	bcs	959c <_vfiprintf_r+0x115c>
    937c:	e3a03001 	mov	r3, #1
    9380:	e2855030 	add	r5, r5, #48	; 0x30
    9384:	e59db000 	ldr	fp, [sp]
    9388:	e5cd50e7 	strb	r5, [sp, #231]	; 0xe7
    938c:	e58d3000 	str	r3, [sp]
    9390:	e28d80e7 	add	r8, sp, #231	; 0xe7
    9394:	eafffd54 	b	88ec <_vfiprintf_r+0x4ac>
    9398:	e59d3014 	ldr	r3, [sp, #20]
    939c:	e3530000 	cmp	r3, #0
    93a0:	1a00003a 	bne	9490 <_vfiprintf_r+0x1050>
    93a4:	e3a00001 	mov	r0, #1
    93a8:	e1a01002 	mov	r1, r2
    93ac:	e28d9044 	add	r9, sp, #68	; 0x44
    93b0:	eafffda9 	b	8a5c <_vfiprintf_r+0x61c>
    93b4:	e59d3000 	ldr	r3, [sp]
    93b8:	e2133010 	ands	r3, r3, #16
    93bc:	1a000018 	bne	9424 <_vfiprintf_r+0xfe4>
    93c0:	e59d2000 	ldr	r2, [sp]
    93c4:	e2122040 	ands	r2, r2, #64	; 0x40
    93c8:	0a000012 	beq	9418 <_vfiprintf_r+0xfd8>
    93cc:	e59d2010 	ldr	r2, [sp, #16]
    93d0:	e4925004 	ldr	r5, [r2], #4
    93d4:	e1a05805 	lsl	r5, r5, #16
    93d8:	e1a06003 	mov	r6, r3
    93dc:	e58d2010 	str	r2, [sp, #16]
    93e0:	e3a03001 	mov	r3, #1
    93e4:	e1a05825 	lsr	r5, r5, #16
    93e8:	eafffd29 	b	8894 <_vfiprintf_r+0x454>
    93ec:	e3a0302d 	mov	r3, #45	; 0x2d
    93f0:	e2755000 	rsbs	r5, r5, #0
    93f4:	e5cd3033 	strb	r3, [sp, #51]	; 0x33
    93f8:	e58db000 	str	fp, [sp]
    93fc:	e3a03001 	mov	r3, #1
    9400:	e2e66000 	rsc	r6, r6, #0
    9404:	eafffd24 	b	889c <_vfiprintf_r+0x45c>
    9408:	e1a01000 	mov	r1, r0
    940c:	e2899008 	add	r9, r9, #8
    9410:	e2800001 	add	r0, r0, #1
    9414:	eafffd93 	b	8a68 <_vfiprintf_r+0x628>
    9418:	e59d3000 	ldr	r3, [sp]
    941c:	e2136c02 	ands	r6, r3, #512	; 0x200
    9420:	1a0000b7 	bne	9704 <_vfiprintf_r+0x12c4>
    9424:	e59d2010 	ldr	r2, [sp, #16]
    9428:	e4925004 	ldr	r5, [r2], #4
    942c:	e3a03001 	mov	r3, #1
    9430:	e58d2010 	str	r2, [sp, #16]
    9434:	eafffd16 	b	8894 <_vfiprintf_r+0x454>
    9438:	e31b0c02 	tst	fp, #512	; 0x200
    943c:	1a0000a8 	bne	96e4 <_vfiprintf_r+0x12a4>
    9440:	e59d5010 	ldr	r5, [sp, #16]
    9444:	e4953004 	ldr	r3, [r5], #4
    9448:	e1a06fc3 	asr	r6, r3, #31
    944c:	e58d5010 	str	r5, [sp, #16]
    9450:	e1a05003 	mov	r5, r3
    9454:	e1a03006 	mov	r3, r6
    9458:	eafffcd9 	b	87c4 <_vfiprintf_r+0x384>
    945c:	e21b6c02 	ands	r6, fp, #512	; 0x200
    9460:	1a0000ae 	bne	9720 <_vfiprintf_r+0x12e0>
    9464:	e59d3010 	ldr	r3, [sp, #16]
    9468:	e4935004 	ldr	r5, [r3], #4
    946c:	e58d3010 	str	r3, [sp, #16]
    9470:	eafffd04 	b	8888 <_vfiprintf_r+0x448>
    9474:	e59d5010 	ldr	r5, [sp, #16]
    9478:	e59d1008 	ldr	r1, [sp, #8]
    947c:	e4952004 	ldr	r2, [r5], #4
    9480:	e1a03fc1 	asr	r3, r1, #31
    9484:	e882000a 	stm	r2, {r1, r3}
    9488:	e58d5010 	str	r5, [sp, #16]
    948c:	eafffc1c 	b	8504 <_vfiprintf_r+0xc4>
    9490:	e3a02002 	mov	r2, #2
    9494:	e28d3034 	add	r3, sp, #52	; 0x34
    9498:	e58d3044 	str	r3, [sp, #68]	; 0x44
    949c:	e58d2048 	str	r2, [sp, #72]	; 0x48
    94a0:	e28d9044 	add	r9, sp, #68	; 0x44
    94a4:	eaffff1e 	b	9124 <_vfiprintf_r+0xce4>
    94a8:	e58db000 	str	fp, [sp]
    94ac:	eafffdfd 	b	8ca8 <_vfiprintf_r+0x868>
    94b0:	e59f2388 	ldr	r2, [pc, #904]	; 9840 <_vfiprintf_r+0x1400>
    94b4:	e58d201c 	str	r2, [sp, #28]
    94b8:	e21b6020 	ands	r6, fp, #32
    94bc:	0a000025 	beq	9558 <_vfiprintf_r+0x1118>
    94c0:	e59d2010 	ldr	r2, [sp, #16]
    94c4:	e2825007 	add	r5, r2, #7
    94c8:	e3c55007 	bic	r5, r5, #7
    94cc:	e1a02005 	mov	r2, r5
    94d0:	e5956004 	ldr	r6, [r5, #4]
    94d4:	e4925008 	ldr	r5, [r2], #8
    94d8:	e58d2010 	str	r2, [sp, #16]
    94dc:	e1952006 	orrs	r2, r5, r6
    94e0:	03a02000 	moveq	r2, #0
    94e4:	120b2001 	andne	r2, fp, #1
    94e8:	e3520000 	cmp	r2, #0
    94ec:	15cd3035 	strbne	r3, [sp, #53]	; 0x35
    94f0:	13a03030 	movne	r3, #48	; 0x30
    94f4:	138bb002 	orrne	fp, fp, #2
    94f8:	15cd3034 	strbne	r3, [sp, #52]	; 0x34
    94fc:	e3cb3b01 	bic	r3, fp, #1024	; 0x400
    9500:	e58d3000 	str	r3, [sp]
    9504:	e3a03002 	mov	r3, #2
    9508:	eafffce1 	b	8894 <_vfiprintf_r+0x454>
    950c:	e59f2320 	ldr	r2, [pc, #800]	; 9834 <_vfiprintf_r+0x13f4>
    9510:	e58d201c 	str	r2, [sp, #28]
    9514:	eaffffe7 	b	94b8 <_vfiprintf_r+0x1078>
    9518:	e1a00008 	mov	r0, r8
    951c:	e58d5010 	str	r5, [sp, #16]
    9520:	ebfffb4a 	bl	8250 <strlen>
    9524:	e1a04006 	mov	r4, r6
    9528:	e58d0000 	str	r0, [sp]
    952c:	eafffcee 	b	88ec <_vfiprintf_r+0x4ac>
    9530:	e5dd1033 	ldrb	r1, [sp, #51]	; 0x33
    9534:	e3510000 	cmp	r1, #0
    9538:	1a00005c 	bne	96b0 <_vfiprintf_r+0x1270>
    953c:	e59d3014 	ldr	r3, [sp, #20]
    9540:	e3530000 	cmp	r3, #0
    9544:	1afffeef 	bne	9108 <_vfiprintf_r+0xcc8>
    9548:	e1a01002 	mov	r1, r2
    954c:	e3a00001 	mov	r0, #1
    9550:	e28d9044 	add	r9, sp, #68	; 0x44
    9554:	eafffd43 	b	8a68 <_vfiprintf_r+0x628>
    9558:	e21b2010 	ands	r2, fp, #16
    955c:	1a00000a 	bne	958c <_vfiprintf_r+0x114c>
    9560:	e21b1040 	ands	r1, fp, #64	; 0x40
    9564:	0a000006 	beq	9584 <_vfiprintf_r+0x1144>
    9568:	e59d1010 	ldr	r1, [sp, #16]
    956c:	e4915004 	ldr	r5, [r1], #4
    9570:	e1a05805 	lsl	r5, r5, #16
    9574:	e1a06002 	mov	r6, r2
    9578:	e58d1010 	str	r1, [sp, #16]
    957c:	e1a05825 	lsr	r5, r5, #16
    9580:	eaffffd5 	b	94dc <_vfiprintf_r+0x109c>
    9584:	e21b6c02 	ands	r6, fp, #512	; 0x200
    9588:	1a00004f 	bne	96cc <_vfiprintf_r+0x128c>
    958c:	e59d2010 	ldr	r2, [sp, #16]
    9590:	e4925004 	ldr	r5, [r2], #4
    9594:	e58d2010 	str	r2, [sp, #16]
    9598:	eaffffcf 	b	94dc <_vfiprintf_r+0x109c>
    959c:	e3a03000 	mov	r3, #0
    95a0:	e59d2000 	ldr	r2, [sp]
    95a4:	e2022b01 	and	r2, r2, #1024	; 0x400
    95a8:	e58d4014 	str	r4, [sp, #20]
    95ac:	e58d9018 	str	r9, [sp, #24]
    95b0:	e58d702c 	str	r7, [sp, #44]	; 0x2c
    95b4:	e1a04003 	mov	r4, r3
    95b8:	e1a09002 	mov	r9, r2
    95bc:	e59d7020 	ldr	r7, [sp, #32]
    95c0:	e28db0e8 	add	fp, sp, #232	; 0xe8
    95c4:	ea00000a 	b	95f4 <_vfiprintf_r+0x11b4>
    95c8:	e1a00005 	mov	r0, r5
    95cc:	e1a01006 	mov	r1, r6
    95d0:	e3a03000 	mov	r3, #0
    95d4:	e3a0200a 	mov	r2, #10
    95d8:	eb0008d4 	bl	b930 <__aeabi_uldivmod>
    95dc:	e355000a 	cmp	r5, #10
    95e0:	e2d63000 	sbcs	r3, r6, #0
    95e4:	e1a05000 	mov	r5, r0
    95e8:	e1a06001 	mov	r6, r1
    95ec:	3a000016 	bcc	964c <_vfiprintf_r+0x120c>
    95f0:	e1a0b008 	mov	fp, r8
    95f4:	e3a0200a 	mov	r2, #10
    95f8:	e3a03000 	mov	r3, #0
    95fc:	e1a00005 	mov	r0, r5
    9600:	e1a01006 	mov	r1, r6
    9604:	eb0008c9 	bl	b930 <__aeabi_uldivmod>
    9608:	e3590000 	cmp	r9, #0
    960c:	e2822030 	add	r2, r2, #48	; 0x30
    9610:	e54b2001 	strb	r2, [fp, #-1]
    9614:	e24b8001 	sub	r8, fp, #1
    9618:	e2844001 	add	r4, r4, #1
    961c:	0affffe9 	beq	95c8 <_vfiprintf_r+0x1188>
    9620:	e5d73000 	ldrb	r3, [r7]
    9624:	e0431004 	sub	r1, r3, r4
    9628:	e2712000 	rsbs	r2, r1, #0
    962c:	e0a22001 	adc	r2, r2, r1
    9630:	e35300ff 	cmp	r3, #255	; 0xff
    9634:	03a02000 	moveq	r2, #0
    9638:	e3520000 	cmp	r2, #0
    963c:	0affffe1 	beq	95c8 <_vfiprintf_r+0x1188>
    9640:	e355000a 	cmp	r5, #10
    9644:	e2d63000 	sbcs	r3, r6, #0
    9648:	2a000043 	bcs	975c <_vfiprintf_r+0x131c>
    964c:	e58d7020 	str	r7, [sp, #32]
    9650:	e59d4014 	ldr	r4, [sp, #20]
    9654:	e59d9018 	ldr	r9, [sp, #24]
    9658:	e59d702c 	ldr	r7, [sp, #44]	; 0x2c
    965c:	eafffdf3 	b	8e30 <_vfiprintf_r+0x9f0>
    9660:	e59d5010 	ldr	r5, [sp, #16]
    9664:	e59d2008 	ldr	r2, [sp, #8]
    9668:	e4953004 	ldr	r3, [r5], #4
    966c:	e5832000 	str	r2, [r3]
    9670:	e58d5010 	str	r5, [sp, #16]
    9674:	eafffba2 	b	8504 <_vfiprintf_r+0xc4>
    9678:	e3540006 	cmp	r4, #6
    967c:	31a06004 	movcc	r6, r4
    9680:	23a06006 	movcs	r6, #6
    9684:	e58d5010 	str	r5, [sp, #16]
    9688:	e58d6000 	str	r6, [sp]
    968c:	e59f81b0 	ldr	r8, [pc, #432]	; 9844 <_vfiprintf_r+0x1404>
    9690:	eafffcbc 	b	8988 <_vfiprintf_r+0x548>
    9694:	e59d3040 	ldr	r3, [sp, #64]	; 0x40
    9698:	e3530000 	cmp	r3, #0
    969c:	e1a0b00a 	mov	fp, sl
    96a0:	1a00004a 	bne	97d0 <_vfiprintf_r+0x1390>
    96a4:	e3a03000 	mov	r3, #0
    96a8:	e58d303c 	str	r3, [sp, #60]	; 0x3c
    96ac:	eafffc9d 	b	8928 <_vfiprintf_r+0x4e8>
    96b0:	e3a00001 	mov	r0, #1
    96b4:	e28d2033 	add	r2, sp, #51	; 0x33
    96b8:	e58d2044 	str	r2, [sp, #68]	; 0x44
    96bc:	e58d0048 	str	r0, [sp, #72]	; 0x48
    96c0:	e1a02000 	mov	r2, r0
    96c4:	e28d9044 	add	r9, sp, #68	; 0x44
    96c8:	eafffcc8 	b	89f0 <_vfiprintf_r+0x5b0>
    96cc:	e59d5010 	ldr	r5, [sp, #16]
    96d0:	e4952004 	ldr	r2, [r5], #4
    96d4:	e1a06001 	mov	r6, r1
    96d8:	e58d5010 	str	r5, [sp, #16]
    96dc:	e20250ff 	and	r5, r2, #255	; 0xff
    96e0:	eaffff7d 	b	94dc <_vfiprintf_r+0x109c>
    96e4:	e59d3010 	ldr	r3, [sp, #16]
    96e8:	e4935004 	ldr	r5, [r3], #4
    96ec:	e1a05c05 	lsl	r5, r5, #24
    96f0:	e1a06fc5 	asr	r6, r5, #31
    96f4:	e58d3010 	str	r3, [sp, #16]
    96f8:	e1a05c45 	asr	r5, r5, #24
    96fc:	e1a03006 	mov	r3, r6
    9700:	eafffc2f 	b	87c4 <_vfiprintf_r+0x384>
    9704:	e59d5010 	ldr	r5, [sp, #16]
    9708:	e1a06002 	mov	r6, r2
    970c:	e4952004 	ldr	r2, [r5], #4
    9710:	e3a03001 	mov	r3, #1
    9714:	e58d5010 	str	r5, [sp, #16]
    9718:	e20250ff 	and	r5, r2, #255	; 0xff
    971c:	eafffc5c 	b	8894 <_vfiprintf_r+0x454>
    9720:	e59d5010 	ldr	r5, [sp, #16]
    9724:	e4953004 	ldr	r3, [r5], #4
    9728:	e1a06002 	mov	r6, r2
    972c:	e58d5010 	str	r5, [sp, #16]
    9730:	e20350ff 	and	r5, r3, #255	; 0xff
    9734:	eafffc53 	b	8888 <_vfiprintf_r+0x448>
    9738:	e59d5010 	ldr	r5, [sp, #16]
    973c:	e59d2008 	ldr	r2, [sp, #8]
    9740:	e4953004 	ldr	r3, [r5], #4
    9744:	e1c320b0 	strh	r2, [r3]
    9748:	e58d5010 	str	r5, [sp, #16]
    974c:	eafffb6c 	b	8504 <_vfiprintf_r+0xc4>
    9750:	e59b0058 	ldr	r0, [fp, #88]	; 0x58
    9754:	ebfff4db 	bl	6ac8 <__retarget_lock_release_recursive>
    9758:	eafffc39 	b	8844 <_vfiprintf_r+0x404>
    975c:	e59d3028 	ldr	r3, [sp, #40]	; 0x28
    9760:	e0488003 	sub	r8, r8, r3
    9764:	e1a02003 	mov	r2, r3
    9768:	e59d1024 	ldr	r1, [sp, #36]	; 0x24
    976c:	e1a00008 	mov	r0, r8
    9770:	ebffface 	bl	82b0 <strncpy>
    9774:	e5d73001 	ldrb	r3, [r7, #1]
    9778:	e1a00005 	mov	r0, r5
    977c:	e3530000 	cmp	r3, #0
    9780:	e1a01006 	mov	r1, r6
    9784:	e3a0200a 	mov	r2, #10
    9788:	e3a03000 	mov	r3, #0
    978c:	12877001 	addne	r7, r7, #1
    9790:	eb000866 	bl	b930 <__aeabi_uldivmod>
    9794:	e3a04000 	mov	r4, #0
    9798:	e1a05000 	mov	r5, r0
    979c:	e1a06001 	mov	r6, r1
    97a0:	eaffff92 	b	95f0 <_vfiprintf_r+0x11b0>
    97a4:	e58d4000 	str	r4, [sp]
    97a8:	e58d5010 	str	r5, [sp, #16]
    97ac:	e1a04000 	mov	r4, r0
    97b0:	eafffc4d 	b	88ec <_vfiprintf_r+0x4ac>
    97b4:	e59d103c 	ldr	r1, [sp, #60]	; 0x3c
    97b8:	e59d2040 	ldr	r2, [sp, #64]	; 0x40
    97bc:	e2811001 	add	r1, r1, #1
    97c0:	eafffe8a 	b	91f0 <_vfiprintf_r+0xdb0>
    97c4:	e59d003c 	ldr	r0, [sp, #60]	; 0x3c
    97c8:	e2800001 	add	r0, r0, #1
    97cc:	eafffeca 	b	92fc <_vfiprintf_r+0xebc>
    97d0:	e1a0100a 	mov	r1, sl
    97d4:	e59d000c 	ldr	r0, [sp, #12]
    97d8:	e28d2038 	add	r2, sp, #56	; 0x38
    97dc:	ebfffae6 	bl	837c <__sprint_r.part.0>
    97e0:	e3500000 	cmp	r0, #0
    97e4:	0affffae 	beq	96a4 <_vfiprintf_r+0x1264>
    97e8:	eafffc4e 	b	8928 <_vfiprintf_r+0x4e8>
    97ec:	e59b3064 	ldr	r3, [fp, #100]	; 0x64
    97f0:	e3130001 	tst	r3, #1
    97f4:	1a000003 	bne	9808 <_vfiprintf_r+0x13c8>
    97f8:	e1db30bc 	ldrh	r3, [fp, #12]
    97fc:	e3130c02 	tst	r3, #512	; 0x200
    9800:	059b0058 	ldreq	r0, [fp, #88]	; 0x58
    9804:	0bfff4af 	bleq	6ac8 <__retarget_lock_release_recursive>
    9808:	e3e03000 	mvn	r3, #0
    980c:	e58d3008 	str	r3, [sp, #8]
    9810:	eafffc4a 	b	8940 <_vfiprintf_r+0x500>
    9814:	e59d2010 	ldr	r2, [sp, #16]
    9818:	e4924004 	ldr	r4, [r2], #4
    981c:	e1540006 	cmp	r4, r6
    9820:	e5d73001 	ldrb	r3, [r7, #1]
    9824:	b1a04006 	movlt	r4, r6
    9828:	e1a07001 	mov	r7, r1
    982c:	e58d2010 	str	r2, [sp, #16]
    9830:	eafffb63 	b	85c4 <_vfiprintf_r+0x184>
    9834:	0000bf68 	.word	0x0000bf68
    9838:	0000c1ec 	.word	0x0000c1ec
    983c:	0000c1dc 	.word	0x0000c1dc
    9840:	0000bf7c 	.word	0x0000bf7c
    9844:	0000bf90 	.word	0x0000bf90

00009848 <__sbprintf>:
    9848:	e92d41f0 	push	{r4, r5, r6, r7, r8, lr}
    984c:	e24dde46 	sub	sp, sp, #1120	; 0x460
    9850:	e24dd008 	sub	sp, sp, #8
    9854:	e1a0700d 	mov	r7, sp
    9858:	e3a0cb01 	mov	ip, #1024	; 0x400
    985c:	e3a0e000 	mov	lr, #0
    9860:	e1a05002 	mov	r5, r2
    9864:	e1a06000 	mov	r6, r0
    9868:	e1a08003 	mov	r8, r3
    986c:	e28d3068 	add	r3, sp, #104	; 0x68
    9870:	e58d3000 	str	r3, [sp]
    9874:	e58d3010 	str	r3, [sp, #16]
    9878:	e1d130bc 	ldrh	r3, [r1, #12]
    987c:	e3c33002 	bic	r3, r3, #2
    9880:	e1c730bc 	strh	r3, [r7, #12]
    9884:	e5913064 	ldr	r3, [r1, #100]	; 0x64
    9888:	e58d3064 	str	r3, [sp, #100]	; 0x64
    988c:	e1d130be 	ldrh	r3, [r1, #14]
    9890:	e1c730be 	strh	r3, [r7, #14]
    9894:	e591301c 	ldr	r3, [r1, #28]
    9898:	e58d301c 	str	r3, [sp, #28]
    989c:	e5913024 	ldr	r3, [r1, #36]	; 0x24
    98a0:	e28d0058 	add	r0, sp, #88	; 0x58
    98a4:	e1a04001 	mov	r4, r1
    98a8:	e58de018 	str	lr, [sp, #24]
    98ac:	e58dc008 	str	ip, [sp, #8]
    98b0:	e58dc014 	str	ip, [sp, #20]
    98b4:	e58d3024 	str	r3, [sp, #36]	; 0x24
    98b8:	ebfff47f 	bl	6abc <__retarget_lock_init_recursive>
    98bc:	e1a02005 	mov	r2, r5
    98c0:	e1a03008 	mov	r3, r8
    98c4:	e1a01007 	mov	r1, r7
    98c8:	e1a00006 	mov	r0, r6
    98cc:	ebfffadb 	bl	8440 <_vfiprintf_r>
    98d0:	e2505000 	subs	r5, r0, #0
    98d4:	ba000004 	blt	98ec <__sbprintf+0xa4>
    98d8:	e1a01007 	mov	r1, r7
    98dc:	e1a00006 	mov	r0, r6
    98e0:	ebfff2ac 	bl	6398 <_fflush_r>
    98e4:	e3500000 	cmp	r0, #0
    98e8:	13e05000 	mvnne	r5, #0
    98ec:	e1dd30bc 	ldrh	r3, [sp, #12]
    98f0:	e3130040 	tst	r3, #64	; 0x40
    98f4:	11d430bc 	ldrhne	r3, [r4, #12]
    98f8:	13833040 	orrne	r3, r3, #64	; 0x40
    98fc:	e59d0058 	ldr	r0, [sp, #88]	; 0x58
    9900:	11c430bc 	strhne	r3, [r4, #12]
    9904:	ebfff46d 	bl	6ac0 <__retarget_lock_close_recursive>
    9908:	e1a00005 	mov	r0, r5
    990c:	e28dde46 	add	sp, sp, #1120	; 0x460
    9910:	e28dd008 	add	sp, sp, #8
    9914:	e8bd41f0 	pop	{r4, r5, r6, r7, r8, lr}
    9918:	e12fff1e 	bx	lr

0000991c <_write_r>:
    991c:	e92d4070 	push	{r4, r5, r6, lr}
    9920:	e1a0e001 	mov	lr, r1
    9924:	e1a01002 	mov	r1, r2
    9928:	e3a02000 	mov	r2, #0
    992c:	e59f502c 	ldr	r5, [pc, #44]	; 9960 <_write_r+0x44>
    9930:	e1a04000 	mov	r4, r0
    9934:	e5852000 	str	r2, [r5]
    9938:	e1a0000e 	mov	r0, lr
    993c:	e1a02003 	mov	r2, r3
    9940:	eb0008af 	bl	bc04 <___write_from_arm>
    9944:	e3700001 	cmn	r0, #1
    9948:	1a000002 	bne	9958 <_write_r+0x3c>
    994c:	e5953000 	ldr	r3, [r5]
    9950:	e3530000 	cmp	r3, #0
    9954:	15843000 	strne	r3, [r4]
    9958:	e8bd4070 	pop	{r4, r5, r6, lr}
    995c:	e12fff1e 	bx	lr
    9960:	20000f34 	.word	0x20000f34

00009964 <__register_exitproc>:
    9964:	e92d41f0 	push	{r4, r5, r6, r7, r8, lr}
    9968:	e59f80a8 	ldr	r8, [pc, #168]	; 9a18 <__register_exitproc+0xb4>
    996c:	e1a04000 	mov	r4, r0
    9970:	e5980000 	ldr	r0, [r8]
    9974:	e1a06003 	mov	r6, r3
    9978:	e1a05001 	mov	r5, r1
    997c:	e1a07002 	mov	r7, r2
    9980:	ebfff44f 	bl	6ac4 <__retarget_lock_acquire_recursive>
    9984:	e59f3090 	ldr	r3, [pc, #144]	; 9a1c <__register_exitproc+0xb8>
    9988:	e5933000 	ldr	r3, [r3]
    998c:	e593c148 	ldr	ip, [r3, #328]	; 0x148
    9990:	e35c0000 	cmp	ip, #0
    9994:	0283cf53 	addeq	ip, r3, #332	; 0x14c
    9998:	e59ce004 	ldr	lr, [ip, #4]
    999c:	0583c148 	streq	ip, [r3, #328]	; 0x148
    99a0:	e35e001f 	cmp	lr, #31
    99a4:	ca000017 	bgt	9a08 <__register_exitproc+0xa4>
    99a8:	e3540000 	cmp	r4, #0
    99ac:	1a000008 	bne	99d4 <__register_exitproc+0x70>
    99b0:	e28e3001 	add	r3, lr, #1
    99b4:	e28ee002 	add	lr, lr, #2
    99b8:	e58c3004 	str	r3, [ip, #4]
    99bc:	e5980000 	ldr	r0, [r8]
    99c0:	e78c510e 	str	r5, [ip, lr, lsl #2]
    99c4:	ebfff43f 	bl	6ac8 <__retarget_lock_release_recursive>
    99c8:	e3a00000 	mov	r0, #0
    99cc:	e8bd41f0 	pop	{r4, r5, r6, r7, r8, lr}
    99d0:	e12fff1e 	bx	lr
    99d4:	e3a03001 	mov	r3, #1
    99d8:	e08c110e 	add	r1, ip, lr, lsl #2
    99dc:	e5817088 	str	r7, [r1, #136]	; 0x88
    99e0:	e59c2188 	ldr	r2, [ip, #392]	; 0x188
    99e4:	e1a03e13 	lsl	r3, r3, lr
    99e8:	e1822003 	orr	r2, r2, r3
    99ec:	e58c2188 	str	r2, [ip, #392]	; 0x188
    99f0:	e5816108 	str	r6, [r1, #264]	; 0x108
    99f4:	e3540002 	cmp	r4, #2
    99f8:	059c218c 	ldreq	r2, [ip, #396]	; 0x18c
    99fc:	01823003 	orreq	r3, r2, r3
    9a00:	058c318c 	streq	r3, [ip, #396]	; 0x18c
    9a04:	eaffffe9 	b	99b0 <__register_exitproc+0x4c>
    9a08:	e5980000 	ldr	r0, [r8]
    9a0c:	ebfff42d 	bl	6ac8 <__retarget_lock_release_recursive>
    9a10:	e3e00000 	mvn	r0, #0
    9a14:	eaffffec 	b	99cc <__register_exitproc+0x68>
    9a18:	200004f0 	.word	0x200004f0
    9a1c:	0000bf54 	.word	0x0000bf54

00009a20 <__assert_func>:
    9a20:	e59fc044 	ldr	ip, [pc, #68]	; 9a6c <__assert_func+0x4c>
    9a24:	e59cc000 	ldr	ip, [ip]
    9a28:	e59c500c 	ldr	r5, [ip, #12]
    9a2c:	e252c000 	subs	ip, r2, #0
    9a30:	e52de004 	push	{lr}		; (str lr, [sp, #-4]!)
    9a34:	e1a0e001 	mov	lr, r1
    9a38:	059f1030 	ldreq	r1, [pc, #48]	; 9a70 <__assert_func+0x50>
    9a3c:	01a0c001 	moveq	ip, r1
    9a40:	159f102c 	ldrne	r1, [pc, #44]	; 9a74 <__assert_func+0x54>
    9a44:	e24dd014 	sub	sp, sp, #20
    9a48:	e1a02003 	mov	r2, r3
    9a4c:	e58dc008 	str	ip, [sp, #8]
    9a50:	e1a03000 	mov	r3, r0
    9a54:	e58d1004 	str	r1, [sp, #4]
    9a58:	e58de000 	str	lr, [sp]
    9a5c:	e59f1014 	ldr	r1, [pc, #20]	; 9a78 <__assert_func+0x58>
    9a60:	e1a00005 	mov	r0, r5
    9a64:	eb000095 	bl	9cc0 <fiprintf>
    9a68:	eb0004ca 	bl	ad98 <abort>
    9a6c:	200000c0 	.word	0x200000c0
    9a70:	0000bec8 	.word	0x0000bec8
    9a74:	0000c1fc 	.word	0x0000c1fc
    9a78:	0000c20c 	.word	0x0000c20c

00009a7c <_calloc_r>:
    9a7c:	e92d4010 	push	{r4, lr}
    9a80:	e0010192 	mul	r1, r2, r1
    9a84:	ebfff461 	bl	6c10 <_malloc_r>
    9a88:	e2504000 	subs	r4, r0, #0
    9a8c:	0a00000b 	beq	9ac0 <_calloc_r+0x44>
    9a90:	e5142004 	ldr	r2, [r4, #-4]
    9a94:	e3c22003 	bic	r2, r2, #3
    9a98:	e2422004 	sub	r2, r2, #4
    9a9c:	e3520024 	cmp	r2, #36	; 0x24
    9aa0:	8a000017 	bhi	9b04 <_calloc_r+0x88>
    9aa4:	e3520013 	cmp	r2, #19
    9aa8:	91a02004 	movls	r2, r4
    9aac:	8a000006 	bhi	9acc <_calloc_r+0x50>
    9ab0:	e3a03000 	mov	r3, #0
    9ab4:	e5823000 	str	r3, [r2]
    9ab8:	e5823004 	str	r3, [r2, #4]
    9abc:	e5823008 	str	r3, [r2, #8]
    9ac0:	e1a00004 	mov	r0, r4
    9ac4:	e8bd4010 	pop	{r4, lr}
    9ac8:	e12fff1e 	bx	lr
    9acc:	e3a03000 	mov	r3, #0
    9ad0:	e352001b 	cmp	r2, #27
    9ad4:	e5843000 	str	r3, [r4]
    9ad8:	e5843004 	str	r3, [r4, #4]
    9adc:	92842008 	addls	r2, r4, #8
    9ae0:	9afffff2 	bls	9ab0 <_calloc_r+0x34>
    9ae4:	e3520024 	cmp	r2, #36	; 0x24
    9ae8:	e5843008 	str	r3, [r4, #8]
    9aec:	e584300c 	str	r3, [r4, #12]
    9af0:	05843010 	streq	r3, [r4, #16]
    9af4:	05843014 	streq	r3, [r4, #20]
    9af8:	12842010 	addne	r2, r4, #16
    9afc:	02842018 	addeq	r2, r4, #24
    9b00:	eaffffea 	b	9ab0 <_calloc_r+0x34>
    9b04:	e3a01000 	mov	r1, #0
    9b08:	ebffdfcd 	bl	1a44 <memset>
    9b0c:	e1a00004 	mov	r0, r4
    9b10:	e8bd4010 	pop	{r4, lr}
    9b14:	e12fff1e 	bx	lr

00009b18 <_close_r>:
    9b18:	e3a02000 	mov	r2, #0
    9b1c:	e92d4070 	push	{r4, r5, r6, lr}
    9b20:	e59f5028 	ldr	r5, [pc, #40]	; 9b50 <_close_r+0x38>
    9b24:	e1a04000 	mov	r4, r0
    9b28:	e1a00001 	mov	r0, r1
    9b2c:	e5852000 	str	r2, [r5]
    9b30:	eb0007f3 	bl	bb04 <_close>
    9b34:	e3700001 	cmn	r0, #1
    9b38:	1a000002 	bne	9b48 <_close_r+0x30>
    9b3c:	e5953000 	ldr	r3, [r5]
    9b40:	e3530000 	cmp	r3, #0
    9b44:	15843000 	strne	r3, [r4]
    9b48:	e8bd4070 	pop	{r4, r5, r6, lr}
    9b4c:	e12fff1e 	bx	lr
    9b50:	20000f34 	.word	0x20000f34

00009b54 <_fclose_r>:
    9b54:	e92d4070 	push	{r4, r5, r6, lr}
    9b58:	e2514000 	subs	r4, r1, #0
    9b5c:	0a000042 	beq	9c6c <_fclose_r+0x118>
    9b60:	e3500000 	cmp	r0, #0
    9b64:	e1a05000 	mov	r5, r0
    9b68:	0a000002 	beq	9b78 <_fclose_r+0x24>
    9b6c:	e5903038 	ldr	r3, [r0, #56]	; 0x38
    9b70:	e3530000 	cmp	r3, #0
    9b74:	0a000040 	beq	9c7c <_fclose_r+0x128>
    9b78:	e5943064 	ldr	r3, [r4, #100]	; 0x64
    9b7c:	e3130001 	tst	r3, #1
    9b80:	0a00002e 	beq	9c40 <_fclose_r+0xec>
    9b84:	e1d430fc 	ldrsh	r3, [r4, #12]
    9b88:	e3530000 	cmp	r3, #0
    9b8c:	0a000036 	beq	9c6c <_fclose_r+0x118>
    9b90:	e1a01004 	mov	r1, r4
    9b94:	e1a00005 	mov	r0, r5
    9b98:	ebfff16d 	bl	6154 <__sflush_r>
    9b9c:	e594302c 	ldr	r3, [r4, #44]	; 0x2c
    9ba0:	e3530000 	cmp	r3, #0
    9ba4:	e1a06000 	mov	r6, r0
    9ba8:	0a000005 	beq	9bc4 <_fclose_r+0x70>
    9bac:	e1a00005 	mov	r0, r5
    9bb0:	e594101c 	ldr	r1, [r4, #28]
    9bb4:	e1a0e00f 	mov	lr, pc
    9bb8:	e12fff13 	bx	r3
    9bbc:	e3500000 	cmp	r0, #0
    9bc0:	b3e06000 	mvnlt	r6, #0
    9bc4:	e1d430bc 	ldrh	r3, [r4, #12]
    9bc8:	e3130080 	tst	r3, #128	; 0x80
    9bcc:	1a000034 	bne	9ca4 <_fclose_r+0x150>
    9bd0:	e5941030 	ldr	r1, [r4, #48]	; 0x30
    9bd4:	e3510000 	cmp	r1, #0
    9bd8:	0a000005 	beq	9bf4 <_fclose_r+0xa0>
    9bdc:	e2843040 	add	r3, r4, #64	; 0x40
    9be0:	e1510003 	cmp	r1, r3
    9be4:	11a00005 	movne	r0, r5
    9be8:	1bfff2d7 	blne	674c <_free_r>
    9bec:	e3a03000 	mov	r3, #0
    9bf0:	e5843030 	str	r3, [r4, #48]	; 0x30
    9bf4:	e5941044 	ldr	r1, [r4, #68]	; 0x44
    9bf8:	e3510000 	cmp	r1, #0
    9bfc:	0a000003 	beq	9c10 <_fclose_r+0xbc>
    9c00:	e1a00005 	mov	r0, r5
    9c04:	ebfff2d0 	bl	674c <_free_r>
    9c08:	e3a03000 	mov	r3, #0
    9c0c:	e5843044 	str	r3, [r4, #68]	; 0x44
    9c10:	ebfff270 	bl	65d8 <__sfp_lock_acquire>
    9c14:	e3a03000 	mov	r3, #0
    9c18:	e5942064 	ldr	r2, [r4, #100]	; 0x64
    9c1c:	e3120001 	tst	r2, #1
    9c20:	e1c430bc 	strh	r3, [r4, #12]
    9c24:	0a000022 	beq	9cb4 <_fclose_r+0x160>
    9c28:	e5940058 	ldr	r0, [r4, #88]	; 0x58
    9c2c:	ebfff3a3 	bl	6ac0 <__retarget_lock_close_recursive>
    9c30:	ebfff26e 	bl	65f0 <__sfp_lock_release>
    9c34:	e1a00006 	mov	r0, r6
    9c38:	e8bd4070 	pop	{r4, r5, r6, lr}
    9c3c:	e12fff1e 	bx	lr
    9c40:	e1d430bc 	ldrh	r3, [r4, #12]
    9c44:	e3130c02 	tst	r3, #512	; 0x200
    9c48:	1affffd0 	bne	9b90 <_fclose_r+0x3c>
    9c4c:	e5940058 	ldr	r0, [r4, #88]	; 0x58
    9c50:	ebfff39b 	bl	6ac4 <__retarget_lock_acquire_recursive>
    9c54:	e1d430fc 	ldrsh	r3, [r4, #12]
    9c58:	e3530000 	cmp	r3, #0
    9c5c:	1affffcb 	bne	9b90 <_fclose_r+0x3c>
    9c60:	e5946064 	ldr	r6, [r4, #100]	; 0x64
    9c64:	e2166001 	ands	r6, r6, #1
    9c68:	0a000008 	beq	9c90 <_fclose_r+0x13c>
    9c6c:	e3a06000 	mov	r6, #0
    9c70:	e1a00006 	mov	r0, r6
    9c74:	e8bd4070 	pop	{r4, r5, r6, lr}
    9c78:	e12fff1e 	bx	lr
    9c7c:	ebfff1f2 	bl	644c <__sinit>
    9c80:	e5943064 	ldr	r3, [r4, #100]	; 0x64
    9c84:	e3130001 	tst	r3, #1
    9c88:	1affffbd 	bne	9b84 <_fclose_r+0x30>
    9c8c:	eaffffeb 	b	9c40 <_fclose_r+0xec>
    9c90:	e5940058 	ldr	r0, [r4, #88]	; 0x58
    9c94:	ebfff38b 	bl	6ac8 <__retarget_lock_release_recursive>
    9c98:	e1a00006 	mov	r0, r6
    9c9c:	e8bd4070 	pop	{r4, r5, r6, lr}
    9ca0:	e12fff1e 	bx	lr
    9ca4:	e1a00005 	mov	r0, r5
    9ca8:	e5941010 	ldr	r1, [r4, #16]
    9cac:	ebfff2a6 	bl	674c <_free_r>
    9cb0:	eaffffc6 	b	9bd0 <_fclose_r+0x7c>
    9cb4:	e5940058 	ldr	r0, [r4, #88]	; 0x58
    9cb8:	ebfff382 	bl	6ac8 <__retarget_lock_release_recursive>
    9cbc:	eaffffd9 	b	9c28 <_fclose_r+0xd4>

00009cc0 <fiprintf>:
    9cc0:	e92d000e 	push	{r1, r2, r3}
    9cc4:	e52de004 	push	{lr}		; (str lr, [sp, #-4]!)
    9cc8:	e1a01000 	mov	r1, r0
    9ccc:	e59f0024 	ldr	r0, [pc, #36]	; 9cf8 <fiprintf+0x38>
    9cd0:	e24dd008 	sub	sp, sp, #8
    9cd4:	e28d3010 	add	r3, sp, #16
    9cd8:	e59d200c 	ldr	r2, [sp, #12]
    9cdc:	e5900000 	ldr	r0, [r0]
    9ce0:	e58d3004 	str	r3, [sp, #4]
    9ce4:	ebfff9d5 	bl	8440 <_vfiprintf_r>
    9ce8:	e28dd008 	add	sp, sp, #8
    9cec:	e49de004 	pop	{lr}		; (ldr lr, [sp], #4)
    9cf0:	e28dd00c 	add	sp, sp, #12
    9cf4:	e12fff1e 	bx	lr
    9cf8:	200000c0 	.word	0x200000c0

00009cfc <__fputwc>:
    9cfc:	e92d43f0 	push	{r4, r5, r6, r7, r8, r9, lr}
    9d00:	e24dd00c 	sub	sp, sp, #12
    9d04:	e1a07000 	mov	r7, r0
    9d08:	e1a08001 	mov	r8, r1
    9d0c:	e1a04002 	mov	r4, r2
    9d10:	eb0001bd 	bl	a40c <__locale_mb_cur_max>
    9d14:	e3500001 	cmp	r0, #1
    9d18:	1a000002 	bne	9d28 <__fputwc+0x2c>
    9d1c:	e2483001 	sub	r3, r8, #1
    9d20:	e35300fe 	cmp	r3, #254	; 0xfe
    9d24:	9a00002c 	bls	9ddc <__fputwc+0xe0>
    9d28:	e1a02008 	mov	r2, r8
    9d2c:	e1a00007 	mov	r0, r7
    9d30:	e284305c 	add	r3, r4, #92	; 0x5c
    9d34:	e28d1004 	add	r1, sp, #4
    9d38:	eb0003f4 	bl	ad10 <_wcrtomb_r>
    9d3c:	e3700001 	cmn	r0, #1
    9d40:	e1a06000 	mov	r6, r0
    9d44:	0a00002d 	beq	9e00 <__fputwc+0x104>
    9d48:	e3500000 	cmp	r0, #0
    9d4c:	0a000026 	beq	9dec <__fputwc+0xf0>
    9d50:	e5dd1004 	ldrb	r1, [sp, #4]
    9d54:	e3a05000 	mov	r5, #0
    9d58:	e28d9005 	add	r9, sp, #5
    9d5c:	ea000007 	b	9d80 <__fputwc+0x84>
    9d60:	e5943000 	ldr	r3, [r4]
    9d64:	e2832001 	add	r2, r3, #1
    9d68:	e5842000 	str	r2, [r4]
    9d6c:	e5c31000 	strb	r1, [r3]
    9d70:	e2855001 	add	r5, r5, #1
    9d74:	e1550006 	cmp	r5, r6
    9d78:	2a00001b 	bcs	9dec <__fputwc+0xf0>
    9d7c:	e4d91001 	ldrb	r1, [r9], #1
    9d80:	e5943008 	ldr	r3, [r4, #8]
    9d84:	e2433001 	sub	r3, r3, #1
    9d88:	e3530000 	cmp	r3, #0
    9d8c:	e5843008 	str	r3, [r4, #8]
    9d90:	aafffff2 	bge	9d60 <__fputwc+0x64>
    9d94:	e5942018 	ldr	r2, [r4, #24]
    9d98:	e1530002 	cmp	r3, r2
    9d9c:	b3a03000 	movlt	r3, #0
    9da0:	a3a03001 	movge	r3, #1
    9da4:	e351000a 	cmp	r1, #10
    9da8:	03a03000 	moveq	r3, #0
    9dac:	e3530000 	cmp	r3, #0
    9db0:	1affffea 	bne	9d60 <__fputwc+0x64>
    9db4:	e1a02004 	mov	r2, r4
    9db8:	e1a00007 	mov	r0, r7
    9dbc:	eb000386 	bl	abdc <__swbuf_r>
    9dc0:	e3700001 	cmn	r0, #1
    9dc4:	1affffe9 	bne	9d70 <__fputwc+0x74>
    9dc8:	e1a06000 	mov	r6, r0
    9dcc:	e1a00006 	mov	r0, r6
    9dd0:	e28dd00c 	add	sp, sp, #12
    9dd4:	e8bd43f0 	pop	{r4, r5, r6, r7, r8, r9, lr}
    9dd8:	e12fff1e 	bx	lr
    9ddc:	e20810ff 	and	r1, r8, #255	; 0xff
    9de0:	e1a06000 	mov	r6, r0
    9de4:	e5cd1004 	strb	r1, [sp, #4]
    9de8:	eaffffd9 	b	9d54 <__fputwc+0x58>
    9dec:	e1a06008 	mov	r6, r8
    9df0:	e1a00006 	mov	r0, r6
    9df4:	e28dd00c 	add	sp, sp, #12
    9df8:	e8bd43f0 	pop	{r4, r5, r6, r7, r8, r9, lr}
    9dfc:	e12fff1e 	bx	lr
    9e00:	e1d430bc 	ldrh	r3, [r4, #12]
    9e04:	e3833040 	orr	r3, r3, #64	; 0x40
    9e08:	e1c430bc 	strh	r3, [r4, #12]
    9e0c:	eaffffee 	b	9dcc <__fputwc+0xd0>

00009e10 <_fputwc_r>:
    9e10:	e92d4030 	push	{r4, r5, lr}
    9e14:	e5923064 	ldr	r3, [r2, #100]	; 0x64
    9e18:	e1a04002 	mov	r4, r2
    9e1c:	e1d220fc 	ldrsh	r2, [r2, #12]
    9e20:	e3130001 	tst	r3, #1
    9e24:	e1a03802 	lsl	r3, r2, #16
    9e28:	e1a05000 	mov	r5, r0
    9e2c:	e24dd00c 	sub	sp, sp, #12
    9e30:	11a03823 	lsrne	r3, r3, #16
    9e34:	1a000002 	bne	9e44 <_fputwc_r+0x34>
    9e38:	e3120c02 	tst	r2, #512	; 0x200
    9e3c:	e1a03823 	lsr	r3, r3, #16
    9e40:	0a000019 	beq	9eac <_fputwc_r+0x9c>
    9e44:	e3130a02 	tst	r3, #8192	; 0x2000
    9e48:	05943064 	ldreq	r3, [r4, #100]	; 0x64
    9e4c:	03822a02 	orreq	r2, r2, #8192	; 0x2000
    9e50:	03833a02 	orreq	r3, r3, #8192	; 0x2000
    9e54:	01c420bc 	strheq	r2, [r4, #12]
    9e58:	05843064 	streq	r3, [r4, #100]	; 0x64
    9e5c:	e1a00005 	mov	r0, r5
    9e60:	e1a02004 	mov	r2, r4
    9e64:	ebffffa4 	bl	9cfc <__fputwc>
    9e68:	e5943064 	ldr	r3, [r4, #100]	; 0x64
    9e6c:	e3130001 	tst	r3, #1
    9e70:	e1a05000 	mov	r5, r0
    9e74:	1a000002 	bne	9e84 <_fputwc_r+0x74>
    9e78:	e1d430bc 	ldrh	r3, [r4, #12]
    9e7c:	e3130c02 	tst	r3, #512	; 0x200
    9e80:	0a000003 	beq	9e94 <_fputwc_r+0x84>
    9e84:	e1a00005 	mov	r0, r5
    9e88:	e28dd00c 	add	sp, sp, #12
    9e8c:	e8bd4030 	pop	{r4, r5, lr}
    9e90:	e12fff1e 	bx	lr
    9e94:	e5940058 	ldr	r0, [r4, #88]	; 0x58
    9e98:	ebfff30a 	bl	6ac8 <__retarget_lock_release_recursive>
    9e9c:	e1a00005 	mov	r0, r5
    9ea0:	e28dd00c 	add	sp, sp, #12
    9ea4:	e8bd4030 	pop	{r4, r5, lr}
    9ea8:	e12fff1e 	bx	lr
    9eac:	e5940058 	ldr	r0, [r4, #88]	; 0x58
    9eb0:	e58d1004 	str	r1, [sp, #4]
    9eb4:	ebfff302 	bl	6ac4 <__retarget_lock_acquire_recursive>
    9eb8:	e1d420fc 	ldrsh	r2, [r4, #12]
    9ebc:	e1a03802 	lsl	r3, r2, #16
    9ec0:	e59d1004 	ldr	r1, [sp, #4]
    9ec4:	e1a03823 	lsr	r3, r3, #16
    9ec8:	eaffffdd 	b	9e44 <_fputwc_r+0x34>

00009ecc <_fstat_r>:
    9ecc:	e3a0c000 	mov	ip, #0
    9ed0:	e92d4070 	push	{r4, r5, r6, lr}
    9ed4:	e59f502c 	ldr	r5, [pc, #44]	; 9f08 <_fstat_r+0x3c>
    9ed8:	e1a04000 	mov	r4, r0
    9edc:	e1a00001 	mov	r0, r1
    9ee0:	e1a01002 	mov	r1, r2
    9ee4:	e585c000 	str	ip, [r5]
    9ee8:	eb00070b 	bl	bb1c <_fstat>
    9eec:	e3700001 	cmn	r0, #1
    9ef0:	1a000002 	bne	9f00 <_fstat_r+0x34>
    9ef4:	e5953000 	ldr	r3, [r5]
    9ef8:	e3530000 	cmp	r3, #0
    9efc:	15843000 	strne	r3, [r4]
    9f00:	e8bd4070 	pop	{r4, r5, r6, lr}
    9f04:	e12fff1e 	bx	lr
    9f08:	20000f34 	.word	0x20000f34

00009f0c <__sfvwrite_r>:
    9f0c:	e5923008 	ldr	r3, [r2, #8]
    9f10:	e3530000 	cmp	r3, #0
    9f14:	0a000092 	beq	a164 <__sfvwrite_r+0x258>
    9f18:	e92d4ff0 	push	{r4, r5, r6, r7, r8, r9, sl, fp, lr}
    9f1c:	e1d130fc 	ldrsh	r3, [r1, #12]
    9f20:	e1a03803 	lsl	r3, r3, #16
    9f24:	e3130702 	tst	r3, #524288	; 0x80000
    9f28:	e1a07002 	mov	r7, r2
    9f2c:	e1a09000 	mov	r9, r0
    9f30:	e1a04001 	mov	r4, r1
    9f34:	e24dd00c 	sub	sp, sp, #12
    9f38:	e1a08823 	lsr	r8, r3, #16
    9f3c:	0a000020 	beq	9fc4 <__sfvwrite_r+0xb8>
    9f40:	e5912010 	ldr	r2, [r1, #16]
    9f44:	e3520000 	cmp	r2, #0
    9f48:	0a00001d 	beq	9fc4 <__sfvwrite_r+0xb8>
    9f4c:	e218a002 	ands	sl, r8, #2
    9f50:	e5976000 	ldr	r6, [r7]
    9f54:	0a000025 	beq	9ff0 <__sfvwrite_r+0xe4>
    9f58:	e3a0a000 	mov	sl, #0
    9f5c:	e1a0500a 	mov	r5, sl
    9f60:	e59f8464 	ldr	r8, [pc, #1124]	; a3cc <__sfvwrite_r+0x4c0>
    9f64:	e3550000 	cmp	r5, #0
    9f68:	0a00006d 	beq	a124 <__sfvwrite_r+0x218>
    9f6c:	e1550008 	cmp	r5, r8
    9f70:	31a03005 	movcc	r3, r5
    9f74:	21a03008 	movcs	r3, r8
    9f78:	e1a0200a 	mov	r2, sl
    9f7c:	e1a00009 	mov	r0, r9
    9f80:	e594b024 	ldr	fp, [r4, #36]	; 0x24
    9f84:	e594101c 	ldr	r1, [r4, #28]
    9f88:	e1a0e00f 	mov	lr, pc
    9f8c:	e12fff1b 	bx	fp
    9f90:	e3500000 	cmp	r0, #0
    9f94:	da00006b 	ble	a148 <__sfvwrite_r+0x23c>
    9f98:	e5973008 	ldr	r3, [r7, #8]
    9f9c:	e0433000 	sub	r3, r3, r0
    9fa0:	e3530000 	cmp	r3, #0
    9fa4:	e5873008 	str	r3, [r7, #8]
    9fa8:	e08aa000 	add	sl, sl, r0
    9fac:	e0455000 	sub	r5, r5, r0
    9fb0:	1affffeb 	bne	9f64 <__sfvwrite_r+0x58>
    9fb4:	e3a00000 	mov	r0, #0
    9fb8:	e28dd00c 	add	sp, sp, #12
    9fbc:	e8bd4ff0 	pop	{r4, r5, r6, r7, r8, r9, sl, fp, lr}
    9fc0:	e12fff1e 	bx	lr
    9fc4:	e1a01004 	mov	r1, r4
    9fc8:	e1a00009 	mov	r0, r9
    9fcc:	ebffe96a 	bl	457c <__swsetup_r>
    9fd0:	e3500000 	cmp	r0, #0
    9fd4:	1a0000fa 	bne	a3c4 <__sfvwrite_r+0x4b8>
    9fd8:	e1d430fc 	ldrsh	r3, [r4, #12]
    9fdc:	e1a03803 	lsl	r3, r3, #16
    9fe0:	e1a08823 	lsr	r8, r3, #16
    9fe4:	e218a002 	ands	sl, r8, #2
    9fe8:	e5976000 	ldr	r6, [r7]
    9fec:	1affffd9 	bne	9f58 <__sfvwrite_r+0x4c>
    9ff0:	e2188001 	ands	r8, r8, #1
    9ff4:	1a00005c 	bne	a16c <__sfvwrite_r+0x260>
    9ff8:	e1a05008 	mov	r5, r8
    9ffc:	e3550000 	cmp	r5, #0
    a000:	0a000043 	beq	a114 <__sfvwrite_r+0x208>
    a004:	e3130402 	tst	r3, #33554432	; 0x2000000
    a008:	e594a008 	ldr	sl, [r4, #8]
    a00c:	e1a03823 	lsr	r3, r3, #16
    a010:	0a000090 	beq	a258 <__sfvwrite_r+0x34c>
    a014:	e15a0005 	cmp	sl, r5
    a018:	e1a0200a 	mov	r2, sl
    a01c:	8a0000a4 	bhi	a2b4 <__sfvwrite_r+0x3a8>
    a020:	e3130d12 	tst	r3, #1152	; 0x480
    a024:	0a0000a4 	beq	a2bc <__sfvwrite_r+0x3b0>
    a028:	e5940010 	ldr	r0, [r4, #16]
    a02c:	e594a000 	ldr	sl, [r4]
    a030:	e5942014 	ldr	r2, [r4, #20]
    a034:	e04aa000 	sub	sl, sl, r0
    a038:	e0822082 	add	r2, r2, r2, lsl #1
    a03c:	e0822fa2 	add	r2, r2, r2, lsr #31
    a040:	e28a1001 	add	r1, sl, #1
    a044:	e1a020c2 	asr	r2, r2, #1
    a048:	e0811005 	add	r1, r1, r5
    a04c:	e1510002 	cmp	r1, r2
    a050:	91a0b002 	movls	fp, r2
    a054:	81a0b001 	movhi	fp, r1
    a058:	81a02001 	movhi	r2, r1
    a05c:	e3130b01 	tst	r3, #1024	; 0x400
    a060:	0a0000c3 	beq	a374 <__sfvwrite_r+0x468>
    a064:	e1a01002 	mov	r1, r2
    a068:	e1a00009 	mov	r0, r9
    a06c:	ebfff2e7 	bl	6c10 <_malloc_r>
    a070:	e2503000 	subs	r3, r0, #0
    a074:	0a0000ce 	beq	a3b4 <__sfvwrite_r+0x4a8>
    a078:	e1a0200a 	mov	r2, sl
    a07c:	e5941010 	ldr	r1, [r4, #16]
    a080:	e58d3004 	str	r3, [sp, #4]
    a084:	ebffde26 	bl	1924 <memcpy>
    a088:	e1d420bc 	ldrh	r2, [r4, #12]
    a08c:	e3c22d12 	bic	r2, r2, #1152	; 0x480
    a090:	e3822080 	orr	r2, r2, #128	; 0x80
    a094:	e1c420bc 	strh	r2, [r4, #12]
    a098:	e59d3004 	ldr	r3, [sp, #4]
    a09c:	e083000a 	add	r0, r3, sl
    a0a0:	e04ba00a 	sub	sl, fp, sl
    a0a4:	e584a008 	str	sl, [r4, #8]
    a0a8:	e1a02005 	mov	r2, r5
    a0ac:	e1a0a005 	mov	sl, r5
    a0b0:	e5843010 	str	r3, [r4, #16]
    a0b4:	e584b014 	str	fp, [r4, #20]
    a0b8:	e5840000 	str	r0, [r4]
    a0bc:	e1a0b005 	mov	fp, r5
    a0c0:	e3a05000 	mov	r5, #0
    a0c4:	e1a01008 	mov	r1, r8
    a0c8:	e58d2004 	str	r2, [sp, #4]
    a0cc:	eb0000f5 	bl	a4a8 <memmove>
    a0d0:	e5943008 	ldr	r3, [r4, #8]
    a0d4:	e59d2004 	ldr	r2, [sp, #4]
    a0d8:	e043a00a 	sub	sl, r3, sl
    a0dc:	e5943000 	ldr	r3, [r4]
    a0e0:	e0832002 	add	r2, r3, r2
    a0e4:	e584a008 	str	sl, [r4, #8]
    a0e8:	e5842000 	str	r2, [r4]
    a0ec:	e5970008 	ldr	r0, [r7, #8]
    a0f0:	e088800b 	add	r8, r8, fp
    a0f4:	e040b00b 	sub	fp, r0, fp
    a0f8:	e35b0000 	cmp	fp, #0
    a0fc:	e587b008 	str	fp, [r7, #8]
    a100:	0affffab 	beq	9fb4 <__sfvwrite_r+0xa8>
    a104:	e1d430fc 	ldrsh	r3, [r4, #12]
    a108:	e3550000 	cmp	r5, #0
    a10c:	e1a03803 	lsl	r3, r3, #16
    a110:	1affffbb 	bne	a004 <__sfvwrite_r+0xf8>
    a114:	e5968000 	ldr	r8, [r6]
    a118:	e5965004 	ldr	r5, [r6, #4]
    a11c:	e2866008 	add	r6, r6, #8
    a120:	eaffffb5 	b	9ffc <__sfvwrite_r+0xf0>
    a124:	e596a000 	ldr	sl, [r6]
    a128:	e5965004 	ldr	r5, [r6, #4]
    a12c:	e2866008 	add	r6, r6, #8
    a130:	eaffff8b 	b	9f64 <__sfvwrite_r+0x58>
    a134:	e1a01004 	mov	r1, r4
    a138:	e1a00009 	mov	r0, r9
    a13c:	ebfff095 	bl	6398 <_fflush_r>
    a140:	e3500000 	cmp	r0, #0
    a144:	0a00002a 	beq	a1f4 <__sfvwrite_r+0x2e8>
    a148:	e1d430fc 	ldrsh	r3, [r4, #12]
    a14c:	e3e00000 	mvn	r0, #0
    a150:	e3833040 	orr	r3, r3, #64	; 0x40
    a154:	e1c430bc 	strh	r3, [r4, #12]
    a158:	e28dd00c 	add	sp, sp, #12
    a15c:	e8bd4ff0 	pop	{r4, r5, r6, r7, r8, r9, sl, fp, lr}
    a160:	e12fff1e 	bx	lr
    a164:	e3a00000 	mov	r0, #0
    a168:	e12fff1e 	bx	lr
    a16c:	e1a0000a 	mov	r0, sl
    a170:	e1a0b00a 	mov	fp, sl
    a174:	e1a0800a 	mov	r8, sl
    a178:	ea000024 	b	a210 <__sfvwrite_r+0x304>
    a17c:	e3500000 	cmp	r0, #0
    a180:	0a00002b 	beq	a234 <__sfvwrite_r+0x328>
    a184:	e1a0200a 	mov	r2, sl
    a188:	e1580002 	cmp	r8, r2
    a18c:	31a02008 	movcc	r2, r8
    a190:	e5941010 	ldr	r1, [r4, #16]
    a194:	e5943014 	ldr	r3, [r4, #20]
    a198:	e5945008 	ldr	r5, [r4, #8]
    a19c:	e5940000 	ldr	r0, [r4]
    a1a0:	e0835005 	add	r5, r3, r5
    a1a4:	e1500001 	cmp	r0, r1
    a1a8:	93a01000 	movls	r1, #0
    a1ac:	83a01001 	movhi	r1, #1
    a1b0:	e1520005 	cmp	r2, r5
    a1b4:	d3a01000 	movle	r1, #0
    a1b8:	e3510000 	cmp	r1, #0
    a1bc:	1a000060 	bne	a344 <__sfvwrite_r+0x438>
    a1c0:	e1530002 	cmp	r3, r2
    a1c4:	ca000052 	bgt	a314 <__sfvwrite_r+0x408>
    a1c8:	e5945024 	ldr	r5, [r4, #36]	; 0x24
    a1cc:	e1a0200b 	mov	r2, fp
    a1d0:	e1a00009 	mov	r0, r9
    a1d4:	e594101c 	ldr	r1, [r4, #28]
    a1d8:	e1a0e00f 	mov	lr, pc
    a1dc:	e12fff15 	bx	r5
    a1e0:	e2505000 	subs	r5, r0, #0
    a1e4:	daffffd7 	ble	a148 <__sfvwrite_r+0x23c>
    a1e8:	e05aa005 	subs	sl, sl, r5
    a1ec:	13a00001 	movne	r0, #1
    a1f0:	0affffcf 	beq	a134 <__sfvwrite_r+0x228>
    a1f4:	e5973008 	ldr	r3, [r7, #8]
    a1f8:	e0433005 	sub	r3, r3, r5
    a1fc:	e3530000 	cmp	r3, #0
    a200:	e5873008 	str	r3, [r7, #8]
    a204:	e08bb005 	add	fp, fp, r5
    a208:	e0488005 	sub	r8, r8, r5
    a20c:	0affff68 	beq	9fb4 <__sfvwrite_r+0xa8>
    a210:	e3580000 	cmp	r8, #0
    a214:	1affffd8 	bne	a17c <__sfvwrite_r+0x270>
    a218:	e2863008 	add	r3, r6, #8
    a21c:	e5138004 	ldr	r8, [r3, #-4]
    a220:	e3580000 	cmp	r8, #0
    a224:	e1a06003 	mov	r6, r3
    a228:	e513b008 	ldr	fp, [r3, #-8]
    a22c:	e2833008 	add	r3, r3, #8
    a230:	0afffff9 	beq	a21c <__sfvwrite_r+0x310>
    a234:	e1a02008 	mov	r2, r8
    a238:	e3a0100a 	mov	r1, #10
    a23c:	e1a0000b 	mov	r0, fp
    a240:	ebfff476 	bl	7420 <memchr>
    a244:	e3500000 	cmp	r0, #0
    a248:	0a000056 	beq	a3a8 <__sfvwrite_r+0x49c>
    a24c:	e2800001 	add	r0, r0, #1
    a250:	e040a00b 	sub	sl, r0, fp
    a254:	eaffffca 	b	a184 <__sfvwrite_r+0x278>
    a258:	e5940000 	ldr	r0, [r4]
    a25c:	e5943010 	ldr	r3, [r4, #16]
    a260:	e1500003 	cmp	r0, r3
    a264:	8a000016 	bhi	a2c4 <__sfvwrite_r+0x3b8>
    a268:	e594b014 	ldr	fp, [r4, #20]
    a26c:	e15b0005 	cmp	fp, r5
    a270:	8a000013 	bhi	a2c4 <__sfvwrite_r+0x3b8>
    a274:	e3750106 	cmn	r5, #-2147483647	; 0x80000001
    a278:	31a00005 	movcc	r0, r5
    a27c:	23e00102 	mvncs	r0, #-2147483648	; 0x80000000
    a280:	e1a0100b 	mov	r1, fp
    a284:	ebffdd24 	bl	171c <__divsi3>
    a288:	e1a02008 	mov	r2, r8
    a28c:	e003009b 	mul	r3, fp, r0
    a290:	e594a024 	ldr	sl, [r4, #36]	; 0x24
    a294:	e1a00009 	mov	r0, r9
    a298:	e594101c 	ldr	r1, [r4, #28]
    a29c:	e1a0e00f 	mov	lr, pc
    a2a0:	e12fff1a 	bx	sl
    a2a4:	e250b000 	subs	fp, r0, #0
    a2a8:	daffffa6 	ble	a148 <__sfvwrite_r+0x23c>
    a2ac:	e045500b 	sub	r5, r5, fp
    a2b0:	eaffff8d 	b	a0ec <__sfvwrite_r+0x1e0>
    a2b4:	e1a0a005 	mov	sl, r5
    a2b8:	e1a02005 	mov	r2, r5
    a2bc:	e5940000 	ldr	r0, [r4]
    a2c0:	eaffff7d 	b	a0bc <__sfvwrite_r+0x1b0>
    a2c4:	e15a0005 	cmp	sl, r5
    a2c8:	31a0b00a 	movcc	fp, sl
    a2cc:	21a0b005 	movcs	fp, r5
    a2d0:	e1a01008 	mov	r1, r8
    a2d4:	e1a0200b 	mov	r2, fp
    a2d8:	eb000072 	bl	a4a8 <memmove>
    a2dc:	e5943008 	ldr	r3, [r4, #8]
    a2e0:	e043300b 	sub	r3, r3, fp
    a2e4:	e5843008 	str	r3, [r4, #8]
    a2e8:	e3530000 	cmp	r3, #0
    a2ec:	e5943000 	ldr	r3, [r4]
    a2f0:	e083300b 	add	r3, r3, fp
    a2f4:	e5843000 	str	r3, [r4]
    a2f8:	1affffeb 	bne	a2ac <__sfvwrite_r+0x3a0>
    a2fc:	e1a01004 	mov	r1, r4
    a300:	e1a00009 	mov	r0, r9
    a304:	ebfff023 	bl	6398 <_fflush_r>
    a308:	e3500000 	cmp	r0, #0
    a30c:	0affffe6 	beq	a2ac <__sfvwrite_r+0x3a0>
    a310:	eaffff8c 	b	a148 <__sfvwrite_r+0x23c>
    a314:	e1a0100b 	mov	r1, fp
    a318:	e1a05002 	mov	r5, r2
    a31c:	e58d2004 	str	r2, [sp, #4]
    a320:	eb000060 	bl	a4a8 <memmove>
    a324:	e5943008 	ldr	r3, [r4, #8]
    a328:	e59d2004 	ldr	r2, [sp, #4]
    a32c:	e0433002 	sub	r3, r3, r2
    a330:	e5843008 	str	r3, [r4, #8]
    a334:	e5943000 	ldr	r3, [r4]
    a338:	e0832002 	add	r2, r3, r2
    a33c:	e5842000 	str	r2, [r4]
    a340:	eaffffa8 	b	a1e8 <__sfvwrite_r+0x2dc>
    a344:	e1a02005 	mov	r2, r5
    a348:	e1a0100b 	mov	r1, fp
    a34c:	eb000055 	bl	a4a8 <memmove>
    a350:	e5943000 	ldr	r3, [r4]
    a354:	e0833005 	add	r3, r3, r5
    a358:	e1a01004 	mov	r1, r4
    a35c:	e1a00009 	mov	r0, r9
    a360:	e5843000 	str	r3, [r4]
    a364:	ebfff00b 	bl	6398 <_fflush_r>
    a368:	e3500000 	cmp	r0, #0
    a36c:	0affff9d 	beq	a1e8 <__sfvwrite_r+0x2dc>
    a370:	eaffff74 	b	a148 <__sfvwrite_r+0x23c>
    a374:	e1a01000 	mov	r1, r0
    a378:	e1a00009 	mov	r0, r9
    a37c:	eb0000b1 	bl	a648 <_realloc_r>
    a380:	e2503000 	subs	r3, r0, #0
    a384:	1affff44 	bne	a09c <__sfvwrite_r+0x190>
    a388:	e1a00009 	mov	r0, r9
    a38c:	e5941010 	ldr	r1, [r4, #16]
    a390:	ebfff0ed 	bl	674c <_free_r>
    a394:	e3a0200c 	mov	r2, #12
    a398:	e1d430fc 	ldrsh	r3, [r4, #12]
    a39c:	e5892000 	str	r2, [r9]
    a3a0:	e3c33080 	bic	r3, r3, #128	; 0x80
    a3a4:	eaffff68 	b	a14c <__sfvwrite_r+0x240>
    a3a8:	e2882001 	add	r2, r8, #1
    a3ac:	e1a0a002 	mov	sl, r2
    a3b0:	eaffff74 	b	a188 <__sfvwrite_r+0x27c>
    a3b4:	e3a0200c 	mov	r2, #12
    a3b8:	e1d430fc 	ldrsh	r3, [r4, #12]
    a3bc:	e5892000 	str	r2, [r9]
    a3c0:	eaffff61 	b	a14c <__sfvwrite_r+0x240>
    a3c4:	e3e00000 	mvn	r0, #0
    a3c8:	eafffefa 	b	9fb8 <__sfvwrite_r+0xac>
    a3cc:	7ffffc00 	.word	0x7ffffc00

0000a3d0 <_isatty_r>:
    a3d0:	e3a02000 	mov	r2, #0
    a3d4:	e92d4070 	push	{r4, r5, r6, lr}
    a3d8:	e59f5028 	ldr	r5, [pc, #40]	; a408 <_isatty_r+0x38>
    a3dc:	e1a04000 	mov	r4, r0
    a3e0:	e1a00001 	mov	r0, r1
    a3e4:	e5852000 	str	r2, [r5]
    a3e8:	eb0005d7 	bl	bb4c <_isatty>
    a3ec:	e3700001 	cmn	r0, #1
    a3f0:	1a000002 	bne	a400 <_isatty_r+0x30>
    a3f4:	e5953000 	ldr	r3, [r5]
    a3f8:	e3530000 	cmp	r3, #0
    a3fc:	15843000 	strne	r3, [r4]
    a400:	e8bd4070 	pop	{r4, r5, r6, lr}
    a404:	e12fff1e 	bx	lr
    a408:	20000f34 	.word	0x20000f34

0000a40c <__locale_mb_cur_max>:
    a40c:	e59f3004 	ldr	r3, [pc, #4]	; a418 <__locale_mb_cur_max+0xc>
    a410:	e5d30128 	ldrb	r0, [r3, #296]	; 0x128
    a414:	e12fff1e 	bx	lr
    a418:	20000904 	.word	0x20000904

0000a41c <_lseek_r>:
    a41c:	e92d4070 	push	{r4, r5, r6, lr}
    a420:	e1a0e001 	mov	lr, r1
    a424:	e1a01002 	mov	r1, r2
    a428:	e3a02000 	mov	r2, #0
    a42c:	e59f502c 	ldr	r5, [pc, #44]	; a460 <_lseek_r+0x44>
    a430:	e1a04000 	mov	r4, r0
    a434:	e5852000 	str	r2, [r5]
    a438:	e1a0000e 	mov	r0, lr
    a43c:	e1a02003 	mov	r2, r3
    a440:	eb0005cd 	bl	bb7c <_lseek>
    a444:	e3700001 	cmn	r0, #1
    a448:	1a000002 	bne	a458 <_lseek_r+0x3c>
    a44c:	e5953000 	ldr	r3, [r5]
    a450:	e3530000 	cmp	r3, #0
    a454:	15843000 	strne	r3, [r4]
    a458:	e8bd4070 	pop	{r4, r5, r6, lr}
    a45c:	e12fff1e 	bx	lr
    a460:	20000f34 	.word	0x20000f34

0000a464 <__ascii_mbtowc>:
    a464:	e3510000 	cmp	r1, #0
    a468:	e24dd008 	sub	sp, sp, #8
    a46c:	028d1004 	addeq	r1, sp, #4
    a470:	e3520000 	cmp	r2, #0
    a474:	01a00002 	moveq	r0, r2
    a478:	0a000006 	beq	a498 <__ascii_mbtowc+0x34>
    a47c:	e3530000 	cmp	r3, #0
    a480:	0a000006 	beq	a4a0 <__ascii_mbtowc+0x3c>
    a484:	e5d23000 	ldrb	r3, [r2]
    a488:	e5813000 	str	r3, [r1]
    a48c:	e5d22000 	ldrb	r2, [r2]
    a490:	e2520000 	subs	r0, r2, #0
    a494:	13a00001 	movne	r0, #1
    a498:	e28dd008 	add	sp, sp, #8
    a49c:	e12fff1e 	bx	lr
    a4a0:	e3e00001 	mvn	r0, #1
    a4a4:	eafffffb 	b	a498 <__ascii_mbtowc+0x34>

0000a4a8 <memmove>:
    a4a8:	e1500001 	cmp	r0, r1
    a4ac:	9a00000a 	bls	a4dc <memmove+0x34>
    a4b0:	e0813002 	add	r3, r1, r2
    a4b4:	e1530000 	cmp	r3, r0
    a4b8:	9a000007 	bls	a4dc <memmove+0x34>
    a4bc:	e3520000 	cmp	r2, #0
    a4c0:	e0802002 	add	r2, r0, r2
    a4c4:	012fff1e 	bxeq	lr
    a4c8:	e573c001 	ldrb	ip, [r3, #-1]!
    a4cc:	e1510003 	cmp	r1, r3
    a4d0:	e562c001 	strb	ip, [r2, #-1]!
    a4d4:	1afffffb 	bne	a4c8 <memmove+0x20>
    a4d8:	e12fff1e 	bx	lr
    a4dc:	e352000f 	cmp	r2, #15
    a4e0:	8a00000b 	bhi	a514 <memmove+0x6c>
    a4e4:	e3520000 	cmp	r2, #0
    a4e8:	e1a0c000 	mov	ip, r0
    a4ec:	e2422001 	sub	r2, r2, #1
    a4f0:	012fff1e 	bxeq	lr
    a4f4:	e2822001 	add	r2, r2, #1
    a4f8:	e24cc001 	sub	ip, ip, #1
    a4fc:	e0813002 	add	r3, r1, r2
    a500:	e4d12001 	ldrb	r2, [r1], #1
    a504:	e1510003 	cmp	r1, r3
    a508:	e5ec2001 	strb	r2, [ip, #1]!
    a50c:	1afffffb 	bne	a500 <memmove+0x58>
    a510:	e12fff1e 	bx	lr
    a514:	e1803001 	orr	r3, r0, r1
    a518:	e3130003 	tst	r3, #3
    a51c:	1a000034 	bne	a5f4 <memmove+0x14c>
    a520:	e242c010 	sub	ip, r2, #16
    a524:	e92d4070 	push	{r4, r5, r6, lr}
    a528:	e3cc300f 	bic	r3, ip, #15
    a52c:	e281e020 	add	lr, r1, #32
    a530:	e2814010 	add	r4, r1, #16
    a534:	e2805010 	add	r5, r0, #16
    a538:	e08ee003 	add	lr, lr, r3
    a53c:	e1a0c22c 	lsr	ip, ip, #4
    a540:	e5143010 	ldr	r3, [r4, #-16]
    a544:	e5053010 	str	r3, [r5, #-16]
    a548:	e514300c 	ldr	r3, [r4, #-12]
    a54c:	e505300c 	str	r3, [r5, #-12]
    a550:	e5143008 	ldr	r3, [r4, #-8]
    a554:	e5053008 	str	r3, [r5, #-8]
    a558:	e2844010 	add	r4, r4, #16
    a55c:	e5143014 	ldr	r3, [r4, #-20]	; 0xffffffec
    a560:	e154000e 	cmp	r4, lr
    a564:	e5053004 	str	r3, [r5, #-4]
    a568:	e2855010 	add	r5, r5, #16
    a56c:	1afffff3 	bne	a540 <memmove+0x98>
    a570:	e28cc001 	add	ip, ip, #1
    a574:	e312000c 	tst	r2, #12
    a578:	e202300f 	and	r3, r2, #15
    a57c:	e081120c 	add	r1, r1, ip, lsl #4
    a580:	01a02003 	moveq	r2, r3
    a584:	e080c20c 	add	ip, r0, ip, lsl #4
    a588:	0a00000d 	beq	a5c4 <memmove+0x11c>
    a58c:	e1a04001 	mov	r4, r1
    a590:	e2433004 	sub	r3, r3, #4
    a594:	e3c36003 	bic	r6, r3, #3
    a598:	e1a0e123 	lsr	lr, r3, #2
    a59c:	e08c6006 	add	r6, ip, r6
    a5a0:	e24c3004 	sub	r3, ip, #4
    a5a4:	e4945004 	ldr	r5, [r4], #4
    a5a8:	e5a35004 	str	r5, [r3, #4]!
    a5ac:	e1530006 	cmp	r3, r6
    a5b0:	1afffffb 	bne	a5a4 <memmove+0xfc>
    a5b4:	e28e3001 	add	r3, lr, #1
    a5b8:	e2022003 	and	r2, r2, #3
    a5bc:	e08cc103 	add	ip, ip, r3, lsl #2
    a5c0:	e0811103 	add	r1, r1, r3, lsl #2
    a5c4:	e3520000 	cmp	r2, #0
    a5c8:	e2422001 	sub	r2, r2, #1
    a5cc:	12822001 	addne	r2, r2, #1
    a5d0:	124cc001 	subne	ip, ip, #1
    a5d4:	10813002 	addne	r3, r1, r2
    a5d8:	0a000003 	beq	a5ec <memmove+0x144>
    a5dc:	e4d12001 	ldrb	r2, [r1], #1
    a5e0:	e1510003 	cmp	r1, r3
    a5e4:	e5ec2001 	strb	r2, [ip, #1]!
    a5e8:	1afffffb 	bne	a5dc <memmove+0x134>
    a5ec:	e8bd4070 	pop	{r4, r5, r6, lr}
    a5f0:	e12fff1e 	bx	lr
    a5f4:	e1a0c000 	mov	ip, r0
    a5f8:	e2422001 	sub	r2, r2, #1
    a5fc:	eaffffbc 	b	a4f4 <memmove+0x4c>

0000a600 <_read_r>:
    a600:	e92d4070 	push	{r4, r5, r6, lr}
    a604:	e1a0e001 	mov	lr, r1
    a608:	e1a01002 	mov	r1, r2
    a60c:	e3a02000 	mov	r2, #0
    a610:	e59f502c 	ldr	r5, [pc, #44]	; a644 <_read_r+0x44>
    a614:	e1a04000 	mov	r4, r0
    a618:	e5852000 	str	r2, [r5]
    a61c:	e1a0000e 	mov	r0, lr
    a620:	e1a02003 	mov	r2, r3
    a624:	eb000579 	bl	bc10 <___read_from_arm>
    a628:	e3700001 	cmn	r0, #1
    a62c:	1a000002 	bne	a63c <_read_r+0x3c>
    a630:	e5953000 	ldr	r3, [r5]
    a634:	e3530000 	cmp	r3, #0
    a638:	15843000 	strne	r3, [r4]
    a63c:	e8bd4070 	pop	{r4, r5, r6, lr}
    a640:	e12fff1e 	bx	lr
    a644:	20000f34 	.word	0x20000f34

0000a648 <_realloc_r>:
    a648:	e92d4ff0 	push	{r4, r5, r6, r7, r8, r9, sl, fp, lr}
    a64c:	e2514000 	subs	r4, r1, #0
    a650:	e1a07002 	mov	r7, r2
    a654:	e24dd00c 	sub	sp, sp, #12
    a658:	0a00007f 	beq	a85c <_realloc_r+0x214>
    a65c:	e287500b 	add	r5, r7, #11
    a660:	e1a09000 	mov	r9, r0
    a664:	ebfff3a9 	bl	7510 <__malloc_lock>
    a668:	e3550016 	cmp	r5, #22
    a66c:	93a02010 	movls	r2, #16
    a670:	93a03000 	movls	r3, #0
    a674:	91a05002 	movls	r5, r2
    a678:	83c55007 	bichi	r5, r5, #7
    a67c:	81a03fa5 	lsrhi	r3, r5, #31
    a680:	81a02005 	movhi	r2, r5
    a684:	e1550007 	cmp	r5, r7
    a688:	33833001 	orrcc	r3, r3, #1
    a68c:	e3530000 	cmp	r3, #0
    a690:	13a0300c 	movne	r3, #12
    a694:	e5141004 	ldr	r1, [r4, #-4]
    a698:	13a07000 	movne	r7, #0
    a69c:	15893000 	strne	r3, [r9]
    a6a0:	e2448008 	sub	r8, r4, #8
    a6a4:	e3c16003 	bic	r6, r1, #3
    a6a8:	1a00003a 	bne	a798 <_realloc_r+0x150>
    a6ac:	e1560002 	cmp	r6, r2
    a6b0:	aa000041 	bge	a7bc <_realloc_r+0x174>
    a6b4:	e59fb51c 	ldr	fp, [pc, #1308]	; abd8 <_realloc_r+0x590>
    a6b8:	e59b0008 	ldr	r0, [fp, #8]
    a6bc:	e0883006 	add	r3, r8, r6
    a6c0:	e1500003 	cmp	r0, r3
    a6c4:	0a00006b 	beq	a878 <_realloc_r+0x230>
    a6c8:	e593c004 	ldr	ip, [r3, #4]
    a6cc:	e3cc0001 	bic	r0, ip, #1
    a6d0:	e0830000 	add	r0, r3, r0
    a6d4:	e5900004 	ldr	r0, [r0, #4]
    a6d8:	e3100001 	tst	r0, #1
    a6dc:	1a000057 	bne	a840 <_realloc_r+0x1f8>
    a6e0:	e3ccc003 	bic	ip, ip, #3
    a6e4:	e086000c 	add	r0, r6, ip
    a6e8:	e1500002 	cmp	r0, r2
    a6ec:	aa00002d 	bge	a7a8 <_realloc_r+0x160>
    a6f0:	e3110001 	tst	r1, #1
    a6f4:	1a00000a 	bne	a724 <_realloc_r+0xdc>
    a6f8:	e514a008 	ldr	sl, [r4, #-8]
    a6fc:	e048a00a 	sub	sl, r8, sl
    a700:	e59a1004 	ldr	r1, [sl, #4]
    a704:	e3c11003 	bic	r1, r1, #3
    a708:	e081c00c 	add	ip, r1, ip
    a70c:	e08cc006 	add	ip, ip, r6
    a710:	e15c0002 	cmp	ip, r2
    a714:	aa0000e0 	bge	aa9c <_realloc_r+0x454>
    a718:	e0863001 	add	r3, r6, r1
    a71c:	e1530002 	cmp	r3, r2
    a720:	aa0000b0 	bge	a9e8 <_realloc_r+0x3a0>
    a724:	e1a01007 	mov	r1, r7
    a728:	e1a00009 	mov	r0, r9
    a72c:	ebfff137 	bl	6c10 <_malloc_r>
    a730:	e2507000 	subs	r7, r0, #0
    a734:	0a000015 	beq	a790 <_realloc_r+0x148>
    a738:	e5143004 	ldr	r3, [r4, #-4]
    a73c:	e3c33001 	bic	r3, r3, #1
    a740:	e0883003 	add	r3, r8, r3
    a744:	e2472008 	sub	r2, r7, #8
    a748:	e1530002 	cmp	r3, r2
    a74c:	0a00008b 	beq	a980 <_realloc_r+0x338>
    a750:	e2462004 	sub	r2, r6, #4
    a754:	e3520024 	cmp	r2, #36	; 0x24
    a758:	8a0000cc 	bhi	aa90 <_realloc_r+0x448>
    a75c:	e3520013 	cmp	r2, #19
    a760:	91a03007 	movls	r3, r7
    a764:	91a02004 	movls	r2, r4
    a768:	8a000088 	bhi	a990 <_realloc_r+0x348>
    a76c:	e5921000 	ldr	r1, [r2]
    a770:	e5831000 	str	r1, [r3]
    a774:	e5921004 	ldr	r1, [r2, #4]
    a778:	e5831004 	str	r1, [r3, #4]
    a77c:	e5922008 	ldr	r2, [r2, #8]
    a780:	e5832008 	str	r2, [r3, #8]
    a784:	e1a01004 	mov	r1, r4
    a788:	e1a00009 	mov	r0, r9
    a78c:	ebffefee 	bl	674c <_free_r>
    a790:	e1a00009 	mov	r0, r9
    a794:	ebfff363 	bl	7528 <__malloc_unlock>
    a798:	e1a00007 	mov	r0, r7
    a79c:	e28dd00c 	add	sp, sp, #12
    a7a0:	e8bd4ff0 	pop	{r4, r5, r6, r7, r8, r9, sl, fp, lr}
    a7a4:	e12fff1e 	bx	lr
    a7a8:	e1a06000 	mov	r6, r0
    a7ac:	e593200c 	ldr	r2, [r3, #12]
    a7b0:	e5933008 	ldr	r3, [r3, #8]
    a7b4:	e583200c 	str	r2, [r3, #12]
    a7b8:	e5823008 	str	r3, [r2, #8]
    a7bc:	e0463005 	sub	r3, r6, r5
    a7c0:	e353000f 	cmp	r3, #15
    a7c4:	8a00000e 	bhi	a804 <_realloc_r+0x1bc>
    a7c8:	e5983004 	ldr	r3, [r8, #4]
    a7cc:	e2033001 	and	r3, r3, #1
    a7d0:	e1833006 	orr	r3, r3, r6
    a7d4:	e5883004 	str	r3, [r8, #4]
    a7d8:	e0886006 	add	r6, r8, r6
    a7dc:	e5963004 	ldr	r3, [r6, #4]
    a7e0:	e3833001 	orr	r3, r3, #1
    a7e4:	e5863004 	str	r3, [r6, #4]
    a7e8:	e1a07004 	mov	r7, r4
    a7ec:	e1a00009 	mov	r0, r9
    a7f0:	ebfff34c 	bl	7528 <__malloc_unlock>
    a7f4:	e1a00007 	mov	r0, r7
    a7f8:	e28dd00c 	add	sp, sp, #12
    a7fc:	e8bd4ff0 	pop	{r4, r5, r6, r7, r8, r9, sl, fp, lr}
    a800:	e12fff1e 	bx	lr
    a804:	e5981004 	ldr	r1, [r8, #4]
    a808:	e2011001 	and	r1, r1, #1
    a80c:	e1811005 	orr	r1, r1, r5
    a810:	e5881004 	str	r1, [r8, #4]
    a814:	e3833001 	orr	r3, r3, #1
    a818:	e0881005 	add	r1, r8, r5
    a81c:	e5813004 	str	r3, [r1, #4]
    a820:	e0886006 	add	r6, r8, r6
    a824:	e5963004 	ldr	r3, [r6, #4]
    a828:	e3833001 	orr	r3, r3, #1
    a82c:	e1a00009 	mov	r0, r9
    a830:	e5863004 	str	r3, [r6, #4]
    a834:	e2811008 	add	r1, r1, #8
    a838:	ebffefc3 	bl	674c <_free_r>
    a83c:	eaffffe9 	b	a7e8 <_realloc_r+0x1a0>
    a840:	e3110001 	tst	r1, #1
    a844:	1affffb6 	bne	a724 <_realloc_r+0xdc>
    a848:	e514a008 	ldr	sl, [r4, #-8]
    a84c:	e048a00a 	sub	sl, r8, sl
    a850:	e59a1004 	ldr	r1, [sl, #4]
    a854:	e3c11003 	bic	r1, r1, #3
    a858:	eaffffae 	b	a718 <_realloc_r+0xd0>
    a85c:	e1a01002 	mov	r1, r2
    a860:	ebfff0ea 	bl	6c10 <_malloc_r>
    a864:	e1a07000 	mov	r7, r0
    a868:	e1a00007 	mov	r0, r7
    a86c:	e28dd00c 	add	sp, sp, #12
    a870:	e8bd4ff0 	pop	{r4, r5, r6, r7, r8, r9, sl, fp, lr}
    a874:	e12fff1e 	bx	lr
    a878:	e5903004 	ldr	r3, [r0, #4]
    a87c:	e3c33003 	bic	r3, r3, #3
    a880:	e086c003 	add	ip, r6, r3
    a884:	e2850010 	add	r0, r5, #16
    a888:	e15c0000 	cmp	ip, r0
    a88c:	aa0000b7 	bge	ab70 <_realloc_r+0x528>
    a890:	e3110001 	tst	r1, #1
    a894:	1affffa2 	bne	a724 <_realloc_r+0xdc>
    a898:	e514a008 	ldr	sl, [r4, #-8]
    a89c:	e048a00a 	sub	sl, r8, sl
    a8a0:	e59a1004 	ldr	r1, [sl, #4]
    a8a4:	e3c11003 	bic	r1, r1, #3
    a8a8:	e0813003 	add	r3, r1, r3
    a8ac:	e0833006 	add	r3, r3, r6
    a8b0:	e1500003 	cmp	r0, r3
    a8b4:	caffff97 	bgt	a718 <_realloc_r+0xd0>
    a8b8:	e1a0700a 	mov	r7, sl
    a8bc:	e59a100c 	ldr	r1, [sl, #12]
    a8c0:	e5b70008 	ldr	r0, [r7, #8]!
    a8c4:	e2462004 	sub	r2, r6, #4
    a8c8:	e3520024 	cmp	r2, #36	; 0x24
    a8cc:	e580100c 	str	r1, [r0, #12]
    a8d0:	e5810008 	str	r0, [r1, #8]
    a8d4:	8a0000b9 	bhi	abc0 <_realloc_r+0x578>
    a8d8:	e3520013 	cmp	r2, #19
    a8dc:	91a02007 	movls	r2, r7
    a8e0:	9a000014 	bls	a938 <_realloc_r+0x2f0>
    a8e4:	e5941000 	ldr	r1, [r4]
    a8e8:	e58a1008 	str	r1, [sl, #8]
    a8ec:	e5941004 	ldr	r1, [r4, #4]
    a8f0:	e352001b 	cmp	r2, #27
    a8f4:	e58a100c 	str	r1, [sl, #12]
    a8f8:	92844008 	addls	r4, r4, #8
    a8fc:	928a2010 	addls	r2, sl, #16
    a900:	9a00000c 	bls	a938 <_realloc_r+0x2f0>
    a904:	e3520024 	cmp	r2, #36	; 0x24
    a908:	e5942008 	ldr	r2, [r4, #8]
    a90c:	e58a2010 	str	r2, [sl, #16]
    a910:	e594200c 	ldr	r2, [r4, #12]
    a914:	e58a2014 	str	r2, [sl, #20]
    a918:	05942010 	ldreq	r2, [r4, #16]
    a91c:	058a2018 	streq	r2, [sl, #24]
    a920:	05941014 	ldreq	r1, [r4, #20]
    a924:	058a101c 	streq	r1, [sl, #28]
    a928:	12844010 	addne	r4, r4, #16
    a92c:	128a2018 	addne	r2, sl, #24
    a930:	028a2020 	addeq	r2, sl, #32
    a934:	02844018 	addeq	r4, r4, #24
    a938:	e5941000 	ldr	r1, [r4]
    a93c:	e5821000 	str	r1, [r2]
    a940:	e5941004 	ldr	r1, [r4, #4]
    a944:	e5821004 	str	r1, [r2, #4]
    a948:	e5941008 	ldr	r1, [r4, #8]
    a94c:	e5821008 	str	r1, [r2, #8]
    a950:	e0433005 	sub	r3, r3, r5
    a954:	e08a2005 	add	r2, sl, r5
    a958:	e3833001 	orr	r3, r3, #1
    a95c:	e58b2008 	str	r2, [fp, #8]
    a960:	e5823004 	str	r3, [r2, #4]
    a964:	e59a3004 	ldr	r3, [sl, #4]
    a968:	e2033001 	and	r3, r3, #1
    a96c:	e1835005 	orr	r5, r3, r5
    a970:	e1a00009 	mov	r0, r9
    a974:	e58a5004 	str	r5, [sl, #4]
    a978:	ebfff2ea 	bl	7528 <__malloc_unlock>
    a97c:	eaffff85 	b	a798 <_realloc_r+0x150>
    a980:	e5173004 	ldr	r3, [r7, #-4]
    a984:	e3c33003 	bic	r3, r3, #3
    a988:	e0866003 	add	r6, r6, r3
    a98c:	eaffff8a 	b	a7bc <_realloc_r+0x174>
    a990:	e5943000 	ldr	r3, [r4]
    a994:	e5873000 	str	r3, [r7]
    a998:	e5943004 	ldr	r3, [r4, #4]
    a99c:	e352001b 	cmp	r2, #27
    a9a0:	e5873004 	str	r3, [r7, #4]
    a9a4:	92842008 	addls	r2, r4, #8
    a9a8:	92873008 	addls	r3, r7, #8
    a9ac:	9affff6e 	bls	a76c <_realloc_r+0x124>
    a9b0:	e5943008 	ldr	r3, [r4, #8]
    a9b4:	e5873008 	str	r3, [r7, #8]
    a9b8:	e594300c 	ldr	r3, [r4, #12]
    a9bc:	e587300c 	str	r3, [r7, #12]
    a9c0:	e3520024 	cmp	r2, #36	; 0x24
    a9c4:	05943010 	ldreq	r3, [r4, #16]
    a9c8:	05873010 	streq	r3, [r7, #16]
    a9cc:	05941014 	ldreq	r1, [r4, #20]
    a9d0:	12842010 	addne	r2, r4, #16
    a9d4:	05871014 	streq	r1, [r7, #20]
    a9d8:	12873010 	addne	r3, r7, #16
    a9dc:	02842018 	addeq	r2, r4, #24
    a9e0:	02873018 	addeq	r3, r7, #24
    a9e4:	eaffff60 	b	a76c <_realloc_r+0x124>
    a9e8:	e1a0700a 	mov	r7, sl
    a9ec:	e59a100c 	ldr	r1, [sl, #12]
    a9f0:	e5b70008 	ldr	r0, [r7, #8]!
    a9f4:	e2462004 	sub	r2, r6, #4
    a9f8:	e3520024 	cmp	r2, #36	; 0x24
    a9fc:	e580100c 	str	r1, [r0, #12]
    aa00:	e5810008 	str	r0, [r1, #8]
    aa04:	8a000052 	bhi	ab54 <_realloc_r+0x50c>
    aa08:	e3520013 	cmp	r2, #19
    aa0c:	91a02007 	movls	r2, r7
    aa10:	9a000014 	bls	aa68 <_realloc_r+0x420>
    aa14:	e5941000 	ldr	r1, [r4]
    aa18:	e58a1008 	str	r1, [sl, #8]
    aa1c:	e5941004 	ldr	r1, [r4, #4]
    aa20:	e352001b 	cmp	r2, #27
    aa24:	e58a100c 	str	r1, [sl, #12]
    aa28:	92844008 	addls	r4, r4, #8
    aa2c:	928a2010 	addls	r2, sl, #16
    aa30:	9a00000c 	bls	aa68 <_realloc_r+0x420>
    aa34:	e3520024 	cmp	r2, #36	; 0x24
    aa38:	e5942008 	ldr	r2, [r4, #8]
    aa3c:	e58a2010 	str	r2, [sl, #16]
    aa40:	e594200c 	ldr	r2, [r4, #12]
    aa44:	e58a2014 	str	r2, [sl, #20]
    aa48:	05942010 	ldreq	r2, [r4, #16]
    aa4c:	058a2018 	streq	r2, [sl, #24]
    aa50:	05941014 	ldreq	r1, [r4, #20]
    aa54:	058a101c 	streq	r1, [sl, #28]
    aa58:	12844010 	addne	r4, r4, #16
    aa5c:	128a2018 	addne	r2, sl, #24
    aa60:	028a2020 	addeq	r2, sl, #32
    aa64:	02844018 	addeq	r4, r4, #24
    aa68:	e1a06003 	mov	r6, r3
    aa6c:	e5943000 	ldr	r3, [r4]
    aa70:	e5823000 	str	r3, [r2]
    aa74:	e5943004 	ldr	r3, [r4, #4]
    aa78:	e5823004 	str	r3, [r2, #4]
    aa7c:	e5943008 	ldr	r3, [r4, #8]
    aa80:	e1a0800a 	mov	r8, sl
    aa84:	e1a04007 	mov	r4, r7
    aa88:	e5823008 	str	r3, [r2, #8]
    aa8c:	eaffff4a 	b	a7bc <_realloc_r+0x174>
    aa90:	e1a01004 	mov	r1, r4
    aa94:	ebfffe83 	bl	a4a8 <memmove>
    aa98:	eaffff39 	b	a784 <_realloc_r+0x13c>
    aa9c:	e1a0700a 	mov	r7, sl
    aaa0:	e593100c 	ldr	r1, [r3, #12]
    aaa4:	e5933008 	ldr	r3, [r3, #8]
    aaa8:	e583100c 	str	r1, [r3, #12]
    aaac:	e5813008 	str	r3, [r1, #8]
    aab0:	e2462004 	sub	r2, r6, #4
    aab4:	e59a300c 	ldr	r3, [sl, #12]
    aab8:	e5b71008 	ldr	r1, [r7, #8]!
    aabc:	e3520024 	cmp	r2, #36	; 0x24
    aac0:	e581300c 	str	r3, [r1, #12]
    aac4:	e5831008 	str	r1, [r3, #8]
    aac8:	8a000035 	bhi	aba4 <_realloc_r+0x55c>
    aacc:	e3520013 	cmp	r2, #19
    aad0:	91a03007 	movls	r3, r7
    aad4:	9a000014 	bls	ab2c <_realloc_r+0x4e4>
    aad8:	e5943000 	ldr	r3, [r4]
    aadc:	e58a3008 	str	r3, [sl, #8]
    aae0:	e5943004 	ldr	r3, [r4, #4]
    aae4:	e352001b 	cmp	r2, #27
    aae8:	e58a300c 	str	r3, [sl, #12]
    aaec:	92844008 	addls	r4, r4, #8
    aaf0:	928a3010 	addls	r3, sl, #16
    aaf4:	9a00000c 	bls	ab2c <_realloc_r+0x4e4>
    aaf8:	e5943008 	ldr	r3, [r4, #8]
    aafc:	e58a3010 	str	r3, [sl, #16]
    ab00:	e594300c 	ldr	r3, [r4, #12]
    ab04:	e58a3014 	str	r3, [sl, #20]
    ab08:	e3520024 	cmp	r2, #36	; 0x24
    ab0c:	05943010 	ldreq	r3, [r4, #16]
    ab10:	058a3018 	streq	r3, [sl, #24]
    ab14:	05942014 	ldreq	r2, [r4, #20]
    ab18:	058a201c 	streq	r2, [sl, #28]
    ab1c:	12844010 	addne	r4, r4, #16
    ab20:	128a3018 	addne	r3, sl, #24
    ab24:	028a3020 	addeq	r3, sl, #32
    ab28:	02844018 	addeq	r4, r4, #24
    ab2c:	e5942000 	ldr	r2, [r4]
    ab30:	e5832000 	str	r2, [r3]
    ab34:	e5942004 	ldr	r2, [r4, #4]
    ab38:	e5832004 	str	r2, [r3, #4]
    ab3c:	e5942008 	ldr	r2, [r4, #8]
    ab40:	e1a0600c 	mov	r6, ip
    ab44:	e1a0800a 	mov	r8, sl
    ab48:	e1a04007 	mov	r4, r7
    ab4c:	e5832008 	str	r2, [r3, #8]
    ab50:	eaffff19 	b	a7bc <_realloc_r+0x174>
    ab54:	e1a01004 	mov	r1, r4
    ab58:	e1a00007 	mov	r0, r7
    ab5c:	e1a06003 	mov	r6, r3
    ab60:	e1a0800a 	mov	r8, sl
    ab64:	ebfffe4f 	bl	a4a8 <memmove>
    ab68:	e1a04007 	mov	r4, r7
    ab6c:	eaffff12 	b	a7bc <_realloc_r+0x174>
    ab70:	e04c3005 	sub	r3, ip, r5
    ab74:	e0888005 	add	r8, r8, r5
    ab78:	e3833001 	orr	r3, r3, #1
    ab7c:	e58b8008 	str	r8, [fp, #8]
    ab80:	e5883004 	str	r3, [r8, #4]
    ab84:	e5143004 	ldr	r3, [r4, #-4]
    ab88:	e2033001 	and	r3, r3, #1
    ab8c:	e1835005 	orr	r5, r3, r5
    ab90:	e1a00009 	mov	r0, r9
    ab94:	e5045004 	str	r5, [r4, #-4]
    ab98:	e1a07004 	mov	r7, r4
    ab9c:	ebfff261 	bl	7528 <__malloc_unlock>
    aba0:	eafffefc 	b	a798 <_realloc_r+0x150>
    aba4:	e1a01004 	mov	r1, r4
    aba8:	e1a00007 	mov	r0, r7
    abac:	e1a0600c 	mov	r6, ip
    abb0:	e1a0800a 	mov	r8, sl
    abb4:	ebfffe3b 	bl	a4a8 <memmove>
    abb8:	e1a04007 	mov	r4, r7
    abbc:	eafffefe 	b	a7bc <_realloc_r+0x174>
    abc0:	e1a01004 	mov	r1, r4
    abc4:	e1a00007 	mov	r0, r7
    abc8:	e58d3004 	str	r3, [sp, #4]
    abcc:	ebfffe35 	bl	a4a8 <memmove>
    abd0:	e59d3004 	ldr	r3, [sp, #4]
    abd4:	eaffff5d 	b	a950 <_realloc_r+0x308>
    abd8:	200004f4 	.word	0x200004f4

0000abdc <__swbuf_r>:
    abdc:	e92d41f0 	push	{r4, r5, r6, r7, r8, lr}
    abe0:	e2506000 	subs	r6, r0, #0
    abe4:	e1a05001 	mov	r5, r1
    abe8:	e1a04002 	mov	r4, r2
    abec:	0a000002 	beq	abfc <__swbuf_r+0x20>
    abf0:	e5963038 	ldr	r3, [r6, #56]	; 0x38
    abf4:	e3530000 	cmp	r3, #0
    abf8:	0a000033 	beq	accc <__swbuf_r+0xf0>
    abfc:	e1d400fc 	ldrsh	r0, [r4, #12]
    ac00:	e5943018 	ldr	r3, [r4, #24]
    ac04:	e1a02800 	lsl	r2, r0, #16
    ac08:	e3100008 	tst	r0, #8
    ac0c:	e5843008 	str	r3, [r4, #8]
    ac10:	e1a02822 	lsr	r2, r2, #16
    ac14:	0a000022 	beq	aca4 <__swbuf_r+0xc8>
    ac18:	e5943010 	ldr	r3, [r4, #16]
    ac1c:	e3530000 	cmp	r3, #0
    ac20:	0a00001f 	beq	aca4 <__swbuf_r+0xc8>
    ac24:	e3120a02 	tst	r2, #8192	; 0x2000
    ac28:	05942064 	ldreq	r2, [r4, #100]	; 0x64
    ac2c:	03c22a02 	biceq	r2, r2, #8192	; 0x2000
    ac30:	05842064 	streq	r2, [r4, #100]	; 0x64
    ac34:	e5942000 	ldr	r2, [r4]
    ac38:	e5941014 	ldr	r1, [r4, #20]
    ac3c:	03800a02 	orreq	r0, r0, #8192	; 0x2000
    ac40:	e0423003 	sub	r3, r2, r3
    ac44:	01c400bc 	strheq	r0, [r4, #12]
    ac48:	e20550ff 	and	r5, r5, #255	; 0xff
    ac4c:	e1510003 	cmp	r1, r3
    ac50:	e1a07005 	mov	r7, r5
    ac54:	c2833001 	addgt	r3, r3, #1
    ac58:	da000024 	ble	acf0 <__swbuf_r+0x114>
    ac5c:	e5941008 	ldr	r1, [r4, #8]
    ac60:	e2411001 	sub	r1, r1, #1
    ac64:	e5841008 	str	r1, [r4, #8]
    ac68:	e2821001 	add	r1, r2, #1
    ac6c:	e5841000 	str	r1, [r4]
    ac70:	e5c25000 	strb	r5, [r2]
    ac74:	e5942014 	ldr	r2, [r4, #20]
    ac78:	e1520003 	cmp	r2, r3
    ac7c:	0a000014 	beq	acd4 <__swbuf_r+0xf8>
    ac80:	e1d430bc 	ldrh	r3, [r4, #12]
    ac84:	e355000a 	cmp	r5, #10
    ac88:	13a03000 	movne	r3, #0
    ac8c:	02033001 	andeq	r3, r3, #1
    ac90:	e3530000 	cmp	r3, #0
    ac94:	1a00000e 	bne	acd4 <__swbuf_r+0xf8>
    ac98:	e1a00007 	mov	r0, r7
    ac9c:	e8bd41f0 	pop	{r4, r5, r6, r7, r8, lr}
    aca0:	e12fff1e 	bx	lr
    aca4:	e1a01004 	mov	r1, r4
    aca8:	e1a00006 	mov	r0, r6
    acac:	ebffe632 	bl	457c <__swsetup_r>
    acb0:	e3500000 	cmp	r0, #0
    acb4:	1a00000b 	bne	ace8 <__swbuf_r+0x10c>
    acb8:	e1d400fc 	ldrsh	r0, [r4, #12]
    acbc:	e1a02800 	lsl	r2, r0, #16
    acc0:	e5943010 	ldr	r3, [r4, #16]
    acc4:	e1a02822 	lsr	r2, r2, #16
    acc8:	eaffffd5 	b	ac24 <__swbuf_r+0x48>
    accc:	ebffedde 	bl	644c <__sinit>
    acd0:	eaffffc9 	b	abfc <__swbuf_r+0x20>
    acd4:	e1a01004 	mov	r1, r4
    acd8:	e1a00006 	mov	r0, r6
    acdc:	ebffedad 	bl	6398 <_fflush_r>
    ace0:	e3500000 	cmp	r0, #0
    ace4:	0affffeb 	beq	ac98 <__swbuf_r+0xbc>
    ace8:	e3e07000 	mvn	r7, #0
    acec:	eaffffe9 	b	ac98 <__swbuf_r+0xbc>
    acf0:	e1a01004 	mov	r1, r4
    acf4:	e1a00006 	mov	r0, r6
    acf8:	ebffeda6 	bl	6398 <_fflush_r>
    acfc:	e3500000 	cmp	r0, #0
    ad00:	1afffff8 	bne	ace8 <__swbuf_r+0x10c>
    ad04:	e3a03001 	mov	r3, #1
    ad08:	e5942000 	ldr	r2, [r4]
    ad0c:	eaffffd2 	b	ac5c <__swbuf_r+0x80>

0000ad10 <_wcrtomb_r>:
    ad10:	e92d4070 	push	{r4, r5, r6, lr}
    ad14:	e251c000 	subs	ip, r1, #0
    ad18:	059f1044 	ldreq	r1, [pc, #68]	; ad64 <_wcrtomb_r+0x54>
    ad1c:	159fc040 	ldrne	ip, [pc, #64]	; ad64 <_wcrtomb_r+0x54>
    ad20:	e24dd010 	sub	sp, sp, #16
    ad24:	01a0200c 	moveq	r2, ip
    ad28:	059160e0 	ldreq	r6, [r1, #224]	; 0xe0
    ad2c:	159c60e0 	ldrne	r6, [ip, #224]	; 0xe0
    ad30:	028d1004 	addeq	r1, sp, #4
    ad34:	e1a04003 	mov	r4, r3
    ad38:	e1a05000 	mov	r5, r0
    ad3c:	e1a0e00f 	mov	lr, pc
    ad40:	e12fff16 	bx	r6
    ad44:	e3700001 	cmn	r0, #1
    ad48:	03a02000 	moveq	r2, #0
    ad4c:	03a0308a 	moveq	r3, #138	; 0x8a
    ad50:	05842000 	streq	r2, [r4]
    ad54:	05853000 	streq	r3, [r5]
    ad58:	e28dd010 	add	sp, sp, #16
    ad5c:	e8bd4070 	pop	{r4, r5, r6, lr}
    ad60:	e12fff1e 	bx	lr
    ad64:	20000904 	.word	0x20000904

0000ad68 <__ascii_wctomb>:
    ad68:	e3510000 	cmp	r1, #0
    ad6c:	e1a03000 	mov	r3, r0
    ad70:	0a000006 	beq	ad90 <__ascii_wctomb+0x28>
    ad74:	e35200ff 	cmp	r2, #255	; 0xff
    ad78:	83a0208a 	movhi	r2, #138	; 0x8a
    ad7c:	83e00000 	mvnhi	r0, #0
    ad80:	85832000 	strhi	r2, [r3]
    ad84:	93a00001 	movls	r0, #1
    ad88:	95c12000 	strbls	r2, [r1]
    ad8c:	e12fff1e 	bx	lr
    ad90:	e1a00001 	mov	r0, r1
    ad94:	e12fff1e 	bx	lr

0000ad98 <abort>:
    ad98:	e3a00006 	mov	r0, #6
    ad9c:	e92d4010 	push	{r4, lr}
    ada0:	eb000001 	bl	adac <raise>
    ada4:	e3a00001 	mov	r0, #1
    ada8:	eb000384 	bl	bbc0 <_exit>

0000adac <raise>:
    adac:	e59f3090 	ldr	r3, [pc, #144]	; ae44 <raise+0x98>
    adb0:	e350001f 	cmp	r0, #31
    adb4:	e92d4070 	push	{r4, r5, r6, lr}
    adb8:	e5935000 	ldr	r5, [r3]
    adbc:	83a03016 	movhi	r3, #22
    adc0:	83e00000 	mvnhi	r0, #0
    adc4:	85853000 	strhi	r3, [r5]
    adc8:	8a000013 	bhi	ae1c <raise+0x70>
    adcc:	e59522dc 	ldr	r2, [r5, #732]	; 0x2dc
    add0:	e3520000 	cmp	r2, #0
    add4:	e1a04000 	mov	r4, r0
    add8:	0a000011 	beq	ae24 <raise+0x78>
    addc:	e7923100 	ldr	r3, [r2, r0, lsl #2]
    ade0:	e3530000 	cmp	r3, #0
    ade4:	0a00000e 	beq	ae24 <raise+0x78>
    ade8:	e3530001 	cmp	r3, #1
    adec:	03a00000 	moveq	r0, #0
    adf0:	0a000009 	beq	ae1c <raise+0x70>
    adf4:	e3730001 	cmn	r3, #1
    adf8:	03a03016 	moveq	r3, #22
    adfc:	03a00001 	moveq	r0, #1
    ae00:	05853000 	streq	r3, [r5]
    ae04:	0a000004 	beq	ae1c <raise+0x70>
    ae08:	e3a05000 	mov	r5, #0
    ae0c:	e7825104 	str	r5, [r2, r4, lsl #2]
    ae10:	e1a0e00f 	mov	lr, pc
    ae14:	e12fff13 	bx	r3
    ae18:	e1a00005 	mov	r0, r5
    ae1c:	e8bd4070 	pop	{r4, r5, r6, lr}
    ae20:	e12fff1e 	bx	lr
    ae24:	e1a00005 	mov	r0, r5
    ae28:	eb000016 	bl	ae88 <_getpid_r>
    ae2c:	e1a02004 	mov	r2, r4
    ae30:	e1a01000 	mov	r1, r0
    ae34:	e1a00005 	mov	r0, r5
    ae38:	eb000002 	bl	ae48 <_kill_r>
    ae3c:	e8bd4070 	pop	{r4, r5, r6, lr}
    ae40:	e12fff1e 	bx	lr
    ae44:	200000c0 	.word	0x200000c0

0000ae48 <_kill_r>:
    ae48:	e3a0c000 	mov	ip, #0
    ae4c:	e92d4070 	push	{r4, r5, r6, lr}
    ae50:	e59f502c 	ldr	r5, [pc, #44]	; ae84 <_kill_r+0x3c>
    ae54:	e1a04000 	mov	r4, r0
    ae58:	e1a00001 	mov	r0, r1
    ae5c:	e1a01002 	mov	r1, r2
    ae60:	e585c000 	str	ip, [r5]
    ae64:	eb00033e 	bl	bb64 <_kill>
    ae68:	e3700001 	cmn	r0, #1
    ae6c:	1a000002 	bne	ae7c <_kill_r+0x34>
    ae70:	e5953000 	ldr	r3, [r5]
    ae74:	e3530000 	cmp	r3, #0
    ae78:	15843000 	strne	r3, [r4]
    ae7c:	e8bd4070 	pop	{r4, r5, r6, lr}
    ae80:	e12fff1e 	bx	lr
    ae84:	20000f34 	.word	0x20000f34

0000ae88 <_getpid_r>:
    ae88:	e92d4010 	push	{r4, lr}
    ae8c:	eb000328 	bl	bb34 <_getpid>
    ae90:	e8bd4010 	pop	{r4, lr}
    ae94:	e12fff1e 	bx	lr

0000ae98 <__aeabi_drsub>:
    ae98:	e2211102 	eor	r1, r1, #-2147483648	; 0x80000000
    ae9c:	ea000000 	b	aea4 <__adddf3>

0000aea0 <__aeabi_dsub>:
    aea0:	e2233102 	eor	r3, r3, #-2147483648	; 0x80000000

0000aea4 <__adddf3>:
    aea4:	e92d4030 	push	{r4, r5, lr}
    aea8:	e1a04081 	lsl	r4, r1, #1
    aeac:	e1a05083 	lsl	r5, r3, #1
    aeb0:	e1340005 	teq	r4, r5
    aeb4:	01300002 	teqeq	r0, r2
    aeb8:	1194c000 	orrsne	ip, r4, r0
    aebc:	1195c002 	orrsne	ip, r5, r2
    aec0:	11f0cac4 	mvnsne	ip, r4, asr #21
    aec4:	11f0cac5 	mvnsne	ip, r5, asr #21
    aec8:	0a00008c 	beq	b100 <__adddf3+0x25c>
    aecc:	e1a04aa4 	lsr	r4, r4, #21
    aed0:	e0745aa5 	rsbs	r5, r4, r5, lsr #21
    aed4:	b2655000 	rsblt	r5, r5, #0
    aed8:	da000006 	ble	aef8 <__adddf3+0x54>
    aedc:	e0844005 	add	r4, r4, r5
    aee0:	e0202002 	eor	r2, r0, r2
    aee4:	e0213003 	eor	r3, r1, r3
    aee8:	e0220000 	eor	r0, r2, r0
    aeec:	e0231001 	eor	r1, r3, r1
    aef0:	e0202002 	eor	r2, r0, r2
    aef4:	e0213003 	eor	r3, r1, r3
    aef8:	e3550036 	cmp	r5, #54	; 0x36
    aefc:	88bd4030 	pophi	{r4, r5, lr}
    af00:	812fff1e 	bxhi	lr
    af04:	e3110102 	tst	r1, #-2147483648	; 0x80000000
    af08:	e1a01601 	lsl	r1, r1, #12
    af0c:	e3a0c601 	mov	ip, #1048576	; 0x100000
    af10:	e18c1621 	orr	r1, ip, r1, lsr #12
    af14:	0a000001 	beq	af20 <__adddf3+0x7c>
    af18:	e2700000 	rsbs	r0, r0, #0
    af1c:	e2e11000 	rsc	r1, r1, #0
    af20:	e3130102 	tst	r3, #-2147483648	; 0x80000000
    af24:	e1a03603 	lsl	r3, r3, #12
    af28:	e18c3623 	orr	r3, ip, r3, lsr #12
    af2c:	0a000001 	beq	af38 <__adddf3+0x94>
    af30:	e2722000 	rsbs	r2, r2, #0
    af34:	e2e33000 	rsc	r3, r3, #0
    af38:	e1340005 	teq	r4, r5
    af3c:	0a000069 	beq	b0e8 <__adddf3+0x244>
    af40:	e2444001 	sub	r4, r4, #1
    af44:	e275e020 	rsbs	lr, r5, #32
    af48:	ba000005 	blt	af64 <__adddf3+0xc0>
    af4c:	e1a0ce12 	lsl	ip, r2, lr
    af50:	e0900532 	adds	r0, r0, r2, lsr r5
    af54:	e2a11000 	adc	r1, r1, #0
    af58:	e0900e13 	adds	r0, r0, r3, lsl lr
    af5c:	e0b11553 	adcs	r1, r1, r3, asr r5
    af60:	ea000006 	b	af80 <__adddf3+0xdc>
    af64:	e2455020 	sub	r5, r5, #32
    af68:	e28ee020 	add	lr, lr, #32
    af6c:	e3520001 	cmp	r2, #1
    af70:	e1a0ce13 	lsl	ip, r3, lr
    af74:	238cc002 	orrcs	ip, ip, #2
    af78:	e0900553 	adds	r0, r0, r3, asr r5
    af7c:	e0b11fc3 	adcs	r1, r1, r3, asr #31
    af80:	e2015102 	and	r5, r1, #-2147483648	; 0x80000000
    af84:	5a000002 	bpl	af94 <__adddf3+0xf0>
    af88:	e27cc000 	rsbs	ip, ip, #0
    af8c:	e2f00000 	rscs	r0, r0, #0
    af90:	e2e11000 	rsc	r1, r1, #0
    af94:	e3510601 	cmp	r1, #1048576	; 0x100000
    af98:	3a00000f 	bcc	afdc <__adddf3+0x138>
    af9c:	e3510602 	cmp	r1, #2097152	; 0x200000
    afa0:	3a000006 	bcc	afc0 <__adddf3+0x11c>
    afa4:	e1b010a1 	lsrs	r1, r1, #1
    afa8:	e1b00060 	rrxs	r0, r0
    afac:	e1a0c06c 	rrx	ip, ip
    afb0:	e2844001 	add	r4, r4, #1
    afb4:	e1a02a84 	lsl	r2, r4, #21
    afb8:	e3720501 	cmn	r2, #4194304	; 0x400000
    afbc:	2a00006b 	bcs	b170 <__adddf3+0x2cc>
    afc0:	e35c0102 	cmp	ip, #-2147483648	; 0x80000000
    afc4:	01b0c0a0 	lsrseq	ip, r0, #1
    afc8:	e2b00000 	adcs	r0, r0, #0
    afcc:	e0a11a04 	adc	r1, r1, r4, lsl #20
    afd0:	e1811005 	orr	r1, r1, r5
    afd4:	e8bd4030 	pop	{r4, r5, lr}
    afd8:	e12fff1e 	bx	lr
    afdc:	e1b0c08c 	lsls	ip, ip, #1
    afe0:	e0b00000 	adcs	r0, r0, r0
    afe4:	e0a11001 	adc	r1, r1, r1
    afe8:	e2544001 	subs	r4, r4, #1
    afec:	23510601 	cmpcs	r1, #1048576	; 0x100000
    aff0:	2afffff2 	bcs	afc0 <__adddf3+0x11c>
    aff4:	e3310000 	teq	r1, #0
    aff8:	13a03014 	movne	r3, #20
    affc:	03a03034 	moveq	r3, #52	; 0x34
    b000:	01a01000 	moveq	r1, r0
    b004:	03a00000 	moveq	r0, #0
    b008:	e1a02001 	mov	r2, r1
    b00c:	e3520801 	cmp	r2, #65536	; 0x10000
    b010:	21a02822 	lsrcs	r2, r2, #16
    b014:	22433010 	subcs	r3, r3, #16
    b018:	e3520c01 	cmp	r2, #256	; 0x100
    b01c:	21a02422 	lsrcs	r2, r2, #8
    b020:	22433008 	subcs	r3, r3, #8
    b024:	e3520010 	cmp	r2, #16
    b028:	21a02222 	lsrcs	r2, r2, #4
    b02c:	22433004 	subcs	r3, r3, #4
    b030:	e3520004 	cmp	r2, #4
    b034:	22433002 	subcs	r3, r3, #2
    b038:	304330a2 	subcc	r3, r3, r2, lsr #1
    b03c:	e04331a2 	sub	r3, r3, r2, lsr #3
    b040:	e2532020 	subs	r2, r3, #32
    b044:	aa000007 	bge	b068 <__adddf3+0x1c4>
    b048:	e292200c 	adds	r2, r2, #12
    b04c:	da000004 	ble	b064 <__adddf3+0x1c0>
    b050:	e282c014 	add	ip, r2, #20
    b054:	e262200c 	rsb	r2, r2, #12
    b058:	e1a00c11 	lsl	r0, r1, ip
    b05c:	e1a01231 	lsr	r1, r1, r2
    b060:	ea000004 	b	b078 <__adddf3+0x1d4>
    b064:	e2822014 	add	r2, r2, #20
    b068:	d262c020 	rsble	ip, r2, #32
    b06c:	e1a01211 	lsl	r1, r1, r2
    b070:	d1811c30 	orrle	r1, r1, r0, lsr ip
    b074:	d1a00210 	lslle	r0, r0, r2
    b078:	e0544003 	subs	r4, r4, r3
    b07c:	a0811a04 	addge	r1, r1, r4, lsl #20
    b080:	a1811005 	orrge	r1, r1, r5
    b084:	a8bd4030 	popge	{r4, r5, lr}
    b088:	a12fff1e 	bxge	lr
    b08c:	e1e04004 	mvn	r4, r4
    b090:	e254401f 	subs	r4, r4, #31
    b094:	aa00000f 	bge	b0d8 <__adddf3+0x234>
    b098:	e294400c 	adds	r4, r4, #12
    b09c:	ca000006 	bgt	b0bc <__adddf3+0x218>
    b0a0:	e2844014 	add	r4, r4, #20
    b0a4:	e2642020 	rsb	r2, r4, #32
    b0a8:	e1a00430 	lsr	r0, r0, r4
    b0ac:	e1800211 	orr	r0, r0, r1, lsl r2
    b0b0:	e1851431 	orr	r1, r5, r1, lsr r4
    b0b4:	e8bd4030 	pop	{r4, r5, lr}
    b0b8:	e12fff1e 	bx	lr
    b0bc:	e264400c 	rsb	r4, r4, #12
    b0c0:	e2642020 	rsb	r2, r4, #32
    b0c4:	e1a00230 	lsr	r0, r0, r2
    b0c8:	e1800411 	orr	r0, r0, r1, lsl r4
    b0cc:	e1a01005 	mov	r1, r5
    b0d0:	e8bd4030 	pop	{r4, r5, lr}
    b0d4:	e12fff1e 	bx	lr
    b0d8:	e1a00431 	lsr	r0, r1, r4
    b0dc:	e1a01005 	mov	r1, r5
    b0e0:	e8bd4030 	pop	{r4, r5, lr}
    b0e4:	e12fff1e 	bx	lr
    b0e8:	e3340000 	teq	r4, #0
    b0ec:	e2233601 	eor	r3, r3, #1048576	; 0x100000
    b0f0:	02211601 	eoreq	r1, r1, #1048576	; 0x100000
    b0f4:	02844001 	addeq	r4, r4, #1
    b0f8:	12455001 	subne	r5, r5, #1
    b0fc:	eaffff8f 	b	af40 <__adddf3+0x9c>
    b100:	e1f0cac4 	mvns	ip, r4, asr #21
    b104:	11f0cac5 	mvnsne	ip, r5, asr #21
    b108:	0a00001d 	beq	b184 <__adddf3+0x2e0>
    b10c:	e1340005 	teq	r4, r5
    b110:	01300002 	teqeq	r0, r2
    b114:	0a000004 	beq	b12c <__adddf3+0x288>
    b118:	e194c000 	orrs	ip, r4, r0
    b11c:	01a01003 	moveq	r1, r3
    b120:	01a00002 	moveq	r0, r2
    b124:	e8bd4030 	pop	{r4, r5, lr}
    b128:	e12fff1e 	bx	lr
    b12c:	e1310003 	teq	r1, r3
    b130:	13a01000 	movne	r1, #0
    b134:	13a00000 	movne	r0, #0
    b138:	18bd4030 	popne	{r4, r5, lr}
    b13c:	112fff1e 	bxne	lr
    b140:	e1b0caa4 	lsrs	ip, r4, #21
    b144:	1a000004 	bne	b15c <__adddf3+0x2b8>
    b148:	e1b00080 	lsls	r0, r0, #1
    b14c:	e0b11001 	adcs	r1, r1, r1
    b150:	23811102 	orrcs	r1, r1, #-2147483648	; 0x80000000
    b154:	e8bd4030 	pop	{r4, r5, lr}
    b158:	e12fff1e 	bx	lr
    b15c:	e2944501 	adds	r4, r4, #4194304	; 0x400000
    b160:	32811601 	addcc	r1, r1, #1048576	; 0x100000
    b164:	38bd4030 	popcc	{r4, r5, lr}
    b168:	312fff1e 	bxcc	lr
    b16c:	e2015102 	and	r5, r1, #-2147483648	; 0x80000000
    b170:	e385147f 	orr	r1, r5, #2130706432	; 0x7f000000
    b174:	e381160f 	orr	r1, r1, #15728640	; 0xf00000
    b178:	e3a00000 	mov	r0, #0
    b17c:	e8bd4030 	pop	{r4, r5, lr}
    b180:	e12fff1e 	bx	lr
    b184:	e1f0cac4 	mvns	ip, r4, asr #21
    b188:	11a01003 	movne	r1, r3
    b18c:	11a00002 	movne	r0, r2
    b190:	01f0cac5 	mvnseq	ip, r5, asr #21
    b194:	11a03001 	movne	r3, r1
    b198:	11a02000 	movne	r2, r0
    b19c:	e1904601 	orrs	r4, r0, r1, lsl #12
    b1a0:	01925603 	orrseq	r5, r2, r3, lsl #12
    b1a4:	01310003 	teqeq	r1, r3
    b1a8:	13811702 	orrne	r1, r1, #524288	; 0x80000
    b1ac:	e8bd4030 	pop	{r4, r5, lr}
    b1b0:	e12fff1e 	bx	lr

0000b1b4 <__aeabi_ui2d>:
    b1b4:	e3300000 	teq	r0, #0
    b1b8:	03a01000 	moveq	r1, #0
    b1bc:	012fff1e 	bxeq	lr
    b1c0:	e92d4030 	push	{r4, r5, lr}
    b1c4:	e3a04b01 	mov	r4, #1024	; 0x400
    b1c8:	e2844032 	add	r4, r4, #50	; 0x32
    b1cc:	e3a05000 	mov	r5, #0
    b1d0:	e3a01000 	mov	r1, #0
    b1d4:	eaffff86 	b	aff4 <__adddf3+0x150>

0000b1d8 <__aeabi_i2d>:
    b1d8:	e3300000 	teq	r0, #0
    b1dc:	03a01000 	moveq	r1, #0
    b1e0:	012fff1e 	bxeq	lr
    b1e4:	e92d4030 	push	{r4, r5, lr}
    b1e8:	e3a04b01 	mov	r4, #1024	; 0x400
    b1ec:	e2844032 	add	r4, r4, #50	; 0x32
    b1f0:	e2105102 	ands	r5, r0, #-2147483648	; 0x80000000
    b1f4:	42600000 	rsbmi	r0, r0, #0
    b1f8:	e3a01000 	mov	r1, #0
    b1fc:	eaffff7c 	b	aff4 <__adddf3+0x150>

0000b200 <__aeabi_f2d>:
    b200:	e1b02080 	lsls	r2, r0, #1
    b204:	e1a011c2 	asr	r1, r2, #3
    b208:	e1a01061 	rrx	r1, r1
    b20c:	e1a00e02 	lsl	r0, r2, #28
    b210:	121234ff 	andsne	r3, r2, #-16777216	; 0xff000000
    b214:	133304ff 	teqne	r3, #-16777216	; 0xff000000
    b218:	1221130e 	eorne	r1, r1, #939524096	; 0x38000000
    b21c:	112fff1e 	bxne	lr
    b220:	e3d224ff 	bics	r2, r2, #-16777216	; 0xff000000
    b224:	012fff1e 	bxeq	lr
    b228:	e33304ff 	teq	r3, #-16777216	; 0xff000000
    b22c:	03811702 	orreq	r1, r1, #524288	; 0x80000
    b230:	012fff1e 	bxeq	lr
    b234:	e92d4030 	push	{r4, r5, lr}
    b238:	e3a04d0e 	mov	r4, #896	; 0x380
    b23c:	e2015102 	and	r5, r1, #-2147483648	; 0x80000000
    b240:	e3c11102 	bic	r1, r1, #-2147483648	; 0x80000000
    b244:	eaffff6a 	b	aff4 <__adddf3+0x150>

0000b248 <__aeabi_ul2d>:
    b248:	e1902001 	orrs	r2, r0, r1
    b24c:	012fff1e 	bxeq	lr
    b250:	e92d4030 	push	{r4, r5, lr}
    b254:	e3a05000 	mov	r5, #0
    b258:	ea000006 	b	b278 <__aeabi_l2d+0x1c>

0000b25c <__aeabi_l2d>:
    b25c:	e1902001 	orrs	r2, r0, r1
    b260:	012fff1e 	bxeq	lr
    b264:	e92d4030 	push	{r4, r5, lr}
    b268:	e2115102 	ands	r5, r1, #-2147483648	; 0x80000000
    b26c:	5a000001 	bpl	b278 <__aeabi_l2d+0x1c>
    b270:	e2700000 	rsbs	r0, r0, #0
    b274:	e2e11000 	rsc	r1, r1, #0
    b278:	e3a04b01 	mov	r4, #1024	; 0x400
    b27c:	e2844032 	add	r4, r4, #50	; 0x32
    b280:	e1b0cb21 	lsrs	ip, r1, #22
    b284:	0affff42 	beq	af94 <__adddf3+0xf0>
    b288:	e3a02003 	mov	r2, #3
    b28c:	e1b0c1ac 	lsrs	ip, ip, #3
    b290:	12822003 	addne	r2, r2, #3
    b294:	e1b0c1ac 	lsrs	ip, ip, #3
    b298:	12822003 	addne	r2, r2, #3
    b29c:	e08221ac 	add	r2, r2, ip, lsr #3
    b2a0:	e2623020 	rsb	r3, r2, #32
    b2a4:	e1a0c310 	lsl	ip, r0, r3
    b2a8:	e1a00230 	lsr	r0, r0, r2
    b2ac:	e1800311 	orr	r0, r0, r1, lsl r3
    b2b0:	e1a01231 	lsr	r1, r1, r2
    b2b4:	e0844002 	add	r4, r4, r2
    b2b8:	eaffff35 	b	af94 <__adddf3+0xf0>

0000b2bc <__aeabi_dmul>:
    b2bc:	e92d4070 	push	{r4, r5, r6, lr}
    b2c0:	e3a0c0ff 	mov	ip, #255	; 0xff
    b2c4:	e38ccc07 	orr	ip, ip, #1792	; 0x700
    b2c8:	e01c4a21 	ands	r4, ip, r1, lsr #20
    b2cc:	101c5a23 	andsne	r5, ip, r3, lsr #20
    b2d0:	1134000c 	teqne	r4, ip
    b2d4:	1135000c 	teqne	r5, ip
    b2d8:	0b000075 	bleq	b4b4 <__aeabi_dmul+0x1f8>
    b2dc:	e0844005 	add	r4, r4, r5
    b2e0:	e0216003 	eor	r6, r1, r3
    b2e4:	e1c11a8c 	bic	r1, r1, ip, lsl #21
    b2e8:	e1c33a8c 	bic	r3, r3, ip, lsl #21
    b2ec:	e1905601 	orrs	r5, r0, r1, lsl #12
    b2f0:	11925603 	orrsne	r5, r2, r3, lsl #12
    b2f4:	e3811601 	orr	r1, r1, #1048576	; 0x100000
    b2f8:	e3833601 	orr	r3, r3, #1048576	; 0x100000
    b2fc:	0a00001d 	beq	b378 <__aeabi_dmul+0xbc>
    b300:	e08ec290 	umull	ip, lr, r0, r2
    b304:	e3a05000 	mov	r5, #0
    b308:	e0a5e291 	umlal	lr, r5, r1, r2
    b30c:	e2062102 	and	r2, r6, #-2147483648	; 0x80000000
    b310:	e0a5e390 	umlal	lr, r5, r0, r3
    b314:	e3a06000 	mov	r6, #0
    b318:	e0a65391 	umlal	r5, r6, r1, r3
    b31c:	e33c0000 	teq	ip, #0
    b320:	138ee001 	orrne	lr, lr, #1
    b324:	e24440ff 	sub	r4, r4, #255	; 0xff
    b328:	e3560c02 	cmp	r6, #512	; 0x200
    b32c:	e2c44c03 	sbc	r4, r4, #768	; 0x300
    b330:	2a000002 	bcs	b340 <__aeabi_dmul+0x84>
    b334:	e1b0e08e 	lsls	lr, lr, #1
    b338:	e0b55005 	adcs	r5, r5, r5
    b33c:	e0a66006 	adc	r6, r6, r6
    b340:	e1821586 	orr	r1, r2, r6, lsl #11
    b344:	e1811aa5 	orr	r1, r1, r5, lsr #21
    b348:	e1a00585 	lsl	r0, r5, #11
    b34c:	e1800aae 	orr	r0, r0, lr, lsr #21
    b350:	e1a0e58e 	lsl	lr, lr, #11
    b354:	e254c0fd 	subs	ip, r4, #253	; 0xfd
    b358:	835c0c07 	cmphi	ip, #1792	; 0x700
    b35c:	8a000011 	bhi	b3a8 <__aeabi_dmul+0xec>
    b360:	e35e0102 	cmp	lr, #-2147483648	; 0x80000000
    b364:	01b0e0a0 	lsrseq	lr, r0, #1
    b368:	e2b00000 	adcs	r0, r0, #0
    b36c:	e0a11a04 	adc	r1, r1, r4, lsl #20
    b370:	e8bd4070 	pop	{r4, r5, r6, lr}
    b374:	e12fff1e 	bx	lr
    b378:	e2066102 	and	r6, r6, #-2147483648	; 0x80000000
    b37c:	e1861001 	orr	r1, r6, r1
    b380:	e1800002 	orr	r0, r0, r2
    b384:	e0211003 	eor	r1, r1, r3
    b388:	e05440ac 	subs	r4, r4, ip, lsr #1
    b38c:	c074500c 	rsbsgt	r5, r4, ip
    b390:	c1811a04 	orrgt	r1, r1, r4, lsl #20
    b394:	c8bd4070 	popgt	{r4, r5, r6, lr}
    b398:	c12fff1e 	bxgt	lr
    b39c:	e3811601 	orr	r1, r1, #1048576	; 0x100000
    b3a0:	e3a0e000 	mov	lr, #0
    b3a4:	e2544001 	subs	r4, r4, #1
    b3a8:	ca00005d 	bgt	b524 <__aeabi_dmul+0x268>
    b3ac:	e3740036 	cmn	r4, #54	; 0x36
    b3b0:	d3a00000 	movle	r0, #0
    b3b4:	d2011102 	andle	r1, r1, #-2147483648	; 0x80000000
    b3b8:	d8bd4070 	pople	{r4, r5, r6, lr}
    b3bc:	d12fff1e 	bxle	lr
    b3c0:	e2644000 	rsb	r4, r4, #0
    b3c4:	e2544020 	subs	r4, r4, #32
    b3c8:	aa00001a 	bge	b438 <__aeabi_dmul+0x17c>
    b3cc:	e294400c 	adds	r4, r4, #12
    b3d0:	ca00000c 	bgt	b408 <__aeabi_dmul+0x14c>
    b3d4:	e2844014 	add	r4, r4, #20
    b3d8:	e2645020 	rsb	r5, r4, #32
    b3dc:	e1a03510 	lsl	r3, r0, r5
    b3e0:	e1a00430 	lsr	r0, r0, r4
    b3e4:	e1800511 	orr	r0, r0, r1, lsl r5
    b3e8:	e2012102 	and	r2, r1, #-2147483648	; 0x80000000
    b3ec:	e3c11102 	bic	r1, r1, #-2147483648	; 0x80000000
    b3f0:	e0900fa3 	adds	r0, r0, r3, lsr #31
    b3f4:	e0a21431 	adc	r1, r2, r1, lsr r4
    b3f8:	e19ee083 	orrs	lr, lr, r3, lsl #1
    b3fc:	01c00fa3 	biceq	r0, r0, r3, lsr #31
    b400:	e8bd4070 	pop	{r4, r5, r6, lr}
    b404:	e12fff1e 	bx	lr
    b408:	e264400c 	rsb	r4, r4, #12
    b40c:	e2645020 	rsb	r5, r4, #32
    b410:	e1a03410 	lsl	r3, r0, r4
    b414:	e1a00530 	lsr	r0, r0, r5
    b418:	e1800411 	orr	r0, r0, r1, lsl r4
    b41c:	e2011102 	and	r1, r1, #-2147483648	; 0x80000000
    b420:	e0900fa3 	adds	r0, r0, r3, lsr #31
    b424:	e2a11000 	adc	r1, r1, #0
    b428:	e19ee083 	orrs	lr, lr, r3, lsl #1
    b42c:	01c00fa3 	biceq	r0, r0, r3, lsr #31
    b430:	e8bd4070 	pop	{r4, r5, r6, lr}
    b434:	e12fff1e 	bx	lr
    b438:	e2645020 	rsb	r5, r4, #32
    b43c:	e18ee510 	orr	lr, lr, r0, lsl r5
    b440:	e1a03430 	lsr	r3, r0, r4
    b444:	e1833511 	orr	r3, r3, r1, lsl r5
    b448:	e1a00431 	lsr	r0, r1, r4
    b44c:	e2011102 	and	r1, r1, #-2147483648	; 0x80000000
    b450:	e1c00431 	bic	r0, r0, r1, lsr r4
    b454:	e0800fa3 	add	r0, r0, r3, lsr #31
    b458:	e19ee083 	orrs	lr, lr, r3, lsl #1
    b45c:	01c00fa3 	biceq	r0, r0, r3, lsr #31
    b460:	e8bd4070 	pop	{r4, r5, r6, lr}
    b464:	e12fff1e 	bx	lr
    b468:	e3340000 	teq	r4, #0
    b46c:	1a000008 	bne	b494 <__aeabi_dmul+0x1d8>
    b470:	e2016102 	and	r6, r1, #-2147483648	; 0x80000000
    b474:	e1b00080 	lsls	r0, r0, #1
    b478:	e0a11001 	adc	r1, r1, r1
    b47c:	e3110601 	tst	r1, #1048576	; 0x100000
    b480:	02444001 	subeq	r4, r4, #1
    b484:	0afffffa 	beq	b474 <__aeabi_dmul+0x1b8>
    b488:	e1811006 	orr	r1, r1, r6
    b48c:	e3350000 	teq	r5, #0
    b490:	112fff1e 	bxne	lr
    b494:	e2036102 	and	r6, r3, #-2147483648	; 0x80000000
    b498:	e1b02082 	lsls	r2, r2, #1
    b49c:	e0a33003 	adc	r3, r3, r3
    b4a0:	e3130601 	tst	r3, #1048576	; 0x100000
    b4a4:	02455001 	subeq	r5, r5, #1
    b4a8:	0afffffa 	beq	b498 <__aeabi_dmul+0x1dc>
    b4ac:	e1833006 	orr	r3, r3, r6
    b4b0:	e12fff1e 	bx	lr
    b4b4:	e134000c 	teq	r4, ip
    b4b8:	e00c5a23 	and	r5, ip, r3, lsr #20
    b4bc:	1135000c 	teqne	r5, ip
    b4c0:	0a000007 	beq	b4e4 <__aeabi_dmul+0x228>
    b4c4:	e1906081 	orrs	r6, r0, r1, lsl #1
    b4c8:	11926083 	orrsne	r6, r2, r3, lsl #1
    b4cc:	1affffe5 	bne	b468 <__aeabi_dmul+0x1ac>
    b4d0:	e0211003 	eor	r1, r1, r3
    b4d4:	e2011102 	and	r1, r1, #-2147483648	; 0x80000000
    b4d8:	e3a00000 	mov	r0, #0
    b4dc:	e8bd4070 	pop	{r4, r5, r6, lr}
    b4e0:	e12fff1e 	bx	lr
    b4e4:	e1906081 	orrs	r6, r0, r1, lsl #1
    b4e8:	01a00002 	moveq	r0, r2
    b4ec:	01a01003 	moveq	r1, r3
    b4f0:	11926083 	orrsne	r6, r2, r3, lsl #1
    b4f4:	0a000010 	beq	b53c <__aeabi_dmul+0x280>
    b4f8:	e134000c 	teq	r4, ip
    b4fc:	1a000001 	bne	b508 <__aeabi_dmul+0x24c>
    b500:	e1906601 	orrs	r6, r0, r1, lsl #12
    b504:	1a00000c 	bne	b53c <__aeabi_dmul+0x280>
    b508:	e135000c 	teq	r5, ip
    b50c:	1a000003 	bne	b520 <__aeabi_dmul+0x264>
    b510:	e1926603 	orrs	r6, r2, r3, lsl #12
    b514:	11a00002 	movne	r0, r2
    b518:	11a01003 	movne	r1, r3
    b51c:	1a000006 	bne	b53c <__aeabi_dmul+0x280>
    b520:	e0211003 	eor	r1, r1, r3
    b524:	e2011102 	and	r1, r1, #-2147483648	; 0x80000000
    b528:	e381147f 	orr	r1, r1, #2130706432	; 0x7f000000
    b52c:	e381160f 	orr	r1, r1, #15728640	; 0xf00000
    b530:	e3a00000 	mov	r0, #0
    b534:	e8bd4070 	pop	{r4, r5, r6, lr}
    b538:	e12fff1e 	bx	lr
    b53c:	e381147f 	orr	r1, r1, #2130706432	; 0x7f000000
    b540:	e381173e 	orr	r1, r1, #16252928	; 0xf80000
    b544:	e8bd4070 	pop	{r4, r5, r6, lr}
    b548:	e12fff1e 	bx	lr

0000b54c <__aeabi_ddiv>:
    b54c:	e92d4070 	push	{r4, r5, r6, lr}
    b550:	e3a0c0ff 	mov	ip, #255	; 0xff
    b554:	e38ccc07 	orr	ip, ip, #1792	; 0x700
    b558:	e01c4a21 	ands	r4, ip, r1, lsr #20
    b55c:	101c5a23 	andsne	r5, ip, r3, lsr #20
    b560:	1134000c 	teqne	r4, ip
    b564:	1135000c 	teqne	r5, ip
    b568:	0b00005e 	bleq	b6e8 <__aeabi_ddiv+0x19c>
    b56c:	e0444005 	sub	r4, r4, r5
    b570:	e021e003 	eor	lr, r1, r3
    b574:	e1925603 	orrs	r5, r2, r3, lsl #12
    b578:	e1a01601 	lsl	r1, r1, #12
    b57c:	0a00004c 	beq	b6b4 <__aeabi_ddiv+0x168>
    b580:	e1a03603 	lsl	r3, r3, #12
    b584:	e3a05201 	mov	r5, #268435456	; 0x10000000
    b588:	e1853223 	orr	r3, r5, r3, lsr #4
    b58c:	e1833c22 	orr	r3, r3, r2, lsr #24
    b590:	e1a02402 	lsl	r2, r2, #8
    b594:	e1855221 	orr	r5, r5, r1, lsr #4
    b598:	e1855c20 	orr	r5, r5, r0, lsr #24
    b59c:	e1a06400 	lsl	r6, r0, #8
    b5a0:	e20e1102 	and	r1, lr, #-2147483648	; 0x80000000
    b5a4:	e1550003 	cmp	r5, r3
    b5a8:	01560002 	cmpeq	r6, r2
    b5ac:	e2a440fd 	adc	r4, r4, #253	; 0xfd
    b5b0:	e2844c03 	add	r4, r4, #768	; 0x300
    b5b4:	2a000001 	bcs	b5c0 <__aeabi_ddiv+0x74>
    b5b8:	e1b030a3 	lsrs	r3, r3, #1
    b5bc:	e1a02062 	rrx	r2, r2
    b5c0:	e0566002 	subs	r6, r6, r2
    b5c4:	e0c55003 	sbc	r5, r5, r3
    b5c8:	e1b030a3 	lsrs	r3, r3, #1
    b5cc:	e1a02062 	rrx	r2, r2
    b5d0:	e3a00601 	mov	r0, #1048576	; 0x100000
    b5d4:	e3a0c702 	mov	ip, #524288	; 0x80000
    b5d8:	e056e002 	subs	lr, r6, r2
    b5dc:	e0d5e003 	sbcs	lr, r5, r3
    b5e0:	20466002 	subcs	r6, r6, r2
    b5e4:	21a0500e 	movcs	r5, lr
    b5e8:	2180000c 	orrcs	r0, r0, ip
    b5ec:	e1b030a3 	lsrs	r3, r3, #1
    b5f0:	e1a02062 	rrx	r2, r2
    b5f4:	e056e002 	subs	lr, r6, r2
    b5f8:	e0d5e003 	sbcs	lr, r5, r3
    b5fc:	20466002 	subcs	r6, r6, r2
    b600:	21a0500e 	movcs	r5, lr
    b604:	218000ac 	orrcs	r0, r0, ip, lsr #1
    b608:	e1b030a3 	lsrs	r3, r3, #1
    b60c:	e1a02062 	rrx	r2, r2
    b610:	e056e002 	subs	lr, r6, r2
    b614:	e0d5e003 	sbcs	lr, r5, r3
    b618:	20466002 	subcs	r6, r6, r2
    b61c:	21a0500e 	movcs	r5, lr
    b620:	2180012c 	orrcs	r0, r0, ip, lsr #2
    b624:	e1b030a3 	lsrs	r3, r3, #1
    b628:	e1a02062 	rrx	r2, r2
    b62c:	e056e002 	subs	lr, r6, r2
    b630:	e0d5e003 	sbcs	lr, r5, r3
    b634:	20466002 	subcs	r6, r6, r2
    b638:	21a0500e 	movcs	r5, lr
    b63c:	218001ac 	orrcs	r0, r0, ip, lsr #3
    b640:	e195e006 	orrs	lr, r5, r6
    b644:	0a00000d 	beq	b680 <__aeabi_ddiv+0x134>
    b648:	e1a05205 	lsl	r5, r5, #4
    b64c:	e1855e26 	orr	r5, r5, r6, lsr #28
    b650:	e1a06206 	lsl	r6, r6, #4
    b654:	e1a03183 	lsl	r3, r3, #3
    b658:	e1833ea2 	orr	r3, r3, r2, lsr #29
    b65c:	e1a02182 	lsl	r2, r2, #3
    b660:	e1b0c22c 	lsrs	ip, ip, #4
    b664:	1affffdb 	bne	b5d8 <__aeabi_ddiv+0x8c>
    b668:	e3110601 	tst	r1, #1048576	; 0x100000
    b66c:	1a000006 	bne	b68c <__aeabi_ddiv+0x140>
    b670:	e1811000 	orr	r1, r1, r0
    b674:	e3a00000 	mov	r0, #0
    b678:	e3a0c102 	mov	ip, #-2147483648	; 0x80000000
    b67c:	eaffffd5 	b	b5d8 <__aeabi_ddiv+0x8c>
    b680:	e3110601 	tst	r1, #1048576	; 0x100000
    b684:	01811000 	orreq	r1, r1, r0
    b688:	03a00000 	moveq	r0, #0
    b68c:	e254c0fd 	subs	ip, r4, #253	; 0xfd
    b690:	835c0c07 	cmphi	ip, #1792	; 0x700
    b694:	8affff43 	bhi	b3a8 <__aeabi_dmul+0xec>
    b698:	e055c003 	subs	ip, r5, r3
    b69c:	0056c002 	subseq	ip, r6, r2
    b6a0:	01b0c0a0 	lsrseq	ip, r0, #1
    b6a4:	e2b00000 	adcs	r0, r0, #0
    b6a8:	e0a11a04 	adc	r1, r1, r4, lsl #20
    b6ac:	e8bd4070 	pop	{r4, r5, r6, lr}
    b6b0:	e12fff1e 	bx	lr
    b6b4:	e20ee102 	and	lr, lr, #-2147483648	; 0x80000000
    b6b8:	e18e1621 	orr	r1, lr, r1, lsr #12
    b6bc:	e09440ac 	adds	r4, r4, ip, lsr #1
    b6c0:	c074500c 	rsbsgt	r5, r4, ip
    b6c4:	c1811a04 	orrgt	r1, r1, r4, lsl #20
    b6c8:	c8bd4070 	popgt	{r4, r5, r6, lr}
    b6cc:	c12fff1e 	bxgt	lr
    b6d0:	e3811601 	orr	r1, r1, #1048576	; 0x100000
    b6d4:	e3a0e000 	mov	lr, #0
    b6d8:	e2544001 	subs	r4, r4, #1
    b6dc:	eaffff31 	b	b3a8 <__aeabi_dmul+0xec>
    b6e0:	e185e006 	orr	lr, r5, r6
    b6e4:	eaffff2f 	b	b3a8 <__aeabi_dmul+0xec>
    b6e8:	e00c5a23 	and	r5, ip, r3, lsr #20
    b6ec:	e134000c 	teq	r4, ip
    b6f0:	0135000c 	teqeq	r5, ip
    b6f4:	0affff90 	beq	b53c <__aeabi_dmul+0x280>
    b6f8:	e134000c 	teq	r4, ip
    b6fc:	1a000006 	bne	b71c <__aeabi_ddiv+0x1d0>
    b700:	e1904601 	orrs	r4, r0, r1, lsl #12
    b704:	1affff8c 	bne	b53c <__aeabi_dmul+0x280>
    b708:	e135000c 	teq	r5, ip
    b70c:	1affff83 	bne	b520 <__aeabi_dmul+0x264>
    b710:	e1a00002 	mov	r0, r2
    b714:	e1a01003 	mov	r1, r3
    b718:	eaffff87 	b	b53c <__aeabi_dmul+0x280>
    b71c:	e135000c 	teq	r5, ip
    b720:	1a000004 	bne	b738 <__aeabi_ddiv+0x1ec>
    b724:	e1925603 	orrs	r5, r2, r3, lsl #12
    b728:	0affff68 	beq	b4d0 <__aeabi_dmul+0x214>
    b72c:	e1a00002 	mov	r0, r2
    b730:	e1a01003 	mov	r1, r3
    b734:	eaffff80 	b	b53c <__aeabi_dmul+0x280>
    b738:	e1906081 	orrs	r6, r0, r1, lsl #1
    b73c:	11926083 	orrsne	r6, r2, r3, lsl #1
    b740:	1affff48 	bne	b468 <__aeabi_dmul+0x1ac>
    b744:	e1904081 	orrs	r4, r0, r1, lsl #1
    b748:	1affff74 	bne	b520 <__aeabi_dmul+0x264>
    b74c:	e1925083 	orrs	r5, r2, r3, lsl #1
    b750:	1affff5e 	bne	b4d0 <__aeabi_dmul+0x214>
    b754:	eaffff78 	b	b53c <__aeabi_dmul+0x280>

0000b758 <__gedf2>:
    b758:	e3e0c000 	mvn	ip, #0
    b75c:	ea000002 	b	b76c <__cmpdf2+0x4>

0000b760 <__ledf2>:
    b760:	e3a0c001 	mov	ip, #1
    b764:	ea000000 	b	b76c <__cmpdf2+0x4>

0000b768 <__cmpdf2>:
    b768:	e3a0c001 	mov	ip, #1
    b76c:	e52dc004 	push	{ip}		; (str ip, [sp, #-4]!)
    b770:	e1a0c081 	lsl	ip, r1, #1
    b774:	e1f0cacc 	mvns	ip, ip, asr #21
    b778:	e1a0c083 	lsl	ip, r3, #1
    b77c:	11f0cacc 	mvnsne	ip, ip, asr #21
    b780:	0a00000e 	beq	b7c0 <__cmpdf2+0x58>
    b784:	e28dd004 	add	sp, sp, #4
    b788:	e190c081 	orrs	ip, r0, r1, lsl #1
    b78c:	0192c083 	orrseq	ip, r2, r3, lsl #1
    b790:	11310003 	teqne	r1, r3
    b794:	01300002 	teqeq	r0, r2
    b798:	03a00000 	moveq	r0, #0
    b79c:	012fff1e 	bxeq	lr
    b7a0:	e3700000 	cmn	r0, #0
    b7a4:	e1310003 	teq	r1, r3
    b7a8:	51510003 	cmppl	r1, r3
    b7ac:	01500002 	cmpeq	r0, r2
    b7b0:	21a00fc3 	asrcs	r0, r3, #31
    b7b4:	31e00fc3 	mvncc	r0, r3, asr #31
    b7b8:	e3800001 	orr	r0, r0, #1
    b7bc:	e12fff1e 	bx	lr
    b7c0:	e1a0c081 	lsl	ip, r1, #1
    b7c4:	e1f0cacc 	mvns	ip, ip, asr #21
    b7c8:	1a000001 	bne	b7d4 <__cmpdf2+0x6c>
    b7cc:	e190c601 	orrs	ip, r0, r1, lsl #12
    b7d0:	1a000004 	bne	b7e8 <__cmpdf2+0x80>
    b7d4:	e1a0c083 	lsl	ip, r3, #1
    b7d8:	e1f0cacc 	mvns	ip, ip, asr #21
    b7dc:	1affffe8 	bne	b784 <__cmpdf2+0x1c>
    b7e0:	e192c603 	orrs	ip, r2, r3, lsl #12
    b7e4:	0affffe6 	beq	b784 <__cmpdf2+0x1c>
    b7e8:	e49d0004 	pop	{r0}		; (ldr r0, [sp], #4)
    b7ec:	e12fff1e 	bx	lr

0000b7f0 <__aeabi_cdrcmple>:
    b7f0:	e1a0c000 	mov	ip, r0
    b7f4:	e1a00002 	mov	r0, r2
    b7f8:	e1a0200c 	mov	r2, ip
    b7fc:	e1a0c001 	mov	ip, r1
    b800:	e1a01003 	mov	r1, r3
    b804:	e1a0300c 	mov	r3, ip
    b808:	eaffffff 	b	b80c <__aeabi_cdcmpeq>

0000b80c <__aeabi_cdcmpeq>:
    b80c:	e92d4001 	push	{r0, lr}
    b810:	ebffffd4 	bl	b768 <__cmpdf2>
    b814:	e3500000 	cmp	r0, #0
    b818:	43700000 	cmnmi	r0, #0
    b81c:	e8bd4001 	pop	{r0, lr}
    b820:	e12fff1e 	bx	lr

0000b824 <__aeabi_dcmpeq>:
    b824:	e52de008 	str	lr, [sp, #-8]!
    b828:	ebfffff7 	bl	b80c <__aeabi_cdcmpeq>
    b82c:	03a00001 	moveq	r0, #1
    b830:	13a00000 	movne	r0, #0
    b834:	e49de008 	ldr	lr, [sp], #8
    b838:	e12fff1e 	bx	lr

0000b83c <__aeabi_dcmplt>:
    b83c:	e52de008 	str	lr, [sp, #-8]!
    b840:	ebfffff1 	bl	b80c <__aeabi_cdcmpeq>
    b844:	33a00001 	movcc	r0, #1
    b848:	23a00000 	movcs	r0, #0
    b84c:	e49de008 	ldr	lr, [sp], #8
    b850:	e12fff1e 	bx	lr

0000b854 <__aeabi_dcmple>:
    b854:	e52de008 	str	lr, [sp, #-8]!
    b858:	ebffffeb 	bl	b80c <__aeabi_cdcmpeq>
    b85c:	93a00001 	movls	r0, #1
    b860:	83a00000 	movhi	r0, #0
    b864:	e49de008 	ldr	lr, [sp], #8
    b868:	e12fff1e 	bx	lr

0000b86c <__aeabi_dcmpge>:
    b86c:	e52de008 	str	lr, [sp, #-8]!
    b870:	ebffffde 	bl	b7f0 <__aeabi_cdrcmple>
    b874:	93a00001 	movls	r0, #1
    b878:	83a00000 	movhi	r0, #0
    b87c:	e49de008 	ldr	lr, [sp], #8
    b880:	e12fff1e 	bx	lr

0000b884 <__aeabi_dcmpgt>:
    b884:	e52de008 	str	lr, [sp, #-8]!
    b888:	ebffffd8 	bl	b7f0 <__aeabi_cdrcmple>
    b88c:	33a00001 	movcc	r0, #1
    b890:	23a00000 	movcs	r0, #0
    b894:	e49de008 	ldr	lr, [sp], #8
    b898:	e12fff1e 	bx	lr

0000b89c <__aeabi_dcmpun>:
    b89c:	e1a0c081 	lsl	ip, r1, #1
    b8a0:	e1f0cacc 	mvns	ip, ip, asr #21
    b8a4:	1a000001 	bne	b8b0 <__aeabi_dcmpun+0x14>
    b8a8:	e190c601 	orrs	ip, r0, r1, lsl #12
    b8ac:	1a000006 	bne	b8cc <__aeabi_dcmpun+0x30>
    b8b0:	e1a0c083 	lsl	ip, r3, #1
    b8b4:	e1f0cacc 	mvns	ip, ip, asr #21
    b8b8:	1a000001 	bne	b8c4 <__aeabi_dcmpun+0x28>
    b8bc:	e192c603 	orrs	ip, r2, r3, lsl #12
    b8c0:	1a000001 	bne	b8cc <__aeabi_dcmpun+0x30>
    b8c4:	e3a00000 	mov	r0, #0
    b8c8:	e12fff1e 	bx	lr
    b8cc:	e3a00001 	mov	r0, #1
    b8d0:	e12fff1e 	bx	lr

0000b8d4 <__aeabi_d2iz>:
    b8d4:	e1a02081 	lsl	r2, r1, #1
    b8d8:	e2922602 	adds	r2, r2, #2097152	; 0x200000
    b8dc:	2a00000c 	bcs	b914 <__aeabi_d2iz+0x40>
    b8e0:	5a000009 	bpl	b90c <__aeabi_d2iz+0x38>
    b8e4:	e3e03e3e 	mvn	r3, #992	; 0x3e0
    b8e8:	e0532ac2 	subs	r2, r3, r2, asr #21
    b8ec:	9a00000a 	bls	b91c <__aeabi_d2iz+0x48>
    b8f0:	e1a03581 	lsl	r3, r1, #11
    b8f4:	e3833102 	orr	r3, r3, #-2147483648	; 0x80000000
    b8f8:	e1833aa0 	orr	r3, r3, r0, lsr #21
    b8fc:	e3110102 	tst	r1, #-2147483648	; 0x80000000
    b900:	e1a00233 	lsr	r0, r3, r2
    b904:	12600000 	rsbne	r0, r0, #0
    b908:	e12fff1e 	bx	lr
    b90c:	e3a00000 	mov	r0, #0
    b910:	e12fff1e 	bx	lr
    b914:	e1900601 	orrs	r0, r0, r1, lsl #12
    b918:	1a000002 	bne	b928 <__aeabi_d2iz+0x54>
    b91c:	e2110102 	ands	r0, r1, #-2147483648	; 0x80000000
    b920:	03e00102 	mvneq	r0, #-2147483648	; 0x80000000
    b924:	e12fff1e 	bx	lr
    b928:	e3a00000 	mov	r0, #0
    b92c:	e12fff1e 	bx	lr

0000b930 <__aeabi_uldivmod>:
    b930:	e3530000 	cmp	r3, #0
    b934:	03520000 	cmpeq	r2, #0
    b938:	1a000004 	bne	b950 <__aeabi_uldivmod+0x20>
    b93c:	e3510000 	cmp	r1, #0
    b940:	03500000 	cmpeq	r0, #0
    b944:	13e01000 	mvnne	r1, #0
    b948:	13e00000 	mvnne	r0, #0
    b94c:	eaffd7c4 	b	1864 <__aeabi_idiv0>
    b950:	e24dd008 	sub	sp, sp, #8
    b954:	e92d6000 	push	{sp, lr}
    b958:	eb000003 	bl	b96c <__udivmoddi4>
    b95c:	e59de004 	ldr	lr, [sp, #4]
    b960:	e28dd008 	add	sp, sp, #8
    b964:	e8bd000c 	pop	{r2, r3}
    b968:	e12fff1e 	bx	lr

0000b96c <__udivmoddi4>:
    b96c:	e92d47f0 	push	{r4, r5, r6, r7, r8, r9, sl, lr}
    b970:	e1a06003 	mov	r6, r3
    b974:	e1500002 	cmp	r0, r2
    b978:	e0d13006 	sbcs	r3, r1, r6
    b97c:	e1a04000 	mov	r4, r0
    b980:	33a00000 	movcc	r0, #0
    b984:	e1a05001 	mov	r5, r1
    b988:	e59d7020 	ldr	r7, [sp, #32]
    b98c:	31a01000 	movcc	r1, r0
    b990:	3a00003b 	bcc	ba84 <__udivmoddi4+0x118>
    b994:	e1a01006 	mov	r1, r6
    b998:	e1a00002 	mov	r0, r2
    b99c:	e1a08002 	mov	r8, r2
    b9a0:	eb00003b 	bl	ba94 <__clzdi2>
    b9a4:	e1a01005 	mov	r1, r5
    b9a8:	e1a09000 	mov	r9, r0
    b9ac:	e1a00004 	mov	r0, r4
    b9b0:	eb000037 	bl	ba94 <__clzdi2>
    b9b4:	e049c000 	sub	ip, r9, r0
    b9b8:	e1a03c16 	lsl	r3, r6, ip
    b9bc:	e24c6020 	sub	r6, ip, #32
    b9c0:	e1833618 	orr	r3, r3, r8, lsl r6
    b9c4:	e26ce020 	rsb	lr, ip, #32
    b9c8:	e1a02c18 	lsl	r2, r8, ip
    b9cc:	e1833e38 	orr	r3, r3, r8, lsr lr
    b9d0:	e1540002 	cmp	r4, r2
    b9d4:	e0d51003 	sbcs	r1, r5, r3
    b9d8:	33a00000 	movcc	r0, #0
    b9dc:	31a01000 	movcc	r1, r0
    b9e0:	3a000005 	bcc	b9fc <__udivmoddi4+0x90>
    b9e4:	e3a00001 	mov	r0, #1
    b9e8:	e0544002 	subs	r4, r4, r2
    b9ec:	e1a01610 	lsl	r1, r0, r6
    b9f0:	e1811e30 	orr	r1, r1, r0, lsr lr
    b9f4:	e0c55003 	sbc	r5, r5, r3
    b9f8:	e1a00c10 	lsl	r0, r0, ip
    b9fc:	e35c0000 	cmp	ip, #0
    ba00:	0a00001f 	beq	ba84 <__udivmoddi4+0x118>
    ba04:	e1a020a2 	lsr	r2, r2, #1
    ba08:	e1822f83 	orr	r2, r2, r3, lsl #31
    ba0c:	e1a0800c 	mov	r8, ip
    ba10:	e1a030a3 	lsr	r3, r3, #1
    ba14:	ea000007 	b	ba38 <__udivmoddi4+0xcc>
    ba18:	e0544002 	subs	r4, r4, r2
    ba1c:	e0c55003 	sbc	r5, r5, r3
    ba20:	e0944004 	adds	r4, r4, r4
    ba24:	e0a55005 	adc	r5, r5, r5
    ba28:	e2944001 	adds	r4, r4, #1
    ba2c:	e2a55000 	adc	r5, r5, #0
    ba30:	e2588001 	subs	r8, r8, #1
    ba34:	0a000006 	beq	ba54 <__udivmoddi4+0xe8>
    ba38:	e1540002 	cmp	r4, r2
    ba3c:	e0d59003 	sbcs	r9, r5, r3
    ba40:	2afffff4 	bcs	ba18 <__udivmoddi4+0xac>
    ba44:	e0944004 	adds	r4, r4, r4
    ba48:	e0a55005 	adc	r5, r5, r5
    ba4c:	e2588001 	subs	r8, r8, #1
    ba50:	1afffff8 	bne	ba38 <__udivmoddi4+0xcc>
    ba54:	e0900004 	adds	r0, r0, r4
    ba58:	e1a04c34 	lsr	r4, r4, ip
    ba5c:	e1844e15 	orr	r4, r4, r5, lsl lr
    ba60:	e1844635 	orr	r4, r4, r5, lsr r6
    ba64:	e0a11005 	adc	r1, r1, r5
    ba68:	e1a05c35 	lsr	r5, r5, ip
    ba6c:	e1a03c15 	lsl	r3, r5, ip
    ba70:	e1833614 	orr	r3, r3, r4, lsl r6
    ba74:	e1a0cc14 	lsl	ip, r4, ip
    ba78:	e1833e34 	orr	r3, r3, r4, lsr lr
    ba7c:	e050000c 	subs	r0, r0, ip
    ba80:	e0c11003 	sbc	r1, r1, r3
    ba84:	e3570000 	cmp	r7, #0
    ba88:	18870030 	stmne	r7, {r4, r5}
    ba8c:	e8bd47f0 	pop	{r4, r5, r6, r7, r8, r9, sl, lr}
    ba90:	e12fff1e 	bx	lr

0000ba94 <__clzdi2>:
    ba94:	e92d4010 	push	{r4, lr}
    ba98:	e3510000 	cmp	r1, #0
    ba9c:	1a000002 	bne	baac <__clzdi2+0x18>
    baa0:	eb000005 	bl	babc <__clzsi2>
    baa4:	e2800020 	add	r0, r0, #32
    baa8:	ea000001 	b	bab4 <__clzdi2+0x20>
    baac:	e1a00001 	mov	r0, r1
    bab0:	eb000001 	bl	babc <__clzsi2>
    bab4:	e8bd4010 	pop	{r4, lr}
    bab8:	e12fff1e 	bx	lr

0000babc <__clzsi2>:
    babc:	e3a0101c 	mov	r1, #28
    bac0:	e3500801 	cmp	r0, #65536	; 0x10000
    bac4:	21a00820 	lsrcs	r0, r0, #16
    bac8:	22411010 	subcs	r1, r1, #16
    bacc:	e3500c01 	cmp	r0, #256	; 0x100
    bad0:	21a00420 	lsrcs	r0, r0, #8
    bad4:	22411008 	subcs	r1, r1, #8
    bad8:	e3500010 	cmp	r0, #16
    badc:	21a00220 	lsrcs	r0, r0, #4
    bae0:	22411004 	subcs	r1, r1, #4
    bae4:	e28f2008 	add	r2, pc, #8
    bae8:	e7d20000 	ldrb	r0, [r2, r0]
    baec:	e0800001 	add	r0, r0, r1
    baf0:	e12fff1e 	bx	lr
    baf4:	02020304 	.word	0x02020304
    baf8:	01010101 	.word	0x01010101
	...

0000bb04 <_close>:
    bb04:	e3a02058 	mov	r2, #88	; 0x58
    bb08:	e59f3008 	ldr	r3, [pc, #8]	; bb18 <_close+0x14>
    bb0c:	e3e00000 	mvn	r0, #0
    bb10:	e5832000 	str	r2, [r3]
    bb14:	e12fff1e 	bx	lr
    bb18:	20000f34 	.word	0x20000f34

0000bb1c <_fstat>:
    bb1c:	e3a02058 	mov	r2, #88	; 0x58
    bb20:	e59f3008 	ldr	r3, [pc, #8]	; bb30 <_fstat+0x14>
    bb24:	e3e00000 	mvn	r0, #0
    bb28:	e5832000 	str	r2, [r3]
    bb2c:	e12fff1e 	bx	lr
    bb30:	20000f34 	.word	0x20000f34

0000bb34 <_getpid>:
    bb34:	e3a02058 	mov	r2, #88	; 0x58
    bb38:	e59f3008 	ldr	r3, [pc, #8]	; bb48 <_getpid+0x14>
    bb3c:	e3e00000 	mvn	r0, #0
    bb40:	e5832000 	str	r2, [r3]
    bb44:	e12fff1e 	bx	lr
    bb48:	20000f34 	.word	0x20000f34

0000bb4c <_isatty>:
    bb4c:	e3a02058 	mov	r2, #88	; 0x58
    bb50:	e59f3008 	ldr	r3, [pc, #8]	; bb60 <_isatty+0x14>
    bb54:	e3a00000 	mov	r0, #0
    bb58:	e5832000 	str	r2, [r3]
    bb5c:	e12fff1e 	bx	lr
    bb60:	20000f34 	.word	0x20000f34

0000bb64 <_kill>:
    bb64:	e3a02058 	mov	r2, #88	; 0x58
    bb68:	e59f3008 	ldr	r3, [pc, #8]	; bb78 <_kill+0x14>
    bb6c:	e3e00000 	mvn	r0, #0
    bb70:	e5832000 	str	r2, [r3]
    bb74:	e12fff1e 	bx	lr
    bb78:	20000f34 	.word	0x20000f34

0000bb7c <_lseek>:
    bb7c:	e3a02058 	mov	r2, #88	; 0x58
    bb80:	e59f3008 	ldr	r3, [pc, #8]	; bb90 <_lseek+0x14>
    bb84:	e3e00000 	mvn	r0, #0
    bb88:	e5832000 	str	r2, [r3]
    bb8c:	e12fff1e 	bx	lr
    bb90:	20000f34 	.word	0x20000f34

0000bb94 <_sbrk>:
    bb94:	e59f201c 	ldr	r2, [pc, #28]	; bbb8 <_sbrk+0x24>
    bb98:	e5923000 	ldr	r3, [r2]
    bb9c:	e59f1018 	ldr	r1, [pc, #24]	; bbbc <_sbrk+0x28>
    bba0:	e3530000 	cmp	r3, #0
    bba4:	01a03001 	moveq	r3, r1
    bba8:	e0830000 	add	r0, r3, r0
    bbac:	e5820000 	str	r0, [r2]
    bbb0:	e1a00003 	mov	r0, r3
    bbb4:	e12fff1e 	bx	lr
    bbb8:	20000f38 	.word	0x20000f38
    bbbc:	20000f40 	.word	0x20000f40

0000bbc0 <_exit>:
    bbc0:	eafffffe 	b	bbc0 <_exit>

0000bbc4 <_init>:
    bbc4:	e1a0c00d 	mov	ip, sp
    bbc8:	e92ddff8 	push	{r3, r4, r5, r6, r7, r8, r9, sl, fp, ip, lr, pc}
    bbcc:	e24cb004 	sub	fp, ip, #4
    bbd0:	e24bd028 	sub	sp, fp, #40	; 0x28
    bbd4:	e89d6ff0 	ldm	sp, {r4, r5, r6, r7, r8, r9, sl, fp, sp, lr}
    bbd8:	e12fff1e 	bx	lr

0000bbdc <_fini>:
    bbdc:	e1a0c00d 	mov	ip, sp
    bbe0:	e92ddff8 	push	{r3, r4, r5, r6, r7, r8, r9, sl, fp, ip, lr, pc}
    bbe4:	e24cb004 	sub	fp, ip, #4
    bbe8:	e24bd028 	sub	sp, fp, #40	; 0x28
    bbec:	e89d6ff0 	ldm	sp, {r4, r5, r6, r7, r8, r9, sl, fp, sp, lr}
    bbf0:	e12fff1e 	bx	lr
    bbf4:	00000000 	andeq	r0, r0, r0

0000bbf8 <__main_from_arm>:
    bbf8:	e59fc000 	ldr	ip, [pc]	; bc00 <__main_from_arm+0x8>
    bbfc:	e12fff1c 	bx	ip
    bc00:	0000070d 	.word	0x0000070d

0000bc04 <___write_from_arm>:
    bc04:	e59fc000 	ldr	ip, [pc]	; bc0c <___write_from_arm+0x8>
    bc08:	e12fff1c 	bx	ip
    bc0c:	000015b5 	.word	0x000015b5

0000bc10 <___read_from_arm>:
    bc10:	e59fc000 	ldr	ip, [pc]	; bc18 <___read_from_arm+0x8>
    bc14:	e12fff1c 	bx	ip
    bc18:	000015f1 	.word	0x000015f1
	...
    bc28:	74747542 	.word	0x74747542
    bc2c:	31206e6f 	.word	0x31206e6f
    bc30:	65727020 	.word	0x65727020
    bc34:	64657373 	.word	0x64657373
    bc38:	46502820 	.word	0x46502820
    bc3c:	000a2933 	.word	0x000a2933
    bc40:	74747542 	.word	0x74747542
    bc44:	32206e6f 	.word	0x32206e6f
    bc48:	65727020 	.word	0x65727020
    bc4c:	64657373 	.word	0x64657373
    bc50:	46502820 	.word	0x46502820
    bc54:	000a2935 	.word	0x000a2935
    bc58:	65636552 	.word	0x65636552
    bc5c:	64657669 	.word	0x64657669
    bc60:	63615020 	.word	0x63615020
    bc64:	3a74656b 	.word	0x3a74656b
    bc68:	3d444920 	.word	0x3d444920
    bc6c:	30257830 	.word	0x30257830
    bc70:	202c5832 	.word	0x202c5832
    bc74:	3d4e454c 	.word	0x3d4e454c
    bc78:	000a6425 	.word	0x000a6425
    bc7c:	6e6b6e55 	.word	0x6e6b6e55
    bc80:	206e776f 	.word	0x206e776f
    bc84:	6b636150 	.word	0x6b636150
    bc88:	49207465 	.word	0x49207465
    bc8c:	30203a44 	.word	0x30203a44
    bc90:	32302578 	.word	0x32302578
    bc94:	00000a58 	.word	0x00000a58
    bc98:	54524155 	.word	0x54524155
    bc9c:	52432033 	.word	0x52432033
    bca0:	72652043 	.word	0x72652043
    bca4:	21726f72 	.word	0x21726f72
    bca8:	0000000a 	.word	0x0000000a
    bcac:	0000036c 	.word	0x0000036c
    bcb0:	0000037a 	.word	0x0000037a
    bcb4:	00000384 	.word	0x00000384
    bcb8:	0000034e 	.word	0x0000034e
    bcbc:	00000318 	.word	0x00000318
    bcc0:	5d73255b 	.word	0x5d73255b
    bcc4:	746e6920 	.word	0x746e6920
    bcc8:	75727265 	.word	0x75727265
    bccc:	6f207470 	.word	0x6f207470
    bcd0:	72756363 	.word	0x72756363
    bcd4:	21646572 	.word	0x21646572
    bcd8:	0000000a 	.word	0x0000000a
    bcdc:	652d6e55 	.word	0x652d6e55
    bce0:	63657078 	.word	0x63657078
    bce4:	20646574 	.word	0x20646574
    bce8:	65746e69 	.word	0x65746e69
    bcec:	70757272 	.word	0x70757272
    bcf0:	0a2e7374 	.word	0x0a2e7374
    bcf4:	00000000 	.word	0x00000000
    bcf8:	706e490a 	.word	0x706e490a
    bcfc:	003a7475 	.word	0x003a7475
    bd00:	00206325 	.word	0x00206325
    bd04:	6172540a 	.word	0x6172540a
    bd08:	696d736e 	.word	0x696d736e
    bd0c:	6f697373 	.word	0x6f697373
    bd10:	6554206e 	.word	0x6554206e
    bd14:	003a7473 	.word	0x003a7473
    bd18:	2d2d2d2b 	.word	0x2d2d2d2b
    bd1c:	2d2d2d2d 	.word	0x2d2d2d2d
    bd20:	2d2d2d2d 	.word	0x2d2d2d2d
    bd24:	2d2d2d2d 	.word	0x2d2d2d2d
    bd28:	2d2d2d2d 	.word	0x2d2d2d2d
    bd2c:	2d2d2d2d 	.word	0x2d2d2d2d
    bd30:	2d2d2d2d 	.word	0x2d2d2d2d
    bd34:	2d2d2d2d 	.word	0x2d2d2d2d
    bd38:	2d2d2d2d 	.word	0x2d2d2d2d
    bd3c:	2d2d2d2d 	.word	0x2d2d2d2d
    bd40:	2d2d2d2d 	.word	0x2d2d2d2d
    bd44:	2d2d2d2d 	.word	0x2d2d2d2d
    bd48:	2d2d2d2d 	.word	0x2d2d2d2d
    bd4c:	2d2d2d2d 	.word	0x2d2d2d2d
    bd50:	2d2d2d2d 	.word	0x2d2d2d2d
    bd54:	00000a2b 	.word	0x00000a2b
    bd58:	5520207c 	.word	0x5520207c
    bd5c:	20545241 	.word	0x20545241
    bd60:	636e7546 	.word	0x636e7546
    bd64:	6e6f6974 	.word	0x6e6f6974
    bd68:	73655420 	.word	0x73655420
    bd6c:	20202074 	.word	0x20202074
    bd70:	20202020 	.word	0x20202020
    bd74:	20202020 	.word	0x20202020
    bd78:	20202020 	.word	0x20202020
    bd7c:	20202020 	.word	0x20202020
    bd80:	20202020 	.word	0x20202020
    bd84:	20202020 	.word	0x20202020
    bd88:	20202020 	.word	0x20202020
    bd8c:	20202020 	.word	0x20202020
    bd90:	20202020 	.word	0x20202020
    bd94:	00000a7c 	.word	0x00000a7c
    bd98:	4420207c 	.word	0x4420207c
    bd9c:	72637365 	.word	0x72637365
    bda0:	69747069 	.word	0x69747069
    bda4:	3a206e6f 	.word	0x3a206e6f
    bda8:	20202020 	.word	0x20202020
    bdac:	20202020 	.word	0x20202020
    bdb0:	20202020 	.word	0x20202020
    bdb4:	20202020 	.word	0x20202020
    bdb8:	20202020 	.word	0x20202020
    bdbc:	20202020 	.word	0x20202020
    bdc0:	20202020 	.word	0x20202020
    bdc4:	20202020 	.word	0x20202020
    bdc8:	20202020 	.word	0x20202020
    bdcc:	20202020 	.word	0x20202020
    bdd0:	20202020 	.word	0x20202020
    bdd4:	00000a7c 	.word	0x00000a7c
    bdd8:	2020207c 	.word	0x2020207c
    bddc:	65685420 	.word	0x65685420
    bde0:	6d617320 	.word	0x6d617320
    bde4:	20656c70 	.word	0x20656c70
    bde8:	65646f63 	.word	0x65646f63
    bdec:	6c697720 	.word	0x6c697720
    bdf0:	7270206c 	.word	0x7270206c
    bdf4:	20746e69 	.word	0x20746e69
    bdf8:	75706e69 	.word	0x75706e69
    bdfc:	68632074 	.word	0x68632074
    be00:	6f207261 	.word	0x6f207261
    be04:	6574206e 	.word	0x6574206e
    be08:	6e696d72 	.word	0x6e696d72
    be0c:	20206c61 	.word	0x20206c61
    be10:	20202020 	.word	0x20202020
    be14:	00000a7c 	.word	0x00000a7c
    be18:	2020207c 	.word	0x2020207c
    be1c:	656c5020 	.word	0x656c5020
    be20:	20657361 	.word	0x20657361
    be24:	65746e65 	.word	0x65746e65
    be28:	6e612072 	.word	0x6e612072
    be2c:	6f742079 	.word	0x6f742079
    be30:	61747320 	.word	0x61747320
    be34:	20207472 	.word	0x20207472
    be38:	28202020 	.word	0x28202020
    be3c:	73657250 	.word	0x73657250
    be40:	30272073 	.word	0x30272073
    be44:	6f742027 	.word	0x6f742027
    be48:	69786520 	.word	0x69786520
    be4c:	20202974 	.word	0x20202974
    be50:	20202020 	.word	0x20202020
    be54:	00000a7c 	.word	0x00000a7c
    be58:	5241550a 	.word	0x5241550a
    be5c:	61532054 	.word	0x61532054
    be60:	656c706d 	.word	0x656c706d
    be64:	6d654420 	.word	0x6d654420
    be68:	6e45206f 	.word	0x6e45206f
    be6c:	000a2e64 	.word	0x000a2e64
    be70:	50430a0a 	.word	0x50430a0a
    be74:	20402055 	.word	0x20402055
    be78:	48756c25 	.word	0x48756c25
    be7c:	00000a7a 	.word	0x00000a7a
    be80:	41550a0a 	.word	0x41550a0a
    be84:	53205452 	.word	0x53205452
    be88:	6c706d61 	.word	0x6c706d61
    be8c:	72502065 	.word	0x72502065
    be90:	6172676f 	.word	0x6172676f
    be94:	00000a6d 	.word	0x00000a6d
    be98:	392e4150 	.word	0x392e4150
    be9c:	646e6120 	.word	0x646e6120
    bea0:	2e465020 	.word	0x2e465020
    bea4:	72612035 	.word	0x72612035
    bea8:	73752065 	.word	0x73752065
    beac:	74206465 	.word	0x74206465
    beb0:	6574206f 	.word	0x6574206f
    beb4:	69207473 	.word	0x69207473
    beb8:	7265746e 	.word	0x7265746e
    bebc:	74707572 	.word	0x74707572
    bec0:	2e2e2e20 	.word	0x2e2e2e20
    bec4:	0a2e2e2e 	.word	0x0a2e2e2e
    bec8:	00000000 	.word	0x00000000
    becc:	74747542 	.word	0x74747542
    bed0:	5f316e6f 	.word	0x5f316e6f
    bed4:	00334150 	.word	0x00334150
    bed8:	74747542 	.word	0x74747542
    bedc:	5f316e6f 	.word	0x5f316e6f
    bee0:	00334650 	.word	0x00334650
    bee4:	74747542 	.word	0x74747542
    bee8:	5f326e6f 	.word	0x5f326e6f
    beec:	00354650 	.word	0x00354650
    bef0:	736e6553 	.word	0x736e6553
    bef4:	505f726f 	.word	0x505f726f
    bef8:	00003444 	.word	0x00003444
    befc:	75706e49 	.word	0x75706e49
    bf00:	43505f74 	.word	0x43505f74
    bf04:	00000035 	.word	0x00000035
    bf08:	75706e49 	.word	0x75706e49
    bf0c:	43505f74 	.word	0x43505f74
    bf10:	00000031 	.word	0x00000031
    bf14:	00000000 	.word	0x00000000
    bf18:	00000004 	.word	0x00000004
    bf1c:	0000000c 	.word	0x0000000c
    bf20:	00000024 	.word	0x00000024
    bf24:	00000000 	.word	0x00000000
    bf28:	00000004 	.word	0x00000004
    bf2c:	0000002c 	.word	0x0000002c
    bf30:	00000000 	.word	0x00000000
    bf34:	00b71b00 	.word	0x00b71b00
	...
    bf40:	01518000 	.word	0x01518000
    bf44:	61482020 	.word	0x61482020
    bf48:	61466472 	.word	0x61466472
    bf4c:	21746c75 	.word	0x21746c75
    bf50:	00000a0a 	.word	0x00000a0a

0000bf54 <_global_impure_ptr>:
    bf54:	200000c8 00464e49 00666e69 004e414e     ... INF.inf.NAN.
    bf64:	006e616e 33323130 37363534 62613938     nan.0123456789ab
    bf74:	66656463 00000000 33323130 37363534     cdef....01234567
    bf84:	42413938 46454443 00000000 6c756e28     89ABCDEF....(nul
    bf94:	0000296c 00000030                       l)..0...

0000bf9c <blanks.1>:
    bf9c:	20202020 20202020 20202020 20202020                     

0000bfac <zeroes.0>:
    bfac:	30303030 30303030 30303030 30303030     0000000000000000
    bfbc:	004e614e 69666e49 7974696e 00000000     NaN.Infinity....
    bfcc:	6c6c6142 7320636f 65636375 64656465     Balloc succeeded
    bfdc:	00000000 746e6d2f 726f772f 6170736b     ..../mnt/workspa
    bfec:	772f6563 736b726f 65636170 4343472f     ce/workspace/GCC
    bffc:	2d30312d 65706970 656e696c 6e656a2f     -10-pipeline/jen
    c00c:	736e696b 4343472d 2d30312d 65706970     kins-GCC-10-pipe
    c01c:	656e696c 5f38342d 30323032 34323131     line-48_20201124
    c02c:	3036315f 30383136 2f313436 2f637273     _1606180641/src/
    c03c:	6c77656e 6e2f6269 696c7765 696c2f62     newlib/newlib/li
    c04c:	732f6362 696c6474 74642f62 632e616f     bc/stdlib/dtoa.c
    c05c:	00000000 746e6d2f 726f772f 6170736b     ..../mnt/workspa
    c06c:	772f6563 736b726f 65636170 4343472f     ce/workspace/GCC
    c07c:	2d30312d 65706970 656e696c 6e656a2f     -10-pipeline/jen
    c08c:	736e696b 4343472d 2d30312d 65706970     kins-GCC-10-pipe
    c09c:	656e696c 5f38342d 30323032 34323131     line-48_20201124
    c0ac:	3036315f 30383136 2f313436 2f637273     _1606180641/src/
    c0bc:	6c77656e 6e2f6269 696c7765 696c2f62     newlib/newlib/li
    c0cc:	732f6362 696c6474 706d2f62 2e636572     bc/stdlib/mprec.
    c0dc:	00000063                                c...

0000c0e0 <__mprec_bigtens>:
    c0e0:	37e08000 4341c379 b5056e17 4693b8b5     ...7y.AC.n.....F
    c0f0:	e93ff9f5 4d384f03 f9301d32 5a827748     ..?..O8M2.0.Hw.Z
    c100:	7f73bf3c 75154fdd                       <.s..O.u

0000c108 <__mprec_tens>:
    c108:	00000000 3ff00000 00000000 40240000     .......?......$@
    c118:	00000000 40590000 00000000 408f4000     ......Y@.....@.@
    c128:	00000000 40c38800 00000000 40f86a00     .......@.....j.@
    c138:	00000000 412e8480 00000000 416312d0     .......A......cA
    c148:	00000000 4197d784 00000000 41cdcd65     .......A....e..A
    c158:	20000000 4202a05f e8000000 42374876     ... _..B....vH7B
    c168:	a2000000 426d1a94 e5400000 42a2309c     ......mB..@..0.B
    c178:	1e900000 42d6bcc4 26340000 430c6bf5     .......B..4&.k.C
    c188:	37e08000 4341c379 85d8a000 43763457     ...7y.AC....W4vC
    c198:	674ec800 43abc16d 60913d00 43e158e4     ..Ngm..C.=.`.X.C
    c1a8:	78b58c40 4415af1d d6e2ef50 444b1ae4     @..x...DP.....KD
    c1b8:	064dd592 4480f0cf c7e14af6 44b52d02     ..M....D.J...-.D
    c1c8:	79d99db4 44ea7843                       ...yCx.D

0000c1d0 <p05.0>:
    c1d0:	00000005 00000019 0000007d              ........}...

0000c1dc <blanks.1>:
    c1dc:	20202020 20202020 20202020 20202020                     

0000c1ec <zeroes.0>:
    c1ec:	30303030 30303030 30303030 30303030     0000000000000000
    c1fc:	7566202c 6974636e 203a6e6f 00000000     , function: ....
    c20c:	65737361 6f697472 2522206e 66202273     assertion "%s" f
    c21c:	656c6961 66203a64 20656c69 22732522     ailed: file "%s"
    c22c:	696c202c 2520656e 25732564 00000a73     , line %d%s%s...
    c23c:	00000043 49534f50 00000058 0000002e     C...POSIX.......

0000c24c <_ctype_>:
    c24c:	20202000 20202020 28282020 20282828     .         ((((( 
    c25c:	20202020 20202020 20202020 20202020                     
    c26c:	10108820 10101010 10101010 10101010      ...............
    c27c:	04040410 04040404 10040404 10101010     ................
    c28c:	41411010 41414141 01010101 01010101     ..AAAAAA........
    c29c:	01010101 01010101 01010101 10101010     ................
    c2ac:	42421010 42424242 02020202 02020202     ..BBBBBB........
    c2bc:	02020202 02020202 02020202 10101010     ................
    c2cc:	00000020 00000000 00000000 00000000      ...............
	...

0000c350 <__EH_FRAME_BEGIN__>:
    c350:	00000000                                ....
